(lp0
(i__main__
pickledNeuron
p1
(dp2
S'axons'
p3
(lp4
(dp5
S'start'
p6
I0
sS'points'
p7
(lp8
(lp9
F390.0
aF354.0
aa(lp10
F391.0
aF354.5
aa(lp11
F392.0
aF355.0
aa(lp12
F393.0
aF356.0
aa(lp13
F394.0
aF356.25
aa(lp14
F395.0
aF356.5
aa(lp15
F396.0
aF356.75
aa(lp16
F397.0
aF357.0
aa(lp17
F397.8888888888889
aF357.3333333333333
aa(lp18
F398.77777777777777
aF357.6666666666667
aa(lp19
F399.6666666666667
aF358.0
aa(lp20
F400.55555555555554
aF358.3333333333333
aa(lp21
F401.44444444444446
aF358.6666666666667
aa(lp22
F402.3333333333333
aF359.0
aa(lp23
F403.22222222222223
aF359.3333333333333
aa(lp24
F404.1111111111111
aF359.6666666666667
aa(lp25
F405.0
aF360.0
aa(lp26
F405.90909090909093
aF360.45454545454544
aa(lp27
F406.8181818181818
aF360.90909090909093
aa(lp28
F407.72727272727275
aF361.3636363636364
aa(lp29
F408.6363636363636
aF361.8181818181818
aa(lp30
F409.54545454545456
aF362.27272727272725
aa(lp31
F410.45454545454544
aF362.72727272727275
aa(lp32
F411.3636363636364
aF363.1818181818182
aa(lp33
F412.27272727272725
aF363.6363636363636
aa(lp34
F413.1818181818182
aF364.09090909090907
aa(lp35
F414.09090909090907
aF364.54545454545456
aa(lp36
F415.0
aF365.0
aa(lp37
F415.8888888888889
aF365.44444444444446
aa(lp38
F416.77777777777777
aF365.8888888888889
aa(lp39
F417.6666666666667
aF366.3333333333333
aa(lp40
F418.55555555555554
aF366.77777777777777
aa(lp41
F419.44444444444446
aF367.22222222222223
aa(lp42
F420.3333333333333
aF367.6666666666667
aa(lp43
F421.22222222222223
aF368.1111111111111
aa(lp44
F422.1111111111111
aF368.55555555555554
aa(lp45
F423.0
aF369.0
aa(lp46
F423.875
aF369.5
aa(lp47
F424.75
aF370.0
aa(lp48
F425.625
aF370.5
aa(lp49
F426.5
aF371.0
aa(lp50
F427.375
aF371.5
aa(lp51
F428.25
aF372.0
aa(lp52
F429.125
aF372.5
aa(lp53
F430.0
aF373.0
aa(lp54
F430.8888888888889
aF373.44444444444446
aa(lp55
F431.77777777777777
aF373.8888888888889
aa(lp56
F432.6666666666667
aF374.3333333333333
aa(lp57
F433.55555555555554
aF374.77777777777777
aa(lp58
F434.44444444444446
aF375.22222222222223
aa(lp59
F435.3333333333333
aF375.6666666666667
aa(lp60
F436.22222222222223
aF376.1111111111111
aa(lp61
F437.1111111111111
aF376.55555555555554
aa(lp62
F438.0
aF377.0
aa(lp63
F438.75
aF377.625
aa(lp64
F439.5
aF378.25
aa(lp65
F440.25
aF378.875
aa(lp66
F441.0
aF379.5
aa(lp67
F441.75
aF380.125
aa(lp68
F442.5
aF380.75
aa(lp69
F443.25
aF381.375
aa(lp70
F444.0
aF382.0
aa(lp71
F445.0
aF382.3333333333333
aa(lp72
F446.0
aF382.6666666666667
aa(lp73
F447.0
aF383.0
aa(lp74
F448.0
aF383.3333333333333
aa(lp75
F449.0
aF383.6666666666667
aa(lp76
F450.0
aF384.0
aa(lp77
F451.0
aF384.1666666666667
aa(lp78
F452.0
aF384.3333333333333
aa(lp79
F453.0
aF384.5
aa(lp80
F454.0
aF384.6666666666667
aa(lp81
F455.0
aF384.8333333333333
aa(lp82
F456.0
aF385.0
aa(lp83
F456.8333333333333
aF385.5
aa(lp84
F457.6666666666667
aF386.0
aa(lp85
F458.5
aF386.5
aa(lp86
F459.3333333333333
aF387.0
aa(lp87
F460.1666666666667
aF387.5
aa(lp88
F461.0
aF388.0
aa(lp89
F462.0
aF388.5
aa(lp90
F463.0
aF389.0
aa(lp91
F464.0
aF389.5
aa(lp92
F465.0
aF390.0
aa(lp93
F466.0
aF390.3333333333333
aa(lp94
F467.0
aF390.6666666666667
aa(lp95
F468.0
aF391.0
aa(lp96
F469.0
aF391.5
aa(lp97
F470.0
aF392.0
aa(lp98
F471.0
aF393.0
aa(lp99
F472.0
aF393.5
aa(lp100
F473.0
aF394.0
aa(lp101
F474.0
aF394.5
aa(lp102
F475.0
aF395.0
aa(lp103
F476.0
aF395.3333333333333
aa(lp104
F477.0
aF395.6666666666667
aa(lp105
F478.0
aF396.0
aa(lp106
F479.0
aF396.5
aa(lp107
F480.0
aF397.0
aa(lp108
F480.6666666666667
aF397.6666666666667
aa(lp109
F481.3333333333333
aF398.3333333333333
aa(lp110
F482.0
aF399.0
aa(lp111
F483.0
aF399.3333333333333
aa(lp112
F484.0
aF399.6666666666667
aa(lp113
F485.0
aF400.0
aa(lp114
F485.6666666666667
aF400.6666666666667
aa(lp115
F486.3333333333333
aF401.3333333333333
aa(lp116
F487.0
aF402.0
aa(lp117
F488.0
aF402.3333333333333
aa(lp118
F489.0
aF402.6666666666667
aa(lp119
F490.0
aF403.0
aa(lp120
F491.0
aF403.5
aa(lp121
F492.0
aF404.0
aa(lp122
F493.0
aF404.5
aa(lp123
F494.0
aF405.0
aa(lp124
F495.0
aF405.5
aa(lp125
F496.0
aF406.0
aa(lp126
F497.0
aF407.0
aa(lp127
F498.0
aF407.3333333333333
aa(lp128
F499.0
aF407.6666666666667
aa(lp129
F500.0
aF408.0
aa(lp130
F501.0
aF408.0
aa(lp131
F502.0
aF408.5
aa(lp132
F503.0
aF409.0
aa(lp133
F504.0
aF409.0
aa(lp134
F505.0
aF409.5
aa(lp135
F506.0
aF410.0
aa(lp136
F507.0
aF410.0
aa(lp137
F508.0
aF410.5
aa(lp138
F509.0
aF411.0
aa(lp139
F510.0
aF411.0
aa(lp140
F511.0
aF411.0
aa(lp141
F512.0
aF411.0
aa(lp142
F513.0
aF411.0
aa(lp143
F514.0
aF412.0
aa(lp144
F515.0
aF412.0
aa(lp145
F516.0
aF412.0
aa(lp146
F517.0
aF413.0
aa(lp147
F518.0
aF413.0
aa(lp148
F519.0
aF414.0
aa(lp149
F520.0
aF414.0
aa(lp150
F521.0
aF414.0
aa(lp151
F522.0
aF414.5
aa(lp152
F523.0
aF415.0
aa(lp153
F524.0
aF415.0
aa(lp154
F525.0
aF415.0
aa(lp155
F526.0
aF415.5
aa(lp156
F527.0
aF416.0
aa(lp157
F528.0
aF416.0
aa(lp158
F529.0
aF416.0
aa(lp159
F529.0
aF417.0
aa(lp160
F530.0
aF417.0
aa(lp161
F531.0
aF418.0
aa(lp162
F532.0
aF418.0
aa(lp163
F533.0
aF418.0
aa(lp164
F534.0
aF418.0
aa(lp165
F535.0
aF419.0
aa(lp166
F536.0
aF419.0
aa(lp167
F537.0
aF420.0
aa(lp168
F538.0
aF420.0
aa(lp169
F539.0
aF420.0
aa(lp170
F540.0
aF420.0
aasS'end'
p171
I3
sS'weight'
p172
F0.1
sasS'nid'
p173
I0
sS'rf'
p174
I0
sS'tp'
p175
S'auditory'
p176
sS'super_type'
p177
S'sensor'
p178
sS'freq'
p179
I400
sS'rect'
p180
cpygame
__rect_constructor
p181
(I364
I269
I60
I96
tp182
Rp183
sba(i__main__
pickledNeuron
p184
(dp185
g3
(lp186
(dp187
g6
I2
sg7
(lp188
(lp189
F548.0
aF559.0
aa(lp190
F548.0
aF558.0
aa(lp191
F548.0
aF557.0
aa(lp192
F548.0
aF556.0
aa(lp193
F548.0
aF555.0
aa(lp194
F548.0
aF554.0
aa(lp195
F548.0
aF553.0
aa(lp196
F548.0
aF552.0
aa(lp197
F548.0
aF551.0
aa(lp198
F548.0
aF550.0
aa(lp199
F548.0
aF549.0
aa(lp200
F548.0
aF548.0
aa(lp201
F547.6
aF547.0
aa(lp202
F547.2
aF546.0
aa(lp203
F546.8
aF545.0
aa(lp204
F546.4
aF544.0
aa(lp205
F546.0
aF543.0
aa(lp206
F546.0
aF542.0
aa(lp207
F546.0
aF541.0
aa(lp208
F546.0
aF540.0
aa(lp209
F546.0
aF539.0
aa(lp210
F546.0
aF538.0
aa(lp211
F546.0
aF537.0
aa(lp212
F546.0
aF536.0
aa(lp213
F546.0
aF535.0
aa(lp214
F546.0
aF534.0
aa(lp215
F546.0
aF533.0
aa(lp216
F546.0
aF532.0
aa(lp217
F546.0
aF531.0
aa(lp218
F546.0
aF530.0
aa(lp219
F546.0
aF529.0
aa(lp220
F546.0
aF528.0
aa(lp221
F546.0
aF527.0
aa(lp222
F546.0
aF526.0
aa(lp223
F546.0
aF525.0
aa(lp224
F546.0
aF524.0
aa(lp225
F546.0
aF523.0
aa(lp226
F546.0
aF522.0
aa(lp227
F546.0
aF521.0
aa(lp228
F546.0
aF520.0
aa(lp229
F546.0
aF519.0
aa(lp230
F546.0
aF518.0
aa(lp231
F546.0
aF517.0
aa(lp232
F546.0
aF516.0
aa(lp233
F546.0
aF515.0
aa(lp234
F546.0
aF514.0
aa(lp235
F546.0
aF513.0
aa(lp236
F546.0
aF512.0
aa(lp237
F546.0
aF511.0
aa(lp238
F546.0
aF510.0
aa(lp239
F546.0
aF509.0
aa(lp240
F546.0
aF508.0
aa(lp241
F546.0
aF507.0
aa(lp242
F546.0
aF506.0
aa(lp243
F546.0
aF505.0
aa(lp244
F546.0
aF504.0
aa(lp245
F546.0
aF503.0
aa(lp246
F546.0
aF502.0
aa(lp247
F546.0
aF501.0
aa(lp248
F546.0
aF500.0
aa(lp249
F546.0
aF499.0
aa(lp250
F546.0
aF498.0
aa(lp251
F546.0
aF497.0
aa(lp252
F546.0
aF496.0
aa(lp253
F546.0
aF495.0
aa(lp254
F546.0
aF494.0
aa(lp255
F546.0
aF493.0
aa(lp256
F546.0
aF492.0
aa(lp257
F546.0
aF491.0
aa(lp258
F546.0
aF490.0
aa(lp259
F546.0
aF489.0
aa(lp260
F546.0
aF488.0
aa(lp261
F546.0
aF487.0
aa(lp262
F546.0
aF486.0
aa(lp263
F546.0
aF485.0
aa(lp264
F546.0
aF484.0
aa(lp265
F546.0
aF483.0
aa(lp266
F546.0
aF482.0
aa(lp267
F547.0
aF482.0
aa(lp268
F547.0
aF481.0
aa(lp269
F547.0
aF480.0
aa(lp270
F547.0
aF479.0
aa(lp271
F547.0
aF478.0
aa(lp272
F547.0
aF477.0
aa(lp273
F548.0
aF476.0
aa(lp274
F548.0
aF475.0
aa(lp275
F548.0
aF474.0
aa(lp276
F548.0
aF473.0
aa(lp277
F548.0
aF472.0
aa(lp278
F549.0
aF471.0
aa(lp279
F549.0
aF470.0
aa(lp280
F549.0
aF469.0
aa(lp281
F549.0
aF468.0
aa(lp282
F549.0
aF467.0
aa(lp283
F549.0
aF466.0
aa(lp284
F549.0
aF465.0
aa(lp285
F549.0
aF464.0
aa(lp286
F549.0
aF463.0
aa(lp287
F550.0
aF462.0
aa(lp288
F550.0
aF461.0
aa(lp289
F550.0
aF460.0
aa(lp290
F550.0
aF459.0
aa(lp291
F550.0
aF458.0
aa(lp292
F550.0
aF457.0
aa(lp293
F550.0
aF456.0
aa(lp294
F550.0
aF455.0
aa(lp295
F550.0
aF454.0
aa(lp296
F550.0
aF453.0
aa(lp297
F550.0
aF452.0
aa(lp298
F550.0
aF451.0
aa(lp299
F550.0
aF450.0
aa(lp300
F550.0
aF449.0
aa(lp301
F550.0
aF448.0
aa(lp302
F550.0
aF447.0
aa(lp303
F550.0
aF446.0
aa(lp304
F550.0
aF445.0
aa(lp305
F550.0
aF444.0
aa(lp306
F550.0
aF443.0
aa(lp307
F550.0
aF442.0
aa(lp308
F550.0
aF441.0
aa(lp309
F550.0
aF440.0
aa(lp310
F550.0
aF439.0
aa(lp311
F550.0
aF438.0
aa(lp312
F550.0
aF437.0
aasg171
I3
sg172
F0.1
sasg173
I2
sg174
I0
sg175
g176
sg177
g178
sg179
I600
sg180
g181
(I522
I519
I60
I96
tp313
Rp314
sba(i__main__
pickledNeuron
p315
(dp316
g3
(lp317
sg173
I3
sg174
I0
sg175
S'excitatory'
p318
sg177
S'neuron'
p319
sg179
Nsg180
g181
(I519
I389
I60
I96
tp320
Rp321
sba(i__main__
pickledNeuron
p322
(dp323
g3
(lp324
(dp325
g6
I1
sg7
(lp326
(lp327
F707.0
aF348.0
aa(lp328
F706.2
aF348.6
aa(lp329
F705.4
aF349.2
aa(lp330
F704.6
aF349.8
aa(lp331
F703.8
aF350.4
aa(lp332
F703.0
aF351.0
aa(lp333
F702.125
aF351.375
aa(lp334
F701.25
aF351.75
aa(lp335
F700.375
aF352.125
aa(lp336
F699.5
aF352.5
aa(lp337
F698.625
aF352.875
aa(lp338
F697.75
aF353.25
aa(lp339
F696.875
aF353.625
aa(lp340
F696.0
aF354.0
aa(lp341
F695.1111111111111
aF354.44444444444446
aa(lp342
F694.2222222222222
aF354.8888888888889
aa(lp343
F693.3333333333334
aF355.3333333333333
aa(lp344
F692.4444444444445
aF355.77777777777777
aa(lp345
F691.5555555555555
aF356.22222222222223
aa(lp346
F690.6666666666666
aF356.6666666666667
aa(lp347
F689.7777777777778
aF357.1111111111111
aa(lp348
F688.8888888888889
aF357.55555555555554
aa(lp349
F688.0
aF358.0
aa(lp350
F687.0
aF358.3333333333333
aa(lp351
F686.0
aF358.6666666666667
aa(lp352
F685.0
aF359.0
aa(lp353
F684.0
aF359.3333333333333
aa(lp354
F683.0
aF359.6666666666667
aa(lp355
F682.0
aF360.0
aa(lp356
F681.0
aF360.3333333333333
aa(lp357
F680.0
aF360.6666666666667
aa(lp358
F679.0
aF361.0
aa(lp359
F678.1111111111111
aF361.55555555555554
aa(lp360
F677.2222222222222
aF362.1111111111111
aa(lp361
F676.3333333333334
aF362.6666666666667
aa(lp362
F675.4444444444445
aF363.22222222222223
aa(lp363
F674.5555555555555
aF363.77777777777777
aa(lp364
F673.6666666666666
aF364.3333333333333
aa(lp365
F672.7777777777778
aF364.8888888888889
aa(lp366
F671.8888888888889
aF365.44444444444446
aa(lp367
F671.0
aF366.0
aa(lp368
F670.0
aF366.3333333333333
aa(lp369
F669.0
aF366.6666666666667
aa(lp370
F668.0
aF367.0
aa(lp371
F667.0
aF367.3333333333333
aa(lp372
F666.0
aF367.6666666666667
aa(lp373
F665.0
aF368.0
aa(lp374
F664.0
aF368.3333333333333
aa(lp375
F663.0
aF368.6666666666667
aa(lp376
F662.0
aF369.0
aa(lp377
F661.0
aF369.3333333333333
aa(lp378
F660.0
aF369.6666666666667
aa(lp379
F659.0
aF370.0
aa(lp380
F658.1666666666666
aF370.5
aa(lp381
F657.3333333333334
aF371.0
aa(lp382
F656.5
aF371.5
aa(lp383
F655.6666666666666
aF372.0
aa(lp384
F654.8333333333334
aF372.5
aa(lp385
F654.0
aF373.0
aa(lp386
F653.0
aF373.5
aa(lp387
F652.0
aF374.0
aa(lp388
F651.0
aF374.5
aa(lp389
F650.0
aF375.0
aa(lp390
F649.0
aF375.25
aa(lp391
F648.0
aF375.5
aa(lp392
F647.0
aF375.75
aa(lp393
F646.0
aF376.0
aa(lp394
F645.0
aF376.5
aa(lp395
F644.0
aF377.0
aa(lp396
F643.0
aF377.5
aa(lp397
F642.0
aF378.0
aa(lp398
F641.0
aF379.0
aa(lp399
F640.0
aF379.5
aa(lp400
F639.0
aF380.0
aa(lp401
F638.0
aF380.0
aa(lp402
F637.0
aF380.0
aa(lp403
F636.0
aF380.5
aa(lp404
F635.0
aF381.0
aa(lp405
F634.0
aF381.3333333333333
aa(lp406
F633.0
aF381.6666666666667
aa(lp407
F632.0
aF382.0
aa(lp408
F631.0
aF382.25
aa(lp409
F630.0
aF382.5
aa(lp410
F629.0
aF382.75
aa(lp411
F628.0
aF383.0
aa(lp412
F627.25
aF383.5
aa(lp413
F626.5
aF384.0
aa(lp414
F625.75
aF384.5
aa(lp415
F625.0
aF385.0
aa(lp416
F624.0
aF385.3333333333333
aa(lp417
F623.0
aF385.6666666666667
aa(lp418
F622.0
aF386.0
aa(lp419
F621.0
aF386.3333333333333
aa(lp420
F620.0
aF386.6666666666667
aa(lp421
F619.0
aF387.0
aa(lp422
F618.0
aF387.3333333333333
aa(lp423
F617.0
aF387.6666666666667
aa(lp424
F616.0
aF388.0
aa(lp425
F615.0
aF388.5
aa(lp426
F614.0
aF389.0
aa(lp427
F613.0
aF389.5
aa(lp428
F612.0
aF390.0
aa(lp429
F611.0
aF390.0
aa(lp430
F610.0
aF390.0
aa(lp431
F609.0
aF390.0
aa(lp432
F608.0
aF390.5
aa(lp433
F607.0
aF391.0
aa(lp434
F606.0
aF392.0
aa(lp435
F605.0
aF392.0
aa(lp436
F604.0
aF392.0
aa(lp437
F603.0
aF392.5
aa(lp438
F602.0
aF393.0
aa(lp439
F601.0
aF393.5
aa(lp440
F600.0
aF394.0
aa(lp441
F599.0
aF394.0
aa(lp442
F598.0
aF394.5
aa(lp443
F597.0
aF395.0
aa(lp444
F596.0
aF395.5
aa(lp445
F595.0
aF396.0
aa(lp446
F594.0
aF396.0
aa(lp447
F593.0
aF396.0
aa(lp448
F592.0
aF396.0
aa(lp449
F591.0
aF396.5
aa(lp450
F590.0
aF397.0
aa(lp451
F589.0
aF398.0
aa(lp452
F588.0
aF398.5
aa(lp453
F587.0
aF399.0
aa(lp454
F586.0
aF399.0
aa(lp455
F585.0
aF399.0
aa(lp456
F584.0
aF400.0
aa(lp457
F583.0
aF400.5
aa(lp458
F582.0
aF401.0
aa(lp459
F581.0
aF401.0
aa(lp460
F580.0
aF401.0
aa(lp461
F579.0
aF402.0
aa(lp462
F578.0
aF402.5
aa(lp463
F577.0
aF403.0
aa(lp464
F576.0
aF403.0
aa(lp465
F575.0
aF403.5
aa(lp466
F574.0
aF404.0
aa(lp467
F573.0
aF404.0
aa(lp468
F572.0
aF405.0
aa(lp469
F571.0
aF406.0
aa(lp470
F570.0
aF406.0
aa(lp471
F569.0
aF406.0
aa(lp472
F568.0
aF407.0
aa(lp473
F567.0
aF407.0
aa(lp474
F566.0
aF408.0
aa(lp475
F565.0
aF408.0
aa(lp476
F564.0
aF409.0
aa(lp477
F563.0
aF409.5
aa(lp478
F562.0
aF410.0
aa(lp479
F561.0
aF410.0
aa(lp480
F560.0
aF411.0
aa(lp481
F559.0
aF411.0
aa(lp482
F558.0
aF411.5
aa(lp483
F557.0
aF412.0
aa(lp484
F556.0
aF413.0
aa(lp485
F555.0
aF413.0
aa(lp486
F554.0
aF414.0
aa(lp487
F553.0
aF414.0
aa(lp488
F552.0
aF415.0
aa(lp489
F551.0
aF415.0
aa(lp490
F550.0
aF415.0
aa(lp491
F549.0
aF416.0
aa(lp492
F548.0
aF417.0
aa(lp493
F547.0
aF417.0
aasg171
I3
sg172
F0.1
sasg173
I1
sg174
I0
sg175
g176
sg177
g178
sg179
I500
sg180
g181
(I687
I281
I60
I96
tp494
Rp495
sba.