(lp0
(i__main__
pickledNeuron
p1
(dp2
S'axons'
p3
(lp4
(dp5
S'start'
p6
I2
sS'points'
p7
(lp8
(lp9
F644.0
aF389.0
aa(lp10
F643.5
aF389.75
aa(lp11
F643.0
aF390.5
aa(lp12
F642.5
aF391.25
aa(lp13
F642.0
aF392.0
aa(lp14
F641.5
aF393.0
aa(lp15
F641.0
aF394.0
aa(lp16
F640.5
aF394.75
aa(lp17
F640.0
aF395.5
aa(lp18
F639.5
aF396.25
aa(lp19
F639.0
aF397.0
aa(lp20
F638.0
aF398.0
aa(lp21
F637.3333333333334
aF398.6666666666667
aa(lp22
F636.6666666666666
aF399.3333333333333
aa(lp23
F636.0
aF400.0
aa(lp24
F635.3333333333334
aF400.6666666666667
aa(lp25
F634.6666666666666
aF401.3333333333333
aa(lp26
F634.0
aF402.0
aa(lp27
F633.0
aF402.5
aa(lp28
F632.0
aF403.0
aa(lp29
F631.3333333333334
aF403.6666666666667
aa(lp30
F630.6666666666666
aF404.3333333333333
aa(lp31
F630.0
aF405.0
aa(lp32
F629.0
aF406.0
aa(lp33
F628.0
aF406.5
aa(lp34
F627.0
aF407.0
aa(lp35
F626.0
aF408.0
aa(lp36
F625.0
aF408.5
aa(lp37
F624.0
aF409.0
aa(lp38
F623.0
aF410.0
aa(lp39
F622.0
aF410.0
aa(lp40
F622.0
aF411.0
aa(lp41
F621.0
aF411.0
aa(lp42
F620.0
aF411.0
aa(lp43
F619.0
aF411.5
aa(lp44
F618.0
aF412.0
aa(lp45
F617.0
aF412.5
aa(lp46
F616.0
aF413.0
aa(lp47
F615.0
aF413.5
aa(lp48
F614.0
aF414.0
aa(lp49
F613.0
aF414.5
aa(lp50
F612.0
aF415.0
aa(lp51
F611.0
aF415.3333333333333
aa(lp52
F610.0
aF415.6666666666667
aa(lp53
F609.0
aF416.0
aa(lp54
F608.0
aF416.5
aa(lp55
F607.0
aF417.0
aa(lp56
F606.0
aF417.3333333333333
aa(lp57
F605.0
aF417.6666666666667
aa(lp58
F604.0
aF418.0
aa(lp59
F603.0
aF418.3333333333333
aa(lp60
F602.0
aF418.6666666666667
aa(lp61
F601.0
aF419.0
aa(lp62
F600.0
aF419.5
aa(lp63
F599.0
aF420.0
aa(lp64
F598.0
aF420.0
aa(lp65
F597.0
aF420.0
aa(lp66
F596.0
aF420.0
aa(lp67
F595.0
aF420.0
aa(lp68
F594.0
aF420.0
aa(lp69
F593.0
aF420.5
aa(lp70
F592.0
aF421.0
aa(lp71
F591.0
aF421.0
aa(lp72
F590.0
aF421.5
aa(lp73
F589.0
aF422.0
aa(lp74
F588.0
aF422.3333333333333
aa(lp75
F587.0
aF422.6666666666667
aa(lp76
F586.0
aF423.0
aa(lp77
F585.0
aF423.0
aa(lp78
F584.0
aF423.5
aa(lp79
F583.0
aF424.0
aa(lp80
F582.0
aF424.0
aa(lp81
F581.0
aF424.0
aa(lp82
F580.0
aF425.0
aa(lp83
F579.0
aF425.0
aa(lp84
F578.0
aF425.0
aa(lp85
F577.0
aF426.0
aa(lp86
F576.0
aF426.0
aa(lp87
F575.0
aF427.0
aa(lp88
F574.0
aF427.0
aa(lp89
F573.0
aF428.0
aa(lp90
F572.0
aF428.0
aa(lp91
F571.0
aF429.0
aa(lp92
F570.0
aF429.0
aa(lp93
F569.0
aF429.0
aa(lp94
F569.0
aF430.0
aa(lp95
F568.0
aF430.0
aa(lp96
F567.0
aF430.0
aa(lp97
F566.0
aF431.0
aa(lp98
F565.0
aF431.0
aa(lp99
F564.0
aF432.0
aa(lp100
F563.0
aF432.0
aa(lp101
F562.0
aF433.0
aa(lp102
F561.0
aF433.0
aa(lp103
F560.0
aF433.0
aa(lp104
F559.0
aF433.0
aa(lp105
F558.0
aF434.0
aa(lp106
F557.0
aF434.0
aa(lp107
F556.0
aF434.0
aa(lp108
F555.0
aF435.0
aa(lp109
F554.0
aF435.0
aa(lp110
F553.0
aF435.0
aasS'end'
p111
I3
sS'weight'
p112
F0.5
sasS'nid'
p113
I2
sS'rf'
p114
I0
sS'tp'
p115
S'inhibitory'
p116
sS'super_type'
p117
S'neuron'
p118
sS'rect'
p119
cpygame
__rect_constructor
p120
(I611
I343
I73
I76
tp121
Rp122
sba(i__main__
pickledNeuron
p123
(dp124
g3
(lp125
sg113
I4
sg114
I0
sg115
S'excitatory'
p126
sg117
g118
sg119
g120
(I528
I523
I60
I96
tp127
Rp128
sba(i__main__
pickledNeuron
p129
(dp130
g3
(lp131
(dp132
g6
I0
sg7
(lp133
(lp134
F414.0
aF297.0
aa(lp135
F414.0
aF298.0
aa(lp136
F414.0
aF299.0
aa(lp137
F414.0
aF300.0
aa(lp138
F414.0
aF301.0
aa(lp139
F414.0
aF302.0
aa(lp140
F414.0
aF303.0
aa(lp141
F414.0
aF304.0
aa(lp142
F414.0
aF305.0
aa(lp143
F414.0
aF306.0
aa(lp144
F414.0
aF307.0
aa(lp145
F414.0
aF308.0
aa(lp146
F414.0
aF309.0
aa(lp147
F414.0
aF310.0
aa(lp148
F414.0
aF311.0
aa(lp149
F414.0
aF312.0
aa(lp150
F414.0
aF313.0
aa(lp151
F415.0
aF314.0
aa(lp152
F415.0
aF315.0
aa(lp153
F415.0
aF316.0
aa(lp154
F415.0
aF317.0
aa(lp155
F416.0
aF318.0
aa(lp156
F416.0
aF319.0
aa(lp157
F416.0
aF320.0
aa(lp158
F416.0
aF321.0
aa(lp159
F416.0
aF322.0
aa(lp160
F416.0
aF323.0
aa(lp161
F417.0
aF323.0
aa(lp162
F417.0
aF324.0
aa(lp163
F417.0
aF325.0
aa(lp164
F418.0
aF326.0
aa(lp165
F418.0
aF327.0
aa(lp166
F418.0
aF328.0
aa(lp167
F419.0
aF329.0
aa(lp168
F419.0
aF330.0
aa(lp169
F420.0
aF331.0
aa(lp170
F420.0
aF332.0
aa(lp171
F421.0
aF333.0
aa(lp172
F421.5
aF334.0
aa(lp173
F422.0
aF335.0
aa(lp174
F422.0
aF336.0
aa(lp175
F423.0
aF337.0
aa(lp176
F423.0
aF338.0
aa(lp177
F424.0
aF339.0
aa(lp178
F424.0
aF340.0
aa(lp179
F424.0
aF341.0
aa(lp180
F425.0
aF342.0
aa(lp181
F425.0
aF343.0
aa(lp182
F426.0
aF344.0
aa(lp183
F426.0
aF345.0
aa(lp184
F427.0
aF346.0
aa(lp185
F427.0
aF347.0
aa(lp186
F428.0
aF348.0
aa(lp187
F429.0
aF349.0
aa(lp188
F429.0
aF350.0
aa(lp189
F429.0
aF351.0
aa(lp190
F430.0
aF352.0
aa(lp191
F430.5
aF353.0
aa(lp192
F431.0
aF354.0
aa(lp193
F432.0
aF355.0
aa(lp194
F432.0
aF356.0
aa(lp195
F432.0
aF357.0
aa(lp196
F433.0
aF358.0
aa(lp197
F434.0
aF359.0
aa(lp198
F434.0
aF360.0
aa(lp199
F435.0
aF361.0
aa(lp200
F436.0
aF362.0
aa(lp201
F436.0
aF363.0
aa(lp202
F437.0
aF364.0
aa(lp203
F438.0
aF365.0
aa(lp204
F438.0
aF366.0
aa(lp205
F439.0
aF367.0
aa(lp206
F440.0
aF368.0
aa(lp207
F440.0
aF369.0
aa(lp208
F441.0
aF370.0
aa(lp209
F441.0
aF371.0
aa(lp210
F442.0
aF372.0
aa(lp211
F442.0
aF373.0
aa(lp212
F443.0
aF374.0
aa(lp213
F444.0
aF374.0
aa(lp214
F444.5
aF375.0
aa(lp215
F445.0
aF376.0
aa(lp216
F445.5
aF377.0
aa(lp217
F446.0
aF378.0
aa(lp218
F447.0
aF379.0
aa(lp219
F447.5
aF380.0
aa(lp220
F448.0
aF381.0
aa(lp221
F449.0
aF382.0
aa(lp222
F450.0
aF383.0
aa(lp223
F451.0
aF384.0
aa(lp224
F452.0
aF385.0
aa(lp225
F452.0
aF386.0
aa(lp226
F453.0
aF386.5
aa(lp227
F454.0
aF387.0
aa(lp228
F454.6666666666667
aF387.6666666666667
aa(lp229
F455.3333333333333
aF388.3333333333333
aa(lp230
F456.0
aF389.0
aa(lp231
F457.0
aF390.0
aa(lp232
F458.0
aF391.0
aa(lp233
F459.0
aF391.0
aa(lp234
F460.0
aF392.0
aa(lp235
F461.0
aF393.0
aa(lp236
F462.0
aF394.0
aa(lp237
F463.0
aF395.0
aa(lp238
F464.0
aF396.0
aa(lp239
F465.0
aF397.0
aa(lp240
F466.0
aF397.0
aa(lp241
F466.6666666666667
aF397.6666666666667
aa(lp242
F467.3333333333333
aF398.3333333333333
aa(lp243
F468.0
aF399.0
aa(lp244
F469.0
aF400.0
aa(lp245
F470.0
aF401.0
aa(lp246
F471.0
aF401.5
aa(lp247
F472.0
aF402.0
aa(lp248
F473.0
aF402.5
aa(lp249
F474.0
aF403.0
aa(lp250
F474.6666666666667
aF403.6666666666667
aa(lp251
F475.3333333333333
aF404.3333333333333
aa(lp252
F476.0
aF405.0
aa(lp253
F477.0
aF405.5
aa(lp254
F478.0
aF406.0
aa(lp255
F479.0
aF407.0
aa(lp256
F480.0
aF407.5
aa(lp257
F481.0
aF408.0
aa(lp258
F482.0
aF408.5
aa(lp259
F483.0
aF409.0
aa(lp260
F484.0
aF409.5
aa(lp261
F485.0
aF410.0
aa(lp262
F486.0
aF411.0
aa(lp263
F487.0
aF411.5
aa(lp264
F488.0
aF412.0
aa(lp265
F489.0
aF412.0
aa(lp266
F490.0
aF412.5
aa(lp267
F491.0
aF413.0
aa(lp268
F492.0
aF414.0
aa(lp269
F493.0
aF414.5
aa(lp270
F494.0
aF415.0
aa(lp271
F495.0
aF416.0
aa(lp272
F496.0
aF417.0
aa(lp273
F497.0
aF417.5
aa(lp274
F498.0
aF418.0
aa(lp275
F499.0
aF418.0
aa(lp276
F500.0
aF419.0
aa(lp277
F501.0
aF420.0
aa(lp278
F502.0
aF421.0
aa(lp279
F503.0
aF421.0
aa(lp280
F504.0
aF421.0
aa(lp281
F505.0
aF422.0
aa(lp282
F506.0
aF422.5
aa(lp283
F507.0
aF423.0
aa(lp284
F508.0
aF423.0
aa(lp285
F509.0
aF424.0
aa(lp286
F510.0
aF424.5
aa(lp287
F511.0
aF425.0
aa(lp288
F512.0
aF425.5
aa(lp289
F513.0
aF426.0
aa(lp290
F514.0
aF427.0
aa(lp291
F515.0
aF427.0
aa(lp292
F516.0
aF428.0
aa(lp293
F517.0
aF428.0
aa(lp294
F518.0
aF428.0
aa(lp295
F518.0
aF429.0
aa(lp296
F519.0
aF429.0
aa(lp297
F520.0
aF430.0
aa(lp298
F521.0
aF430.0
aa(lp299
F522.0
aF431.0
aa(lp300
F523.0
aF431.0
aa(lp301
F524.0
aF432.0
aa(lp302
F525.0
aF432.0
aa(lp303
F526.0
aF432.0
aa(lp304
F527.0
aF432.0
aa(lp305
F528.0
aF433.0
aa(lp306
F528.0
aF434.0
aa(lp307
F529.0
aF434.0
aa(lp308
F530.0
aF434.0
aa(lp309
F531.0
aF434.0
aa(lp310
F532.0
aF434.0
aa(lp311
F533.0
aF435.0
aa(lp312
F534.0
aF435.0
aa(lp313
F535.0
aF435.0
aa(lp314
F535.0
aF436.0
aa(lp315
F536.0
aF436.0
aa(lp316
F537.0
aF436.0
aa(lp317
F538.0
aF436.0
aa(lp318
F539.0
aF436.0
aa(lp319
F540.0
aF436.0
aa(lp320
F540.0
aF437.0
aa(lp321
F541.0
aF437.0
aa(lp322
F542.0
aF437.0
aasg111
I3
sg112
F0.1
sasg113
I0
sg114
(lp323
(I10
I4
tp324
a(I10
I5
tp325
a(I10
I6
tp326
a(I10
I7
tp327
a(I10
I8
tp328
a(I10
I9
tp329
a(I10
I10
tp330
a(I10
I11
tp331
a(I10
I12
tp332
a(I10
I13
tp333
a(I10
I14
tp334
a(I10
I15
tp335
a(I10
I16
tp336
a(I10
I17
tp337
a(I10
I18
tp338
asg115
S'visual'
p339
sg117
S'sensor'
p340
sg119
g120
(I391
I212
I60
I96
tp341
Rp342
sba(i__main__
pickledNeuron
p343
(dp344
g3
(lp345
(dp346
g6
I3
sg7
(lp347
(lp348
F549.0
aF435.0
aa(lp349
F549.0
aF436.0
aa(lp350
F549.0
aF437.0
aa(lp351
F549.0
aF438.0
aa(lp352
F549.0
aF439.0
aa(lp353
F549.0
aF440.0
aa(lp354
F549.0
aF441.0
aa(lp355
F549.0
aF442.0
aa(lp356
F549.0
aF443.0
aa(lp357
F549.0
aF444.0
aa(lp358
F549.0
aF445.0
aa(lp359
F549.0
aF446.0
aa(lp360
F549.0
aF447.0
aa(lp361
F549.0
aF448.0
aa(lp362
F549.0
aF449.0
aa(lp363
F549.0
aF450.0
aa(lp364
F548.8
aF451.0
aa(lp365
F548.6
aF452.0
aa(lp366
F548.4
aF453.0
aa(lp367
F548.2
aF454.0
aa(lp368
F548.0
aF455.0
aa(lp369
F548.0
aF456.0
aa(lp370
F548.0
aF457.0
aa(lp371
F548.0
aF458.0
aa(lp372
F548.0
aF459.0
aa(lp373
F548.0
aF460.0
aa(lp374
F548.0
aF461.0
aa(lp375
F548.0
aF462.0
aa(lp376
F548.0
aF463.0
aa(lp377
F548.0
aF464.0
aa(lp378
F548.0
aF465.0
aa(lp379
F548.0
aF466.0
aa(lp380
F548.0
aF467.0
aa(lp381
F548.0
aF468.0
aa(lp382
F548.0
aF469.0
aa(lp383
F548.0
aF470.0
aa(lp384
F548.0
aF471.0
aa(lp385
F548.0
aF472.0
aa(lp386
F548.0
aF473.0
aa(lp387
F548.0
aF474.0
aa(lp388
F548.0
aF475.0
aa(lp389
F548.0
aF476.0
aa(lp390
F548.0
aF477.0
aa(lp391
F548.0
aF478.0
aa(lp392
F548.0
aF479.0
aa(lp393
F548.0
aF480.0
aa(lp394
F548.0
aF481.0
aa(lp395
F548.0
aF482.0
aa(lp396
F548.0
aF483.0
aa(lp397
F548.0
aF484.0
aa(lp398
F548.0
aF485.0
aa(lp399
F548.0
aF486.0
aa(lp400
F548.0
aF487.0
aa(lp401
F548.0
aF488.0
aa(lp402
F548.0
aF489.0
aa(lp403
F548.0
aF490.0
aa(lp404
F548.0
aF491.0
aa(lp405
F548.0
aF492.0
aa(lp406
F548.0
aF493.0
aa(lp407
F548.0
aF494.0
aa(lp408
F548.0
aF495.0
aa(lp409
F548.0
aF496.0
aa(lp410
F548.0
aF497.0
aa(lp411
F548.0
aF498.0
aa(lp412
F548.0
aF499.0
aa(lp413
F548.0
aF500.0
aa(lp414
F548.0
aF501.0
aa(lp415
F548.0
aF502.0
aa(lp416
F548.0
aF503.0
aa(lp417
F548.0
aF504.0
aa(lp418
F548.0
aF505.0
aa(lp419
F548.0
aF506.0
aa(lp420
F548.0
aF507.0
aa(lp421
F548.0
aF508.0
aa(lp422
F548.0
aF509.0
aa(lp423
F548.0
aF510.0
aa(lp424
F548.0
aF511.0
aa(lp425
F548.0
aF512.0
aa(lp426
F548.0
aF513.0
aa(lp427
F548.0
aF514.0
aa(lp428
F548.0
aF515.0
aa(lp429
F548.0
aF516.0
aa(lp430
F548.0
aF517.0
aa(lp431
F548.0
aF518.0
aa(lp432
F548.5
aF519.0
aa(lp433
F549.0
aF520.0
aa(lp434
F549.5
aF521.0
aa(lp435
F550.0
aF522.0
aa(lp436
F550.0
aF523.0
aa(lp437
F550.0
aF524.0
aa(lp438
F550.0
aF525.0
aa(lp439
F550.0
aF526.0
aa(lp440
F550.0
aF527.0
aa(lp441
F550.0
aF528.0
aa(lp442
F550.0
aF529.0
aa(lp443
F550.0
aF530.0
aa(lp444
F550.0
aF531.0
aa(lp445
F550.0
aF532.0
aa(lp446
F550.0
aF533.0
aa(lp447
F550.0
aF534.0
aa(lp448
F550.0
aF535.0
aa(lp449
F550.0
aF536.0
aa(lp450
F550.0
aF537.0
aa(lp451
F550.0
aF538.0
aa(lp452
F550.0
aF539.0
aa(lp453
F550.0
aF540.0
aa(lp454
F550.0
aF541.0
aa(lp455
F550.0
aF542.0
aa(lp456
F550.0
aF543.0
aa(lp457
F550.0
aF544.0
aa(lp458
F550.0
aF545.0
aa(lp459
F550.0
aF546.0
aa(lp460
F550.0
aF547.0
aa(lp461
F550.0
aF548.0
aa(lp462
F550.0
aF549.0
aa(lp463
F549.0
aF550.0
aa(lp464
F549.0
aF551.0
aa(lp465
F549.0
aF552.0
aa(lp466
F549.0
aF553.0
aa(lp467
F549.0
aF554.0
aa(lp468
F549.0
aF555.0
aa(lp469
F549.0
aF556.0
aa(lp470
F549.0
aF557.0
aasg111
I4
sg112
F0.1
sasg113
I3
sg114
I0
sg115
g126
sg117
g118
sg119
g120
(I523
I350
I60
I96
tp471
Rp472
sba(i__main__
pickledNeuron
p473
(dp474
g3
(lp475
(dp476
g6
I1
sg7
(lp477
(lp478
F671.0
aF308.0
aa(lp479
F671.0
aF309.0
aa(lp480
F671.0
aF310.0
aa(lp481
F671.0
aF311.0
aa(lp482
F671.0
aF312.0
aa(lp483
F671.0
aF313.0
aa(lp484
F671.0
aF314.0
aa(lp485
F671.0
aF315.0
aa(lp486
F671.0
aF316.0
aa(lp487
F671.0
aF317.0
aa(lp488
F671.0
aF318.0
aa(lp489
F671.0
aF319.0
aa(lp490
F671.0
aF320.0
aa(lp491
F671.0
aF321.0
aa(lp492
F671.0
aF322.0
aa(lp493
F670.5
aF323.0
aa(lp494
F670.0
aF324.0
aa(lp495
F670.0
aF325.0
aa(lp496
F670.0
aF326.0
aa(lp497
F669.5
aF327.0
aa(lp498
F669.0
aF328.0
aa(lp499
F669.0
aF329.0
aa(lp500
F669.0
aF330.0
aa(lp501
F668.0
aF331.0
aa(lp502
F668.0
aF332.0
aa(lp503
F667.5
aF333.0
aa(lp504
F667.0
aF334.0
aa(lp505
F667.0
aF335.0
aa(lp506
F667.0
aF336.0
aa(lp507
F667.0
aF337.0
aa(lp508
F666.0
aF338.0
aa(lp509
F666.0
aF339.0
aa(lp510
F665.0
aF339.0
aa(lp511
F665.0
aF340.0
aa(lp512
F665.0
aF341.0
aa(lp513
F664.5
aF342.0
aa(lp514
F664.0
aF343.0
aa(lp515
F664.0
aF344.0
aa(lp516
F663.5
aF345.0
aa(lp517
F663.0
aF346.0
aa(lp518
F662.5
aF347.0
aa(lp519
F662.0
aF348.0
aa(lp520
F661.0
aF349.0
aa(lp521
F661.0
aF350.0
aa(lp522
F661.0
aF351.0
aa(lp523
F661.0
aF352.0
aa(lp524
F660.0
aF352.0
aa(lp525
F660.0
aF353.0
aa(lp526
F659.0
aF354.0
aa(lp527
F659.0
aF355.0
aa(lp528
F658.0
aF356.0
aa(lp529
F658.0
aF357.0
aa(lp530
F657.0
aF357.0
aa(lp531
F657.0
aF358.0
aa(lp532
F657.0
aF359.0
aa(lp533
F656.0
aF360.0
aa(lp534
F655.0
aF361.0
aa(lp535
F655.0
aF362.0
aa(lp536
F654.0
aF363.0
aa(lp537
F654.0
aF364.0
aa(lp538
F654.0
aF365.0
aa(lp539
F653.0
aF366.0
aa(lp540
F652.0
aF366.0
aa(lp541
F652.0
aF367.0
aa(lp542
F652.0
aF368.0
aa(lp543
F651.0
aF369.0
aa(lp544
F651.0
aF370.0
aa(lp545
F650.0
aF371.0
aa(lp546
F650.0
aF372.0
aa(lp547
F649.5
aF373.0
aa(lp548
F649.0
aF374.0
aa(lp549
F648.0
aF375.0
aa(lp550
F648.0
aF376.0
aa(lp551
F648.0
aF377.0
aa(lp552
F647.0
aF377.0
aa(lp553
F647.0
aF378.0
aa(lp554
F647.0
aF379.0
aa(lp555
F646.0
aF380.0
aa(lp556
F646.0
aF381.0
aa(lp557
F645.0
aF382.0
aasg111
I2
sg112
F0.5
sasg113
I1
sg114
(lp558
(I11
I4
tp559
a(I11
I5
tp560
a(I11
I6
tp561
a(I11
I7
tp562
a(I11
I8
tp563
a(I11
I9
tp564
a(I11
I10
tp565
a(I11
I12
tp566
a(I11
I11
tp567
a(I11
I13
tp568
a(I11
I14
tp569
a(I11
I15
tp570
a(I11
I16
tp571
a(I11
I17
tp572
a(I11
I18
tp573
asg115
g339
sg117
g340
sg119
g120
(I643
I226
I60
I96
tp574
Rp575
sba.