(lp0
(i__main__
pickledNeuron
p1
(dp2
S'axons'
p3
(lp4
sS'nid'
p5
I3
sS'rf'
p6
I0
sS'tp'
p7
S'rightbackward'
p8
sS'super_type'
p9
S'motor'
p10
sS'rect'
p11
cpygame
__rect_constructor
p12
(I561
I382
I80
I51
tp13
Rp14
sba(i__main__
pickledNeuron
p15
(dp16
g3
(lp17
sg5
I2
sg6
I0
sg7
S'leftbackward'
p18
sg9
g10
sg11
g12
(I449
I385
I80
I52
tp19
Rp20
sba(i__main__
pickledNeuron
p21
(dp22
g3
(lp23
(dp24
S'start'
p25
I4
sS'points'
p26
(lp27
(lp28
F537.0
aF332.0
aa(lp29
F536.0
aF333.0
aa(lp30
F535.0
aF334.0
aa(lp31
F535.0
aF335.0
aa(lp32
F535.0
aF336.0
aa(lp33
F535.0
aF337.0
aa(lp34
F534.3333333333334
aF337.6666666666667
aa(lp35
F533.6666666666666
aF338.3333333333333
aa(lp36
F533.0
aF339.0
aa(lp37
F532.0
aF340.0
aa(lp38
F532.0
aF341.0
aa(lp39
F532.0
aF342.0
aa(lp40
F531.0
aF343.0
aa(lp41
F530.3333333333334
aF343.6666666666667
aa(lp42
F529.6666666666666
aF344.3333333333333
aa(lp43
F529.0
aF345.0
aa(lp44
F528.0
aF346.0
aa(lp45
F527.3333333333334
aF346.6666666666667
aa(lp46
F526.6666666666666
aF347.3333333333333
aa(lp47
F526.0
aF348.0
aa(lp48
F526.0
aF349.0
aa(lp49
F525.0
aF350.0
aa(lp50
F524.3333333333334
aF350.6666666666667
aa(lp51
F523.6666666666666
aF351.3333333333333
aa(lp52
F523.0
aF352.0
aa(lp53
F522.6666666666666
aF353.0
aa(lp54
F522.3333333333334
aF354.0
aa(lp55
F522.0
aF355.0
aa(lp56
F521.5
aF356.0
aa(lp57
F521.0
aF357.0
aa(lp58
F520.5
aF358.0
aa(lp59
F520.0
aF359.0
aa(lp60
F519.0
aF360.0
aa(lp61
F518.0
aF361.0
aa(lp62
F517.5
aF362.0
aa(lp63
F517.0
aF363.0
aa(lp64
F516.0
aF364.0
aa(lp65
F515.0
aF365.0
aa(lp66
F514.0
aF366.0
aa(lp67
F514.0
aF367.0
aa(lp68
F513.0
aF367.5
aa(lp69
F512.0
aF368.0
aa(lp70
F511.0
aF369.0
aa(lp71
F510.0
aF370.0
aa(lp72
F510.0
aF371.0
aa(lp73
F510.0
aF372.0
aa(lp74
F509.0
aF373.0
aa(lp75
F509.0
aF374.0
aa(lp76
F508.5
aF375.0
aa(lp77
F508.0
aF376.0
aa(lp78
F507.5
aF377.0
aa(lp79
F507.0
aF378.0
aa(lp80
F506.6666666666667
aF379.0
aa(lp81
F506.3333333333333
aF380.0
aa(lp82
F506.0
aF381.0
aa(lp83
F505.0
aF382.0
aa(lp84
F504.5
aF383.0
aa(lp85
F504.0
aF384.0
aa(lp86
F503.0
aF385.0
aa(lp87
F503.0
aF386.0
aa(lp88
F503.0
aF387.0
aa(lp89
F502.6666666666667
aF388.0
aa(lp90
F502.3333333333333
aF389.0
aa(lp91
F502.0
aF390.0
aa(lp92
F501.0
aF391.0
aa(lp93
F500.0
aF392.0
aa(lp94
F500.0
aF393.0
aa(lp95
F500.0
aF394.0
aa(lp96
F499.0
aF395.0
aa(lp97
F499.0
aF396.0
aa(lp98
F499.0
aF397.0
aa(lp99
F498.5
aF398.0
aa(lp100
F498.0
aF399.0
aa(lp101
F498.0
aF400.0
aasS'end'
p102
I2
sS'weight'
p103
F0.5
sa(dp104
g25
I4
sg26
(lp105
(lp106
F540.0
aF330.0
aa(lp107
F541.0
aF331.0
aa(lp108
F542.0
aF331.0
aa(lp109
F543.0
aF332.0
aa(lp110
F544.0
aF333.0
aa(lp111
F545.0
aF333.5
aa(lp112
F546.0
aF334.0
aa(lp113
F546.5
aF335.0
aa(lp114
F547.0
aF336.0
aa(lp115
F547.5
aF337.0
aa(lp116
F548.0
aF338.0
aa(lp117
F549.0
aF339.0
aa(lp118
F550.0
aF340.0
aa(lp119
F551.0
aF341.0
aa(lp120
F552.0
aF342.0
aa(lp121
F552.0
aF343.0
aa(lp122
F552.3333333333334
aF344.0
aa(lp123
F552.6666666666666
aF345.0
aa(lp124
F553.0
aF346.0
aa(lp125
F553.5
aF347.0
aa(lp126
F554.0
aF348.0
aa(lp127
F555.0
aF349.0
aa(lp128
F555.5
aF350.0
aa(lp129
F556.0
aF351.0
aa(lp130
F556.0
aF352.0
aa(lp131
F556.0
aF353.0
aa(lp132
F556.0
aF354.0
aa(lp133
F556.3333333333334
aF355.0
aa(lp134
F556.6666666666666
aF356.0
aa(lp135
F557.0
aF357.0
aa(lp136
F557.5
aF358.0
aa(lp137
F558.0
aF359.0
aa(lp138
F559.0
aF360.0
aa(lp139
F559.3333333333334
aF361.0
aa(lp140
F559.6666666666666
aF362.0
aa(lp141
F560.0
aF363.0
aa(lp142
F560.0
aF364.0
aa(lp143
F561.0
aF365.0
aa(lp144
F562.0
aF365.5
aa(lp145
F563.0
aF366.0
aa(lp146
F563.0
aF367.0
aa(lp147
F563.0
aF368.0
aa(lp148
F564.0
aF369.0
aa(lp149
F565.0
aF370.0
aa(lp150
F565.3333333333334
aF371.0
aa(lp151
F565.6666666666666
aF372.0
aa(lp152
F566.0
aF373.0
aa(lp153
F566.6666666666666
aF373.6666666666667
aa(lp154
F567.3333333333334
aF374.3333333333333
aa(lp155
F568.0
aF375.0
aa(lp156
F569.0
aF376.0
aa(lp157
F570.0
aF377.0
aa(lp158
F571.0
aF378.0
aa(lp159
F572.0
aF379.0
aa(lp160
F572.5
aF379.75
aa(lp161
F573.0
aF380.5
aa(lp162
F573.5
aF381.25
aa(lp163
F574.0
aF382.0
aa(lp164
F575.0
aF383.0
aa(lp165
F576.0
aF384.0
aa(lp166
F577.0
aF385.0
aa(lp167
F578.0
aF386.0
aa(lp168
F579.0
aF386.5
aa(lp169
F580.0
aF387.0
aa(lp170
F581.0
aF388.0
aa(lp171
F581.5
aF389.0
aa(lp172
F582.0
aF390.0
aa(lp173
F582.0
aF391.0
aa(lp174
F583.0
aF392.0
aa(lp175
F584.0
aF393.0
aa(lp176
F585.0
aF394.0
aa(lp177
F585.0
aF395.0
aasg102
I3
sg103
F0.5
sasg5
I4
sg6
I0
sg7
S'irsensor'
p178
sg9
S'sensor'
p179
sg11
g12
(I513
I245
I60
I96
tp180
Rp181
sba.