(lp0
ccopy_reg
_reconstructor
p1
(cneuron_module
pickledNeuron
p2
c__builtin__
object
p3
Ntp4
Rp5
(dp6
S'axons'
p7
(lp8
(dp9
S'start'
p10
I8
sS'points'
p11
(lp12
(lp13
F557.0
aF444.0
aa(lp14
F557.0
aF445.0
aa(lp15
F557.0
aF446.0
aa(lp16
F557.5
aF447.0
aa(lp17
F558.0
aF448.0
aa(lp18
F558.5
aF448.75
aa(lp19
F559.0
aF449.5
aa(lp20
F559.5
aF450.25
aa(lp21
F560.0
aF451.0
aa(lp22
F560.0
aF452.0
aa(lp23
F561.0
aF453.0
aa(lp24
F562.0
aF454.0
aa(lp25
F562.5
aF454.8333333333333
aa(lp26
F563.0
aF455.6666666666667
aa(lp27
F563.5
aF456.5
aa(lp28
F564.0
aF457.3333333333333
aa(lp29
F564.5
aF458.1666666666667
aa(lp30
F565.0
aF459.0
aa(lp31
F566.0
aF460.0
aa(lp32
F567.0
aF461.0
aa(lp33
F567.75
aF461.75
aa(lp34
F568.5
aF462.5
aa(lp35
F569.25
aF463.25
aa(lp36
F570.0
aF464.0
aa(lp37
F570.6666666666666
aF464.6666666666667
aa(lp38
F571.3333333333334
aF465.3333333333333
aa(lp39
F572.0
aF466.0
aa(lp40
F572.6666666666666
aF466.6666666666667
aa(lp41
F573.3333333333334
aF467.3333333333333
aa(lp42
F574.0
aF468.0
aa(lp43
F574.6666666666666
aF468.6666666666667
aa(lp44
F575.3333333333334
aF469.3333333333333
aa(lp45
F576.0
aF470.0
aa(lp46
F577.0
aF470.5
aa(lp47
F578.0
aF471.0
aa(lp48
F579.0
aF471.5
aa(lp49
F580.0
aF472.0
aa(lp50
F581.0
aF472.5
aa(lp51
F582.0
aF473.0
aa(lp52
F583.0
aF473.3333333333333
aa(lp53
F584.0
aF473.6666666666667
aa(lp54
F585.0
aF474.0
aa(lp55
F585.8
aF474.6
aa(lp56
F586.6
aF475.2
aa(lp57
F587.4
aF475.8
aa(lp58
F588.2
aF476.4
aa(lp59
F589.0
aF477.0
aa(lp60
F589.75
aF477.5
aa(lp61
F590.5
aF478.0
aa(lp62
F591.25
aF478.5
aa(lp63
F592.0
aF479.0
aa(lp64
F592.8333333333334
aF479.5
aa(lp65
F593.6666666666666
aF480.0
aa(lp66
F594.5
aF480.5
aa(lp67
F595.3333333333334
aF481.0
aa(lp68
F596.1666666666666
aF481.5
aa(lp69
F597.0
aF482.0
aa(lp70
F598.0
aF482.5
aa(lp71
F599.0
aF483.0
aa(lp72
F600.0
aF483.0
aa(lp73
F600.75
aF483.75
aa(lp74
F601.5
aF484.5
aa(lp75
F602.25
aF485.25
aa(lp76
F603.0
aF486.0
aa(lp77
F604.0
aF486.3333333333333
aa(lp78
F605.0
aF486.6666666666667
aa(lp79
F606.0
aF487.0
aa(lp80
F607.0
aF487.5
aa(lp81
F608.0
aF488.0
aa(lp82
F609.0
aF488.5
aa(lp83
F610.0
aF489.0
aa(lp84
F611.0
aF489.0
aa(lp85
F612.0
aF489.0
aa(lp86
F613.0
aF489.3333333333333
aa(lp87
F614.0
aF489.6666666666667
aa(lp88
F615.0
aF490.0
aa(lp89
F616.0
aF490.0
aa(lp90
F617.0
aF490.0
aa(lp91
F618.0
aF490.0
aa(lp92
F619.0
aF490.0
aa(lp93
F620.0
aF490.0
aa(lp94
F621.0
aF490.0
aa(lp95
F622.0
aF490.0
aa(lp96
F623.0
aF490.0
aa(lp97
F624.0
aF490.0
aa(lp98
F625.0
aF490.0
aa(lp99
F626.0
aF490.0
aa(lp100
F627.0
aF490.0
aa(lp101
F628.0
aF490.0
aa(lp102
F629.0
aF490.0
aa(lp103
F630.0
aF490.0
aa(lp104
F631.0
aF490.0
aa(lp105
F632.0
aF490.0
aa(lp106
F633.0
aF490.0
aa(lp107
F634.0
aF490.0
aa(lp108
F635.0
aF489.6666666666667
aa(lp109
F636.0
aF489.3333333333333
aa(lp110
F637.0
aF489.0
aa(lp111
F638.0
aF488.6666666666667
aa(lp112
F639.0
aF488.3333333333333
aa(lp113
F640.0
aF488.0
aa(lp114
F641.0
aF487.5
aa(lp115
F642.0
aF487.0
aa(lp116
F643.0
aF486.5
aa(lp117
F644.0
aF486.0
aa(lp118
F644.8
aF485.4
aa(lp119
F645.6
aF484.8
aa(lp120
F646.4
aF484.2
aa(lp121
F647.2
aF483.6
aa(lp122
F648.0
aF483.0
aa(lp123
F649.0
aF482.5
aa(lp124
F650.0
aF482.0
aa(lp125
F651.0
aF481.5
aa(lp126
F652.0
aF481.0
aa(lp127
F652.6666666666666
aF480.3333333333333
aa(lp128
F653.3333333333334
aF479.6666666666667
aa(lp129
F654.0
aF479.0
aa(lp130
F654.8333333333334
aF478.5
aa(lp131
F655.6666666666666
aF478.0
aa(lp132
F656.5
aF477.5
aa(lp133
F657.3333333333334
aF477.0
aa(lp134
F658.1666666666666
aF476.5
aa(lp135
F659.0
aF476.0
aa(lp136
F659.6
aF475.2
aa(lp137
F660.2
aF474.4
aa(lp138
F660.8
aF473.6
aa(lp139
F661.4
aF472.8
aa(lp140
F662.0
aF472.0
aa(lp141
F662.5
aF471.1666666666667
aa(lp142
F663.0
aF470.3333333333333
aa(lp143
F663.5
aF469.5
aa(lp144
F664.0
aF468.6666666666667
aa(lp145
F664.5
aF467.8333333333333
aa(lp146
F665.0
aF467.0
aa(lp147
F665.75
aF466.25
aa(lp148
F666.5
aF465.5
aa(lp149
F667.25
aF464.75
aa(lp150
F668.0
aF464.0
aa(lp151
F668.5714285714286
aF463.14285714285717
aa(lp152
F669.1428571428571
aF462.2857142857143
aa(lp153
F669.7142857142857
aF461.42857142857144
aa(lp154
F670.2857142857143
aF460.57142857142856
aa(lp155
F670.8571428571429
aF459.7142857142857
aa(lp156
F671.4285714285714
aF458.85714285714283
aa(lp157
F672.0
aF458.0
aa(lp158
F672.8
aF457.4
aa(lp159
F673.6
aF456.8
aa(lp160
F674.4
aF456.2
aa(lp161
F675.2
aF455.6
aa(lp162
F676.0
aF455.0
aa(lp163
F676.5
aF454.25
aa(lp164
F677.0
aF453.5
aa(lp165
F677.5
aF452.75
aa(lp166
F678.0
aF452.0
aa(lp167
F678.3333333333334
aF451.0
aa(lp168
F678.6666666666666
aF450.0
aa(lp169
F679.0
aF449.0
aa(lp170
F679.6
aF448.2
aa(lp171
F680.2
aF447.4
aa(lp172
F680.8
aF446.6
aa(lp173
F681.4
aF445.8
aa(lp174
F682.0
aF445.0
aa(lp175
F682.5
aF444.0
aa(lp176
F683.0
aF443.0
aa(lp177
F683.5
aF442.0
aa(lp178
F684.0
aF441.0
aa(lp179
F684.5
aF440.0
aa(lp180
F685.0
aF439.0
aa(lp181
F685.75
aF438.5
aa(lp182
F686.5
aF438.0
aa(lp183
F687.25
aF437.5
aa(lp184
F688.0
aF437.0
aa(lp185
F688.5
aF436.1666666666667
aa(lp186
F689.0
aF435.3333333333333
aa(lp187
F689.5
aF434.5
aa(lp188
F690.0
aF433.6666666666667
aa(lp189
F690.5
aF432.8333333333333
aa(lp190
F691.0
aF432.0
aa(lp191
F691.5
aF431.1666666666667
aa(lp192
F692.0
aF430.3333333333333
aa(lp193
F692.5
aF429.5
aa(lp194
F693.0
aF428.6666666666667
aa(lp195
F693.5
aF427.8333333333333
aa(lp196
F694.0
aF427.0
aa(lp197
F694.0
aF426.0
aa(lp198
F694.2
aF425.0
aa(lp199
F694.4
aF424.0
aa(lp200
F694.6
aF423.0
aa(lp201
F694.8
aF422.0
aa(lp202
F695.0
aF421.0
aa(lp203
F695.3333333333334
aF420.0
aa(lp204
F695.6666666666666
aF419.0
aa(lp205
F696.0
aF418.0
aa(lp206
F697.0
aF417.0
aa(lp207
F697.3333333333334
aF416.0
aa(lp208
F697.6666666666666
aF415.0
aa(lp209
F698.0
aF414.0
aa(lp210
F698.0
aF413.0
aa(lp211
F698.0
aF412.0
aa(lp212
F698.0
aF411.0
aa(lp213
F698.0
aF410.0
aa(lp214
F698.0
aF409.0
aa(lp215
F698.0
aF408.0
aa(lp216
F698.0
aF407.0
aa(lp217
F698.0
aF406.0
aa(lp218
F698.0
aF405.0
aa(lp219
F698.0
aF404.0
aa(lp220
F698.0
aF403.0
aa(lp221
F698.0
aF402.0
aa(lp222
F698.0
aF401.0
aa(lp223
F698.0
aF400.0
aa(lp224
F698.0
aF399.0
aa(lp225
F698.0
aF398.0
aa(lp226
F698.0
aF397.0
aa(lp227
F698.0
aF396.0
aa(lp228
F698.0
aF395.0
aa(lp229
F698.0
aF394.0
aa(lp230
F698.0
aF393.0
aasS'end'
p231
I10
sS'weight'
p232
F0.3
sa(dp233
g10
I8
sg11
(lp234
(lp235
F558.0
aF445.0
aa(lp236
F557.3333333333334
aF445.6666666666667
aa(lp237
F556.6666666666666
aF446.3333333333333
aa(lp238
F556.0
aF447.0
aa(lp239
F555.5
aF447.75
aa(lp240
F555.0
aF448.5
aa(lp241
F554.5
aF449.25
aa(lp242
F554.0
aF450.0
aa(lp243
F553.5
aF451.0
aa(lp244
F553.0
aF452.0
aa(lp245
F552.4
aF452.8
aa(lp246
F551.8
aF453.6
aa(lp247
F551.2
aF454.4
aa(lp248
F550.6
aF455.2
aa(lp249
F550.0
aF456.0
aa(lp250
F549.5
aF457.0
aa(lp251
F549.0
aF458.0
aa(lp252
F548.5
aF459.0
aa(lp253
F548.0
aF460.0
aa(lp254
F547.0
aF460.5
aa(lp255
F546.0
aF461.0
aa(lp256
F545.0
aF461.5
aa(lp257
F544.0
aF462.0
aa(lp258
F543.2
aF462.6
aa(lp259
F542.4
aF463.2
aa(lp260
F541.6
aF463.8
aa(lp261
F540.8
aF464.4
aa(lp262
F540.0
aF465.0
aa(lp263
F539.6666666666666
aF466.0
aa(lp264
F539.3333333333334
aF467.0
aa(lp265
F539.0
aF468.0
aa(lp266
F538.25
aF468.75
aa(lp267
F537.5
aF469.5
aa(lp268
F536.75
aF470.25
aa(lp269
F536.0
aF471.0
aa(lp270
F535.5
aF471.75
aa(lp271
F535.0
aF472.5
aa(lp272
F534.5
aF473.25
aa(lp273
F534.0
aF474.0
aa(lp274
F533.0
aF475.0
aa(lp275
F532.5
aF476.0
aa(lp276
F532.0
aF477.0
aa(lp277
F531.5
aF478.0
aa(lp278
F531.0
aF479.0
aa(lp279
F530.5
aF479.75
aa(lp280
F530.0
aF480.5
aa(lp281
F529.5
aF481.25
aa(lp282
F529.0
aF482.0
aa(lp283
F528.3333333333334
aF482.6666666666667
aa(lp284
F527.6666666666666
aF483.3333333333333
aa(lp285
F527.0
aF484.0
aa(lp286
F526.75
aF485.0
aa(lp287
F526.5
aF486.0
aa(lp288
F526.25
aF487.0
aa(lp289
F526.0
aF488.0
aa(lp290
F525.2
aF488.6
aa(lp291
F524.4
aF489.2
aa(lp292
F523.6
aF489.8
aa(lp293
F522.8
aF490.4
aa(lp294
F522.0
aF491.0
aa(lp295
F521.0
aF492.0
aa(lp296
F520.0
aF493.0
aa(lp297
F519.5
aF494.0
aa(lp298
F519.0
aF495.0
aa(lp299
F518.3333333333334
aF495.6666666666667
aa(lp300
F517.6666666666666
aF496.3333333333333
aa(lp301
F517.0
aF497.0
aa(lp302
F516.0
aF497.5
aa(lp303
F515.0
aF498.0
aa(lp304
F514.0
aF498.5
aa(lp305
F513.0
aF499.0
aa(lp306
F512.0
aF500.0
aa(lp307
F511.0
aF500.5
aa(lp308
F510.0
aF501.0
aa(lp309
F509.0
aF501.0
aa(lp310
F508.0
aF501.0
aa(lp311
F507.0
aF501.0
aa(lp312
F506.0
aF501.25
aa(lp313
F505.0
aF501.5
aa(lp314
F504.0
aF501.75
aa(lp315
F503.0
aF502.0
aa(lp316
F502.0
aF502.0
aa(lp317
F501.0
aF502.0
aa(lp318
F500.0
aF502.0
aa(lp319
F499.0
aF502.0
aa(lp320
F498.0
aF502.0
aa(lp321
F497.0
aF502.0
aa(lp322
F496.0
aF502.0
aa(lp323
F495.0
aF502.0
aa(lp324
F494.0
aF502.0
aa(lp325
F493.0
aF502.0
aa(lp326
F492.0
aF502.0
aa(lp327
F491.0
aF502.0
aa(lp328
F490.0
aF502.0
aa(lp329
F489.0
aF502.0
aa(lp330
F488.0
aF501.6666666666667
aa(lp331
F487.0
aF501.3333333333333
aa(lp332
F486.0
aF501.0
aa(lp333
F485.3333333333333
aF500.3333333333333
aa(lp334
F484.6666666666667
aF499.6666666666667
aa(lp335
F484.0
aF499.0
aa(lp336
F483.4
aF498.2
aa(lp337
F482.8
aF497.4
aa(lp338
F482.2
aF496.6
aa(lp339
F481.6
aF495.8
aa(lp340
F481.0
aF495.0
aa(lp341
F480.3333333333333
aF494.3333333333333
aa(lp342
F479.6666666666667
aF493.6666666666667
aa(lp343
F479.0
aF493.0
aa(lp344
F478.25
aF492.5
aa(lp345
F477.5
aF492.0
aa(lp346
F476.75
aF491.5
aa(lp347
F476.0
aF491.0
aa(lp348
F475.25
aF490.5
aa(lp349
F474.5
aF490.0
aa(lp350
F473.75
aF489.5
aa(lp351
F473.0
aF489.0
aa(lp352
F472.4
aF488.2
aa(lp353
F471.8
aF487.4
aa(lp354
F471.2
aF486.6
aa(lp355
F470.6
aF485.8
aa(lp356
F470.0
aF485.0
aa(lp357
F469.5
aF484.25
aa(lp358
F469.0
aF483.5
aa(lp359
F468.5
aF482.75
aa(lp360
F468.0
aF482.0
aa(lp361
F467.0
aF481.0
aa(lp362
F466.5
aF480.0
aa(lp363
F466.0
aF479.0
aa(lp364
F465.5
aF478.0
aa(lp365
F465.0
aF477.0
aa(lp366
F464.5
aF476.0
aa(lp367
F464.0
aF475.0
aa(lp368
F463.5
aF474.0
aa(lp369
F463.0
aF473.0
aa(lp370
F462.5
aF472.25
aa(lp371
F462.0
aF471.5
aa(lp372
F461.5
aF470.75
aa(lp373
F461.0
aF470.0
aa(lp374
F461.0
aF469.0
aa(lp375
F461.0
aF468.0
aa(lp376
F461.0
aF467.0
aa(lp377
F460.5
aF466.25
aa(lp378
F460.0
aF465.5
aa(lp379
F459.5
aF464.75
aa(lp380
F459.0
aF464.0
aa(lp381
F459.0
aF463.0
aa(lp382
F459.0
aF462.0
aa(lp383
F458.75
aF461.0
aa(lp384
F458.5
aF460.0
aa(lp385
F458.25
aF459.0
aa(lp386
F458.0
aF458.0
aa(lp387
F458.0
aF457.0
aa(lp388
F458.0
aF456.0
aa(lp389
F458.0
aF455.0
aa(lp390
F458.0
aF454.0
aa(lp391
F457.6
aF453.0
aa(lp392
F457.2
aF452.0
aa(lp393
F456.8
aF451.0
aa(lp394
F456.4
aF450.0
aa(lp395
F456.0
aF449.0
aa(lp396
F455.5
aF448.0
aa(lp397
F455.0
aF447.0
aa(lp398
F454.5
aF446.0
aa(lp399
F454.0
aF445.0
aa(lp400
F454.0
aF444.0
aa(lp401
F454.0
aF443.0
aa(lp402
F454.0
aF442.0
aa(lp403
F454.0
aF441.0
aa(lp404
F454.0
aF440.0
aa(lp405
F454.0
aF439.0
aa(lp406
F454.0
aF438.0
aa(lp407
F453.75
aF437.0
aa(lp408
F453.5
aF436.0
aa(lp409
F453.25
aF435.0
aa(lp410
F453.0
aF434.0
aa(lp411
F452.8
aF433.0
aa(lp412
F452.6
aF432.0
aa(lp413
F452.4
aF431.0
aa(lp414
F452.2
aF430.0
aa(lp415
F452.0
aF429.0
aa(lp416
F452.0
aF428.0
aa(lp417
F452.0
aF427.0
aa(lp418
F452.0
aF426.0
aa(lp419
F452.0
aF425.0
aa(lp420
F452.0
aF424.0
aa(lp421
F452.0
aF423.0
aa(lp422
F452.0
aF422.0
aa(lp423
F452.0
aF421.0
aa(lp424
F452.0
aF420.0
aa(lp425
F452.0
aF419.0
aa(lp426
F452.0
aF418.0
aa(lp427
F452.0
aF417.0
aa(lp428
F452.0
aF416.0
aa(lp429
F452.0
aF415.0
aa(lp430
F452.0
aF414.0
aa(lp431
F452.0
aF413.0
aa(lp432
F452.0
aF412.0
aa(lp433
F452.0
aF411.0
aa(lp434
F452.0
aF410.0
aa(lp435
F452.0
aF409.0
aa(lp436
F452.0
aF408.0
aa(lp437
F452.0
aF407.0
aa(lp438
F452.0
aF406.0
aa(lp439
F452.0
aF405.0
aa(lp440
F452.0
aF404.0
aa(lp441
F452.0
aF403.0
aa(lp442
F452.0
aF402.0
aa(lp443
F452.0
aF401.0
aa(lp444
F452.0
aF400.0
aa(lp445
F452.0
aF399.0
aa(lp446
F452.0
aF398.0
aa(lp447
F452.0
aF397.0
aa(lp448
F452.0
aF396.0
aa(lp449
F452.0
aF395.0
aa(lp450
F452.0
aF394.0
aasg231
I11
sg232
F0.3
sasS'nid'
p451
I8
sS'rf'
p452
cnumpy.core.multiarray
_reconstruct
p453
(cnumpy
ndarray
p454
(I0
tp455
S'b'
p456
tp457
Rp458
(I1
(I40
I2
tp459
cnumpy
dtype
p460
(S'i4'
p461
I0
I1
tp462
Rp463
(I3
S'<'
p464
NNNI-1
I-1
I0
tp465
bI00
S'\x0c\x00\x00\x00\t\x00\x00\x00\r\x00\x00\x00\t\x00\x00\x00\x0e\x00\x00\x00\t\x00\x00\x00\x0f\x00\x00\x00\t\x00\x00\x00\x10\x00\x00\x00\t\x00\x00\x00\x11\x00\x00\x00\t\x00\x00\x00\x12\x00\x00\x00\t\x00\x00\x00\x13\x00\x00\x00\t\x00\x00\x00\x13\x00\x00\x00\n\x00\x00\x00\x13\x00\x00\x00\x0b\x00\x00\x00\x13\x00\x00\x00\x0c\x00\x00\x00\x13\x00\x00\x00\r\x00\x00\x00\x12\x00\x00\x00\r\x00\x00\x00\x12\x00\x00\x00\x0c\x00\x00\x00\x12\x00\x00\x00\x0b\x00\x00\x00\x12\x00\x00\x00\n\x00\x00\x00\x11\x00\x00\x00\n\x00\x00\x00\x11\x00\x00\x00\x0b\x00\x00\x00\x11\x00\x00\x00\x0c\x00\x00\x00\x11\x00\x00\x00\r\x00\x00\x00\x10\x00\x00\x00\r\x00\x00\x00\x10\x00\x00\x00\x0c\x00\x00\x00\x10\x00\x00\x00\x0b\x00\x00\x00\x10\x00\x00\x00\n\x00\x00\x00\x0f\x00\x00\x00\n\x00\x00\x00\x0f\x00\x00\x00\x0b\x00\x00\x00\x0f\x00\x00\x00\x0c\x00\x00\x00\x0f\x00\x00\x00\r\x00\x00\x00\x0e\x00\x00\x00\r\x00\x00\x00\x0e\x00\x00\x00\x0c\x00\x00\x00\x0e\x00\x00\x00\x0b\x00\x00\x00\x0e\x00\x00\x00\n\x00\x00\x00\r\x00\x00\x00\n\x00\x00\x00\r\x00\x00\x00\x0b\x00\x00\x00\r\x00\x00\x00\x0c\x00\x00\x00\r\x00\x00\x00\r\x00\x00\x00\x0c\x00\x00\x00\r\x00\x00\x00\x0c\x00\x00\x00\x0c\x00\x00\x00\x0c\x00\x00\x00\x0b\x00\x00\x00\x0c\x00\x00\x00\n\x00\x00\x00'
p466
tp467
bsS'tp'
p468
S'visual'
p469
sS'super_type'
p470
S'sensor'
p471
sS'freq'
p472
NsS'rect'
p473
cpygame
__rect_constructor
p474
(I534
I358
I60
I96
tp475
Rp476
sbag1
(g2
g3
Ntp477
Rp478
(dp479
g7
(lp480
(dp481
g10
I7
sg11
(lp482
(lp483
F559.0
aF274.0
aa(lp484
F559.0
aF275.0
aa(lp485
F558.0
aF275.0
aa(lp486
F557.0
aF276.0
aa(lp487
F556.0
aF277.0
aa(lp488
F555.25
aF277.75
aa(lp489
F554.5
aF278.5
aa(lp490
F553.75
aF279.25
aa(lp491
F553.0
aF280.0
aa(lp492
F552.3333333333334
aF280.6666666666667
aa(lp493
F551.6666666666666
aF281.3333333333333
aa(lp494
F551.0
aF282.0
aa(lp495
F550.25
aF282.75
aa(lp496
F549.5
aF283.5
aa(lp497
F548.75
aF284.25
aa(lp498
F548.0
aF285.0
aa(lp499
F547.2
aF285.6
aa(lp500
F546.4
aF286.2
aa(lp501
F545.6
aF286.8
aa(lp502
F544.8
aF287.4
aa(lp503
F544.0
aF288.0
aa(lp504
F543.4
aF288.8
aa(lp505
F542.8
aF289.6
aa(lp506
F542.2
aF290.4
aa(lp507
F541.6
aF291.2
aa(lp508
F541.0
aF292.0
aa(lp509
F540.0
aF293.0
aa(lp510
F539.0
aF293.5
aa(lp511
F538.0
aF294.0
aa(lp512
F537.0
aF294.5
aa(lp513
F536.0
aF295.0
aa(lp514
F535.2
aF295.6
aa(lp515
F534.4
aF296.2
aa(lp516
F533.6
aF296.8
aa(lp517
F532.8
aF297.4
aa(lp518
F532.0
aF298.0
aa(lp519
F531.3333333333334
aF298.6666666666667
aa(lp520
F530.6666666666666
aF299.3333333333333
aa(lp521
F530.0
aF300.0
aa(lp522
F529.3333333333334
aF300.6666666666667
aa(lp523
F528.6666666666666
aF301.3333333333333
aa(lp524
F528.0
aF302.0
aa(lp525
F527.5
aF302.8333333333333
aa(lp526
F527.0
aF303.6666666666667
aa(lp527
F526.5
aF304.5
aa(lp528
F526.0
aF305.3333333333333
aa(lp529
F525.5
aF306.1666666666667
aa(lp530
F525.0
aF307.0
aa(lp531
F524.1666666666666
aF307.5
aa(lp532
F523.3333333333334
aF308.0
aa(lp533
F522.5
aF308.5
aa(lp534
F521.6666666666666
aF309.0
aa(lp535
F520.8333333333334
aF309.5
aa(lp536
F520.0
aF310.0
aa(lp537
F519.5
aF310.75
aa(lp538
F519.0
aF311.5
aa(lp539
F518.5
aF312.25
aa(lp540
F518.0
aF313.0
aa(lp541
F517.4
aF313.8
aa(lp542
F516.8
aF314.6
aa(lp543
F516.2
aF315.4
aa(lp544
F515.6
aF316.2
aa(lp545
F515.0
aF317.0
aa(lp546
F514.4
aF317.8
aa(lp547
F513.8
aF318.6
aa(lp548
F513.2
aF319.4
aa(lp549
F512.6
aF320.2
aa(lp550
F512.0
aF321.0
aa(lp551
F511.0
aF321.5
aa(lp552
F510.0
aF322.0
aa(lp553
F509.5
aF322.75
aa(lp554
F509.0
aF323.5
aa(lp555
F508.5
aF324.25
aa(lp556
F508.0
aF325.0
aa(lp557
F507.25
aF325.75
aa(lp558
F506.5
aF326.5
aa(lp559
F505.75
aF327.25
aa(lp560
F505.0
aF328.0
aa(lp561
F504.0
aF328.5
aa(lp562
F503.0
aF329.0
aa(lp563
F502.5
aF330.0
aa(lp564
F502.0
aF331.0
aa(lp565
F501.5
aF332.0
aa(lp566
F501.0
aF333.0
aa(lp567
F500.3333333333333
aF333.6666666666667
aa(lp568
F499.6666666666667
aF334.3333333333333
aa(lp569
F499.0
aF335.0
aa(lp570
F498.5
aF335.75
aa(lp571
F498.0
aF336.5
aa(lp572
F497.5
aF337.25
aa(lp573
F497.0
aF338.0
aa(lp574
F496.3333333333333
aF338.6666666666667
aa(lp575
F495.6666666666667
aF339.3333333333333
aa(lp576
F495.0
aF340.0
aa(lp577
F494.5
aF341.0
aa(lp578
F494.0
aF342.0
aa(lp579
F493.5
aF343.0
aa(lp580
F493.0
aF344.0
aa(lp581
F492.25
aF344.75
aa(lp582
F491.5
aF345.5
aa(lp583
F490.75
aF346.25
aa(lp584
F490.0
aF347.0
aa(lp585
F489.3333333333333
aF347.6666666666667
aa(lp586
F488.6666666666667
aF348.3333333333333
aa(lp587
F488.0
aF349.0
aa(lp588
F487.25
aF349.75
aa(lp589
F486.5
aF350.5
aa(lp590
F485.75
aF351.25
aa(lp591
F485.0
aF352.0
aa(lp592
F484.3333333333333
aF352.6666666666667
aa(lp593
F483.6666666666667
aF353.3333333333333
aa(lp594
F483.0
aF354.0
aa(lp595
F482.3333333333333
aF354.6666666666667
aa(lp596
F481.6666666666667
aF355.3333333333333
aa(lp597
F481.0
aF356.0
aa(lp598
F480.5
aF357.0
aa(lp599
F480.0
aF358.0
aa(lp600
F479.5
aF359.0
aa(lp601
F479.0
aF360.0
aa(lp602
F478.3333333333333
aF360.6666666666667
aa(lp603
F477.6666666666667
aF361.3333333333333
aa(lp604
F477.0
aF362.0
aa(lp605
F476.0
aF363.0
aa(lp606
F475.3333333333333
aF363.6666666666667
aa(lp607
F474.6666666666667
aF364.3333333333333
aa(lp608
F474.0
aF365.0
aa(lp609
F473.0
aF366.0
aa(lp610
F473.0
aF367.0
aa(lp611
F472.5
aF367.75
aa(lp612
F472.0
aF368.5
aa(lp613
F471.5
aF369.25
aa(lp614
F471.0
aF370.0
aa(lp615
F470.0
aF370.5
aa(lp616
F469.0
aF371.0
aa(lp617
F468.0
aF372.0
aa(lp618
F467.0
aF373.0
aa(lp619
F466.0
aF374.0
aa(lp620
F465.0
aF375.0
aa(lp621
F464.0
aF376.0
aa(lp622
F463.0
aF376.0
aa(lp623
F462.5
aF377.0
aa(lp624
F462.0
aF378.0
aasg231
I11
sg232
F0.3
sa(dp625
g10
I7
sg11
(lp626
(lp627
F567.0
aF274.0
aa(lp628
F567.0
aF275.0
aa(lp629
F568.0
aF276.0
aa(lp630
F568.7142857142857
aF276.7142857142857
aa(lp631
F569.4285714285714
aF277.42857142857144
aa(lp632
F570.1428571428571
aF278.14285714285717
aa(lp633
F570.8571428571429
aF278.85714285714283
aa(lp634
F571.5714285714286
aF279.57142857142856
aa(lp635
F572.2857142857143
aF280.2857142857143
aa(lp636
F573.0
aF281.0
aa(lp637
F573.5
aF281.75
aa(lp638
F574.0
aF282.5
aa(lp639
F574.5
aF283.25
aa(lp640
F575.0
aF284.0
aa(lp641
F575.6666666666666
aF284.6666666666667
aa(lp642
F576.3333333333334
aF285.3333333333333
aa(lp643
F577.0
aF286.0
aa(lp644
F577.6666666666666
aF286.6666666666667
aa(lp645
F578.3333333333334
aF287.3333333333333
aa(lp646
F579.0
aF288.0
aa(lp647
F579.8
aF288.6
aa(lp648
F580.6
aF289.2
aa(lp649
F581.4
aF289.8
aa(lp650
F582.2
aF290.4
aa(lp651
F583.0
aF291.0
aa(lp652
F583.75
aF291.75
aa(lp653
F584.5
aF292.5
aa(lp654
F585.25
aF293.25
aa(lp655
F586.0
aF294.0
aa(lp656
F587.0
aF294.3333333333333
aa(lp657
F588.0
aF294.6666666666667
aa(lp658
F589.0
aF295.0
aa(lp659
F589.5
aF295.75
aa(lp660
F590.0
aF296.5
aa(lp661
F590.5
aF297.25
aa(lp662
F591.0
aF298.0
aa(lp663
F591.75
aF298.75
aa(lp664
F592.5
aF299.5
aa(lp665
F593.25
aF300.25
aa(lp666
F594.0
aF301.0
aa(lp667
F594.7142857142857
aF301.7142857142857
aa(lp668
F595.4285714285714
aF302.42857142857144
aa(lp669
F596.1428571428571
aF303.14285714285717
aa(lp670
F596.8571428571429
aF303.85714285714283
aa(lp671
F597.5714285714286
aF304.57142857142856
aa(lp672
F598.2857142857143
aF305.2857142857143
aa(lp673
F599.0
aF306.0
aa(lp674
F599.6
aF306.8
aa(lp675
F600.2
aF307.6
aa(lp676
F600.8
aF308.4
aa(lp677
F601.4
aF309.2
aa(lp678
F602.0
aF310.0
aa(lp679
F602.6666666666666
aF310.8333333333333
aa(lp680
F603.3333333333334
aF311.6666666666667
aa(lp681
F604.0
aF312.5
aa(lp682
F604.6666666666666
aF313.3333333333333
aa(lp683
F605.3333333333334
aF314.1666666666667
aa(lp684
F606.0
aF315.0
aa(lp685
F606.8
aF315.6
aa(lp686
F607.6
aF316.2
aa(lp687
F608.4
aF316.8
aa(lp688
F609.2
aF317.4
aa(lp689
F610.0
aF318.0
aa(lp690
F610.75
aF318.5
aa(lp691
F611.5
aF319.0
aa(lp692
F612.25
aF319.5
aa(lp693
F613.0
aF320.0
aa(lp694
F613.6666666666666
aF320.6666666666667
aa(lp695
F614.3333333333334
aF321.3333333333333
aa(lp696
F615.0
aF322.0
aa(lp697
F615.8
aF322.6
aa(lp698
F616.6
aF323.2
aa(lp699
F617.4
aF323.8
aa(lp700
F618.2
aF324.4
aa(lp701
F619.0
aF325.0
aa(lp702
F620.0
aF325.5
aa(lp703
F621.0
aF326.0
aa(lp704
F622.0
aF326.5
aa(lp705
F623.0
aF327.0
aa(lp706
F624.0
aF327.5
aa(lp707
F625.0
aF328.0
aa(lp708
F625.8571428571429
aF328.42857142857144
aa(lp709
F626.7142857142857
aF328.85714285714283
aa(lp710
F627.5714285714286
aF329.2857142857143
aa(lp711
F628.4285714285714
aF329.7142857142857
aa(lp712
F629.2857142857143
aF330.14285714285717
aa(lp713
F630.1428571428571
aF330.57142857142856
aa(lp714
F631.0
aF331.0
aa(lp715
F631.75
aF331.5
aa(lp716
F632.5
aF332.0
aa(lp717
F633.25
aF332.5
aa(lp718
F634.0
aF333.0
aa(lp719
F634.75
aF333.5
aa(lp720
F635.5
aF334.0
aa(lp721
F636.25
aF334.5
aa(lp722
F637.0
aF335.0
aa(lp723
F638.0
aF335.25
aa(lp724
F639.0
aF335.5
aa(lp725
F640.0
aF335.75
aa(lp726
F641.0
aF336.0
aa(lp727
F641.6666666666666
aF336.6666666666667
aa(lp728
F642.3333333333334
aF337.3333333333333
aa(lp729
F643.0
aF338.0
aa(lp730
F644.0
aF338.5
aa(lp731
F645.0
aF339.0
aa(lp732
F646.0
aF339.5
aa(lp733
F647.0
aF340.0
aa(lp734
F647.75
aF340.75
aa(lp735
F648.5
aF341.5
aa(lp736
F649.25
aF342.25
aa(lp737
F650.0
aF343.0
aa(lp738
F650.6666666666666
aF343.6666666666667
aa(lp739
F651.3333333333334
aF344.3333333333333
aa(lp740
F652.0
aF345.0
aa(lp741
F653.0
aF345.3333333333333
aa(lp742
F654.0
aF345.6666666666667
aa(lp743
F655.0
aF346.0
aa(lp744
F656.0
aF346.4
aa(lp745
F657.0
aF346.8
aa(lp746
F658.0
aF347.2
aa(lp747
F659.0
aF347.6
aa(lp748
F660.0
aF348.0
aa(lp749
F661.0
aF348.3333333333333
aa(lp750
F662.0
aF348.6666666666667
aa(lp751
F663.0
aF349.0
aa(lp752
F663.75
aF349.75
aa(lp753
F664.5
aF350.5
aa(lp754
F665.25
aF351.25
aa(lp755
F666.0
aF352.0
aa(lp756
F666.6666666666666
aF352.6666666666667
aa(lp757
F667.3333333333334
aF353.3333333333333
aa(lp758
F668.0
aF354.0
aa(lp759
F669.0
aF355.0
aa(lp760
F670.0
aF356.0
aa(lp761
F670.6666666666666
aF356.6666666666667
aa(lp762
F671.3333333333334
aF357.3333333333333
aa(lp763
F672.0
aF358.0
aa(lp764
F672.6666666666666
aF358.6666666666667
aa(lp765
F673.3333333333334
aF359.3333333333333
aa(lp766
F674.0
aF360.0
aa(lp767
F675.0
aF361.0
aa(lp768
F676.0
aF362.0
aa(lp769
F676.5
aF362.75
aa(lp770
F677.0
aF363.5
aa(lp771
F677.5
aF364.25
aa(lp772
F678.0
aF365.0
aa(lp773
F679.0
aF366.0
aa(lp774
F679.0
aF367.0
aa(lp775
F679.5
aF368.0
aa(lp776
F680.0
aF369.0
aa(lp777
F680.6666666666666
aF369.6666666666667
aa(lp778
F681.3333333333334
aF370.3333333333333
aasg231
I10
sg232
F0.3
sasg451
I7
sg452
g453
(g454
(I0
tp779
g456
tp780
Rp781
(I1
(I40
I2
tp782
g463
I00
S'\r\x00\x00\x00\x01\x00\x00\x00\x0e\x00\x00\x00\x01\x00\x00\x00\x12\x00\x00\x00\x01\x00\x00\x00\x11\x00\x00\x00\x01\x00\x00\x00\x10\x00\x00\x00\x01\x00\x00\x00\x0f\x00\x00\x00\x01\x00\x00\x00\x0c\x00\x00\x00\x01\x00\x00\x00\x13\x00\x00\x00\x01\x00\x00\x00\x13\x00\x00\x00\x02\x00\x00\x00\x13\x00\x00\x00\x03\x00\x00\x00\x13\x00\x00\x00\x04\x00\x00\x00\x13\x00\x00\x00\x05\x00\x00\x00\x12\x00\x00\x00\x05\x00\x00\x00\x12\x00\x00\x00\x04\x00\x00\x00\x12\x00\x00\x00\x03\x00\x00\x00\x12\x00\x00\x00\x02\x00\x00\x00\x11\x00\x00\x00\x02\x00\x00\x00\x11\x00\x00\x00\x03\x00\x00\x00\x11\x00\x00\x00\x04\x00\x00\x00\x11\x00\x00\x00\x05\x00\x00\x00\x10\x00\x00\x00\x05\x00\x00\x00\x10\x00\x00\x00\x04\x00\x00\x00\x10\x00\x00\x00\x03\x00\x00\x00\x10\x00\x00\x00\x02\x00\x00\x00\x0f\x00\x00\x00\x02\x00\x00\x00\x0f\x00\x00\x00\x03\x00\x00\x00\x0f\x00\x00\x00\x04\x00\x00\x00\x0f\x00\x00\x00\x05\x00\x00\x00\x0e\x00\x00\x00\x05\x00\x00\x00\x0e\x00\x00\x00\x04\x00\x00\x00\x0e\x00\x00\x00\x03\x00\x00\x00\x0e\x00\x00\x00\x02\x00\x00\x00\r\x00\x00\x00\x02\x00\x00\x00\r\x00\x00\x00\x03\x00\x00\x00\r\x00\x00\x00\x04\x00\x00\x00\r\x00\x00\x00\x05\x00\x00\x00\x0c\x00\x00\x00\x05\x00\x00\x00\x0c\x00\x00\x00\x04\x00\x00\x00\x0c\x00\x00\x00\x03\x00\x00\x00\x0c\x00\x00\x00\x02\x00\x00\x00'
p783
tp784
bsg468
g469
sg470
g471
sg472
Nsg473
g474
(I536
I189
I60
I96
tp785
Rp786
sbag1
(g2
g3
Ntp787
Rp788
(dp789
g7
(lp790
sg451
I13
sg452
I0
sg468
S'rightbackward'
p791
sg470
S'motor'
p792
sg472
Nsg473
g474
(I876
I350
I80
I51
tp793
Rp794
sbag1
(g2
g3
Ntp795
Rp796
(dp797
g7
(lp798
(dp799
g10
I6
sg11
(lp800
(lp801
F336.0
aF558.0
aa(lp802
F336.5
aF557.25
aa(lp803
F337.0
aF556.5
aa(lp804
F337.5
aF555.75
aa(lp805
F338.0
aF555.0
aa(lp806
F338.3333333333333
aF554.0
aa(lp807
F338.6666666666667
aF553.0
aa(lp808
F339.0
aF552.0
aa(lp809
F339.7142857142857
aF551.2857142857143
aa(lp810
F340.42857142857144
aF550.5714285714286
aa(lp811
F341.14285714285717
aF549.8571428571429
aa(lp812
F341.85714285714283
aF549.1428571428571
aa(lp813
F342.57142857142856
aF548.4285714285714
aa(lp814
F343.2857142857143
aF547.7142857142857
aa(lp815
F344.0
aF547.0
aa(lp816
F344.625
aF546.25
aa(lp817
F345.25
aF545.5
aa(lp818
F345.875
aF544.75
aa(lp819
F346.5
aF544.0
aa(lp820
F347.125
aF543.25
aa(lp821
F347.75
aF542.5
aa(lp822
F348.375
aF541.75
aa(lp823
F349.0
aF541.0
aa(lp824
F349.5833333333333
aF540.1666666666666
aa(lp825
F350.1666666666667
aF539.3333333333334
aa(lp826
F350.75
aF538.5
aa(lp827
F351.3333333333333
aF537.6666666666666
aa(lp828
F351.9166666666667
aF536.8333333333334
aa(lp829
F352.5
aF536.0
aa(lp830
F353.0833333333333
aF535.1666666666666
aa(lp831
F353.6666666666667
aF534.3333333333334
aa(lp832
F354.25
aF533.5
aa(lp833
F354.8333333333333
aF532.6666666666666
aa(lp834
F355.4166666666667
aF531.8333333333334
aa(lp835
F356.0
aF531.0
aa(lp836
F356.57142857142856
aF530.2142857142857
aa(lp837
F357.14285714285717
aF529.4285714285714
aa(lp838
F357.7142857142857
aF528.6428571428571
aa(lp839
F358.2857142857143
aF527.8571428571429
aa(lp840
F358.85714285714283
aF527.0714285714286
aa(lp841
F359.42857142857144
aF526.2857142857143
aa(lp842
F360.0
aF525.5
aa(lp843
F360.57142857142856
aF524.7142857142857
aa(lp844
F361.14285714285717
aF523.9285714285714
aa(lp845
F361.7142857142857
aF523.1428571428571
aa(lp846
F362.2857142857143
aF522.3571428571429
aa(lp847
F362.85714285714283
aF521.5714285714286
aa(lp848
F363.42857142857144
aF520.7857142857143
aa(lp849
F364.0
aF520.0
aa(lp850
F364.6
aF519.2
aa(lp851
F365.2
aF518.4
aa(lp852
F365.8
aF517.6
aa(lp853
F366.4
aF516.8
aa(lp854
F367.0
aF516.0
aa(lp855
F367.6
aF515.2
aa(lp856
F368.2
aF514.4
aa(lp857
F368.8
aF513.6
aa(lp858
F369.4
aF512.8
aa(lp859
F370.0
aF512.0
aa(lp860
F370.6
aF511.2
aa(lp861
F371.2
aF510.4
aa(lp862
F371.8
aF509.6
aa(lp863
F372.4
aF508.8
aa(lp864
F373.0
aF508.0
aa(lp865
F373.5833333333333
aF507.1666666666667
aa(lp866
F374.1666666666667
aF506.3333333333333
aa(lp867
F374.75
aF505.5
aa(lp868
F375.3333333333333
aF504.6666666666667
aa(lp869
F375.9166666666667
aF503.8333333333333
aa(lp870
F376.5
aF503.0
aa(lp871
F377.0833333333333
aF502.1666666666667
aa(lp872
F377.6666666666667
aF501.3333333333333
aa(lp873
F378.25
aF500.5
aa(lp874
F378.8333333333333
aF499.6666666666667
aa(lp875
F379.4166666666667
aF498.8333333333333
aa(lp876
F380.0
aF498.0
aa(lp877
F380.54545454545456
aF497.1818181818182
aa(lp878
F381.09090909090907
aF496.3636363636364
aa(lp879
F381.6363636363636
aF495.54545454545456
aa(lp880
F382.1818181818182
aF494.72727272727275
aa(lp881
F382.72727272727275
aF493.90909090909093
aa(lp882
F383.27272727272725
aF493.09090909090907
aa(lp883
F383.8181818181818
aF492.27272727272725
aa(lp884
F384.3636363636364
aF491.45454545454544
aa(lp885
F384.90909090909093
aF490.6363636363636
aa(lp886
F385.45454545454544
aF489.8181818181818
aa(lp887
F386.0
aF489.0
aa(lp888
F386.55555555555554
aF488.1111111111111
aa(lp889
F387.1111111111111
aF487.22222222222223
aa(lp890
F387.6666666666667
aF486.3333333333333
aa(lp891
F388.22222222222223
aF485.44444444444446
aa(lp892
F388.77777777777777
aF484.55555555555554
aa(lp893
F389.3333333333333
aF483.6666666666667
aa(lp894
F389.8888888888889
aF482.77777777777777
aa(lp895
F390.44444444444446
aF481.8888888888889
aa(lp896
F391.0
aF481.0
aa(lp897
F391.625
aF480.25
aa(lp898
F392.25
aF479.5
aa(lp899
F392.875
aF478.75
aa(lp900
F393.5
aF478.0
aa(lp901
F394.125
aF477.25
aa(lp902
F394.75
aF476.5
aa(lp903
F395.375
aF475.75
aa(lp904
F396.0
aF475.0
aa(lp905
F396.5
aF474.1666666666667
aa(lp906
F397.0
aF473.3333333333333
aa(lp907
F397.5
aF472.5
aa(lp908
F398.0
aF471.6666666666667
aa(lp909
F398.5
aF470.8333333333333
aa(lp910
F399.0
aF470.0
aa(lp911
F399.6666666666667
aF469.1666666666667
aa(lp912
F400.3333333333333
aF468.3333333333333
aa(lp913
F401.0
aF467.5
aa(lp914
F401.6666666666667
aF466.6666666666667
aa(lp915
F402.3333333333333
aF465.8333333333333
aa(lp916
F403.0
aF465.0
aa(lp917
F403.6666666666667
aF464.22222222222223
aa(lp918
F404.3333333333333
aF463.44444444444446
aa(lp919
F405.0
aF462.6666666666667
aa(lp920
F405.6666666666667
aF461.8888888888889
aa(lp921
F406.3333333333333
aF461.1111111111111
aa(lp922
F407.0
aF460.3333333333333
aa(lp923
F407.6666666666667
aF459.55555555555554
aa(lp924
F408.3333333333333
aF458.77777777777777
aa(lp925
F409.0
aF458.0
aa(lp926
F409.375
aF457.125
aa(lp927
F409.75
aF456.25
aa(lp928
F410.125
aF455.375
aa(lp929
F410.5
aF454.5
aa(lp930
F410.875
aF453.625
aa(lp931
F411.25
aF452.75
aa(lp932
F411.625
aF451.875
aa(lp933
F412.0
aF451.0
aa(lp934
F412.5
aF450.0
aa(lp935
F413.0
aF449.0
aa(lp936
F413.5
aF448.0
aa(lp937
F414.0
aF447.0
aa(lp938
F414.3333333333333
aF446.0
aa(lp939
F414.6666666666667
aF445.0
aa(lp940
F415.0
aF444.0
aa(lp941
F415.6
aF443.2
aa(lp942
F416.2
aF442.4
aa(lp943
F416.8
aF441.6
aa(lp944
F417.4
aF440.8
aa(lp945
F418.0
aF440.0
aa(lp946
F418.5
aF439.0
aa(lp947
F419.0
aF438.0
aa(lp948
F419.5
aF437.0
aa(lp949
F420.0
aF436.0
aa(lp950
F420.75
aF435.25
aa(lp951
F421.5
aF434.5
aa(lp952
F422.25
aF433.75
aa(lp953
F423.0
aF433.0
aa(lp954
F423.6666666666667
aF432.3333333333333
aa(lp955
F424.3333333333333
aF431.6666666666667
aa(lp956
F425.0
aF431.0
aa(lp957
F425.0
aF430.0
aa(lp958
F425.0
aF429.0
aa(lp959
F425.3333333333333
aF428.0
aa(lp960
F425.6666666666667
aF427.0
aa(lp961
F426.0
aF426.0
aa(lp962
F426.5
aF425.0
aa(lp963
F427.0
aF424.0
aa(lp964
F427.5
aF423.0
aa(lp965
F428.0
aF422.0
aa(lp966
F428.5
aF421.0
aa(lp967
F429.0
aF420.0
aa(lp968
F429.5
aF419.25
aa(lp969
F430.0
aF418.5
aa(lp970
F430.5
aF417.75
aa(lp971
F431.0
aF417.0
aa(lp972
F431.0
aF416.0
aa(lp973
F431.5
aF415.25
aa(lp974
F432.0
aF414.5
aa(lp975
F432.5
aF413.75
aa(lp976
F433.0
aF413.0
aa(lp977
F434.0
aF412.0
aa(lp978
F434.3333333333333
aF411.0
aa(lp979
F434.6666666666667
aF410.0
aa(lp980
F435.0
aF409.0
aa(lp981
F435.5
aF408.0
aa(lp982
F436.0
aF407.0
aa(lp983
F436.5
aF406.0
aa(lp984
F437.0
aF405.0
aa(lp985
F437.75
aF404.25
aa(lp986
F438.5
aF403.5
aa(lp987
F439.25
aF402.75
aa(lp988
F440.0
aF402.0
aa(lp989
F440.5
aF401.0
aa(lp990
F441.0
aF400.0
aa(lp991
F441.0
aF399.0
aa(lp992
F442.0
aF398.0
aasg231
I11
sg232
F0.3
sa(dp993
g10
I6
sg11
(lp994
(lp995
F335.0
aF553.0
aa(lp996
F334.5
aF552.0
aa(lp997
F334.0
aF551.0
aa(lp998
F333.2
aF550.4
aa(lp999
F332.4
aF549.8
aa(lp1000
F331.6
aF549.2
aa(lp1001
F330.8
aF548.6
aa(lp1002
F330.0
aF548.0
aa(lp1003
F329.2857142857143
aF547.2857142857143
aa(lp1004
F328.57142857142856
aF546.5714285714286
aa(lp1005
F327.85714285714283
aF545.8571428571429
aa(lp1006
F327.14285714285717
aF545.1428571428571
aa(lp1007
F326.42857142857144
aF544.4285714285714
aa(lp1008
F325.7142857142857
aF543.7142857142857
aa(lp1009
F325.0
aF543.0
aa(lp1010
F324.22222222222223
aF542.3333333333334
aa(lp1011
F323.44444444444446
aF541.6666666666666
aa(lp1012
F322.6666666666667
aF541.0
aa(lp1013
F321.8888888888889
aF540.3333333333334
aa(lp1014
F321.1111111111111
aF539.6666666666666
aa(lp1015
F320.3333333333333
aF539.0
aa(lp1016
F319.55555555555554
aF538.3333333333334
aa(lp1017
F318.77777777777777
aF537.6666666666666
aa(lp1018
F318.0
aF537.0
aa(lp1019
F317.3333333333333
aF536.25
aa(lp1020
F316.6666666666667
aF535.5
aa(lp1021
F316.0
aF534.75
aa(lp1022
F315.3333333333333
aF534.0
aa(lp1023
F314.6666666666667
aF533.25
aa(lp1024
F314.0
aF532.5
aa(lp1025
F313.3333333333333
aF531.75
aa(lp1026
F312.6666666666667
aF531.0
aa(lp1027
F312.0
aF530.25
aa(lp1028
F311.3333333333333
aF529.5
aa(lp1029
F310.6666666666667
aF528.75
aa(lp1030
F310.0
aF528.0
aa(lp1031
F309.25
aF527.3333333333334
aa(lp1032
F308.5
aF526.6666666666666
aa(lp1033
F307.75
aF526.0
aa(lp1034
F307.0
aF525.3333333333334
aa(lp1035
F306.25
aF524.6666666666666
aa(lp1036
F305.5
aF524.0
aa(lp1037
F304.75
aF523.3333333333334
aa(lp1038
F304.0
aF522.6666666666666
aa(lp1039
F303.25
aF522.0
aa(lp1040
F302.5
aF521.3333333333334
aa(lp1041
F301.75
aF520.6666666666666
aa(lp1042
F301.0
aF520.0
aa(lp1043
F300.3636363636364
aF519.1818181818181
aa(lp1044
F299.72727272727275
aF518.3636363636364
aa(lp1045
F299.09090909090907
aF517.5454545454545
aa(lp1046
F298.45454545454544
aF516.7272727272727
aa(lp1047
F297.8181818181818
aF515.9090909090909
aa(lp1048
F297.1818181818182
aF515.0909090909091
aa(lp1049
F296.54545454545456
aF514.2727272727273
aa(lp1050
F295.90909090909093
aF513.4545454545455
aa(lp1051
F295.27272727272725
aF512.6363636363636
aa(lp1052
F294.6363636363636
aF511.8181818181818
aa(lp1053
F294.0
aF511.0
aa(lp1054
F293.4
aF510.2
aa(lp1055
F292.8
aF509.4
aa(lp1056
F292.2
aF508.6
aa(lp1057
F291.6
aF507.8
aa(lp1058
F291.0
aF507.0
aa(lp1059
F290.2857142857143
aF506.2857142857143
aa(lp1060
F289.57142857142856
aF505.57142857142856
aa(lp1061
F288.85714285714283
aF504.85714285714283
aa(lp1062
F288.14285714285717
aF504.14285714285717
aa(lp1063
F287.42857142857144
aF503.42857142857144
aa(lp1064
F286.7142857142857
aF502.7142857142857
aa(lp1065
F286.0
aF502.0
aa(lp1066
F285.2857142857143
aF501.2857142857143
aa(lp1067
F284.57142857142856
aF500.57142857142856
aa(lp1068
F283.85714285714283
aF499.85714285714283
aa(lp1069
F283.14285714285717
aF499.14285714285717
aa(lp1070
F282.42857142857144
aF498.42857142857144
aa(lp1071
F281.7142857142857
aF497.7142857142857
aa(lp1072
F281.0
aF497.0
aa(lp1073
F280.3636363636364
aF496.1818181818182
aa(lp1074
F279.72727272727275
aF495.3636363636364
aa(lp1075
F279.09090909090907
aF494.54545454545456
aa(lp1076
F278.45454545454544
aF493.72727272727275
aa(lp1077
F277.8181818181818
aF492.90909090909093
aa(lp1078
F277.1818181818182
aF492.09090909090907
aa(lp1079
F276.54545454545456
aF491.27272727272725
aa(lp1080
F275.90909090909093
aF490.45454545454544
aa(lp1081
F275.27272727272725
aF489.6363636363636
aa(lp1082
F274.6363636363636
aF488.8181818181818
aa(lp1083
F274.0
aF488.0
aa(lp1084
F273.1666666666667
aF487.3333333333333
aa(lp1085
F272.3333333333333
aF486.6666666666667
aa(lp1086
F271.5
aF486.0
aa(lp1087
F270.6666666666667
aF485.3333333333333
aa(lp1088
F269.8333333333333
aF484.6666666666667
aa(lp1089
F269.0
aF484.0
aa(lp1090
F268.625
aF483.125
aa(lp1091
F268.25
aF482.25
aa(lp1092
F267.875
aF481.375
aa(lp1093
F267.5
aF480.5
aa(lp1094
F267.125
aF479.625
aa(lp1095
F266.75
aF478.75
aa(lp1096
F266.375
aF477.875
aa(lp1097
F266.0
aF477.0
aa(lp1098
F265.5
aF476.125
aa(lp1099
F265.0
aF475.25
aa(lp1100
F264.5
aF474.375
aa(lp1101
F264.0
aF473.5
aa(lp1102
F263.5
aF472.625
aa(lp1103
F263.0
aF471.75
aa(lp1104
F262.5
aF470.875
aa(lp1105
F262.0
aF470.0
aa(lp1106
F261.5
aF469.1
aa(lp1107
F261.0
aF468.2
aa(lp1108
F260.5
aF467.3
aa(lp1109
F260.0
aF466.4
aa(lp1110
F259.5
aF465.5
aa(lp1111
F259.0
aF464.6
aa(lp1112
F258.5
aF463.7
aa(lp1113
F258.0
aF462.8
aa(lp1114
F257.5
aF461.9
aa(lp1115
F257.0
aF461.0
aa(lp1116
F256.625
aF460.125
aa(lp1117
F256.25
aF459.25
aa(lp1118
F255.875
aF458.375
aa(lp1119
F255.5
aF457.5
aa(lp1120
F255.125
aF456.625
aa(lp1121
F254.75
aF455.75
aa(lp1122
F254.375
aF454.875
aa(lp1123
F254.0
aF454.0
aa(lp1124
F253.375
aF453.25
aa(lp1125
F252.75
aF452.5
aa(lp1126
F252.125
aF451.75
aa(lp1127
F251.5
aF451.0
aa(lp1128
F250.875
aF450.25
aa(lp1129
F250.25
aF449.5
aa(lp1130
F249.625
aF448.75
aa(lp1131
F249.0
aF448.0
aa(lp1132
F248.42857142857142
aF447.14285714285717
aa(lp1133
F247.85714285714286
aF446.2857142857143
aa(lp1134
F247.28571428571428
aF445.42857142857144
aa(lp1135
F246.71428571428572
aF444.57142857142856
aa(lp1136
F246.14285714285714
aF443.7142857142857
aa(lp1137
F245.57142857142858
aF442.85714285714283
aa(lp1138
F245.0
aF442.0
aa(lp1139
F244.16666666666666
aF441.3333333333333
aa(lp1140
F243.33333333333334
aF440.6666666666667
aa(lp1141
F242.5
aF440.0
aa(lp1142
F241.66666666666666
aF439.3333333333333
aa(lp1143
F240.83333333333334
aF438.6666666666667
aa(lp1144
F240.0
aF438.0
aa(lp1145
F239.28571428571428
aF437.2857142857143
aa(lp1146
F238.57142857142858
aF436.57142857142856
aa(lp1147
F237.85714285714286
aF435.85714285714283
aa(lp1148
F237.14285714285714
aF435.14285714285717
aa(lp1149
F236.42857142857142
aF434.42857142857144
aa(lp1150
F235.71428571428572
aF433.7142857142857
aa(lp1151
F235.0
aF433.0
aa(lp1152
F234.5
aF432.25
aa(lp1153
F234.0
aF431.5
aa(lp1154
F233.5
aF430.75
aa(lp1155
F233.0
aF430.0
aa(lp1156
F232.5
aF429.0
aa(lp1157
F232.0
aF428.0
aa(lp1158
F231.5
aF427.0
aa(lp1159
F231.0
aF426.0
aa(lp1160
F230.6
aF425.0
aa(lp1161
F230.2
aF424.0
aa(lp1162
F229.8
aF423.0
aa(lp1163
F229.4
aF422.0
aa(lp1164
F229.0
aF421.0
aa(lp1165
F228.75
aF420.0
aa(lp1166
F228.5
aF419.0
aa(lp1167
F228.25
aF418.0
aa(lp1168
F228.0
aF417.0
aa(lp1169
F227.5
aF416.25
aa(lp1170
F227.0
aF415.5
aa(lp1171
F226.5
aF414.75
aa(lp1172
F226.0
aF414.0
aa(lp1173
F225.66666666666666
aF413.0
aa(lp1174
F225.33333333333334
aF412.0
aa(lp1175
F225.0
aF411.0
aa(lp1176
F224.5
aF410.0
aa(lp1177
F224.0
aF409.0
aa(lp1178
F223.5
aF408.0
aa(lp1179
F223.0
aF407.0
aa(lp1180
F222.0
aF406.0
aasg231
I12
sg232
F0.3
sasg451
I6
sg452
g453
(g454
(I0
tp1181
g456
tp1182
Rp1183
(I1
(I45
I2
tp1184
g463
I00
S'\x00\x00\x00\x00\x11\x00\x00\x00\x01\x00\x00\x00\x11\x00\x00\x00\x02\x00\x00\x00\x11\x00\x00\x00\x03\x00\x00\x00\x11\x00\x00\x00\x04\x00\x00\x00\x11\x00\x00\x00\x05\x00\x00\x00\x11\x00\x00\x00\x06\x00\x00\x00\x11\x00\x00\x00\x07\x00\x00\x00\x11\x00\x00\x00\x08\x00\x00\x00\x11\x00\x00\x00\x08\x00\x00\x00\x12\x00\x00\x00\x08\x00\x00\x00\x13\x00\x00\x00\x08\x00\x00\x00\x14\x00\x00\x00\x08\x00\x00\x00\x15\x00\x00\x00\x07\x00\x00\x00\x15\x00\x00\x00\x06\x00\x00\x00\x15\x00\x00\x00\x06\x00\x00\x00\x14\x00\x00\x00\x07\x00\x00\x00\x14\x00\x00\x00\x07\x00\x00\x00\x13\x00\x00\x00\x06\x00\x00\x00\x13\x00\x00\x00\x06\x00\x00\x00\x12\x00\x00\x00\x07\x00\x00\x00\x12\x00\x00\x00\x05\x00\x00\x00\x12\x00\x00\x00\x05\x00\x00\x00\x13\x00\x00\x00\x05\x00\x00\x00\x14\x00\x00\x00\x05\x00\x00\x00\x15\x00\x00\x00\x04\x00\x00\x00\x15\x00\x00\x00\x04\x00\x00\x00\x14\x00\x00\x00\x04\x00\x00\x00\x13\x00\x00\x00\x04\x00\x00\x00\x12\x00\x00\x00\x03\x00\x00\x00\x12\x00\x00\x00\x03\x00\x00\x00\x13\x00\x00\x00\x03\x00\x00\x00\x14\x00\x00\x00\x03\x00\x00\x00\x15\x00\x00\x00\x02\x00\x00\x00\x15\x00\x00\x00\x02\x00\x00\x00\x14\x00\x00\x00\x02\x00\x00\x00\x13\x00\x00\x00\x02\x00\x00\x00\x12\x00\x00\x00\x01\x00\x00\x00\x12\x00\x00\x00\x01\x00\x00\x00\x13\x00\x00\x00\x01\x00\x00\x00\x14\x00\x00\x00\x01\x00\x00\x00\x15\x00\x00\x00\x00\x00\x00\x00\x15\x00\x00\x00\x00\x00\x00\x00\x14\x00\x00\x00\x00\x00\x00\x00\x13\x00\x00\x00\x00\x00\x00\x00\x12\x00\x00\x00'
p1185
tp1186
bsg468
g469
sg470
g471
sg472
Nsg473
g474
(I312
I497
I60
I96
tp1187
Rp1188
sbag1
(g2
g3
Ntp1189
Rp1190
(dp1191
g7
(lp1192
(dp1193
g10
I9
sg11
(lp1194
(lp1195
F563.0
aF579.0
aa(lp1196
F564.0
aF579.0
aa(lp1197
F564.8
aF578.4
aa(lp1198
F565.6
aF577.8
aa(lp1199
F566.4
aF577.2
aa(lp1200
F567.2
aF576.6
aa(lp1201
F568.0
aF576.0
aa(lp1202
F569.0
aF575.6666666666666
aa(lp1203
F570.0
aF575.3333333333334
aa(lp1204
F571.0
aF575.0
aa(lp1205
F572.0
aF574.6666666666666
aa(lp1206
F573.0
aF574.3333333333334
aa(lp1207
F574.0
aF574.0
aa(lp1208
F575.0
aF573.6666666666666
aa(lp1209
F576.0
aF573.3333333333334
aa(lp1210
F577.0
aF573.0
aa(lp1211
F577.8181818181819
aF572.3636363636364
aa(lp1212
F578.6363636363636
aF571.7272727272727
aa(lp1213
F579.4545454545455
aF571.0909090909091
aa(lp1214
F580.2727272727273
aF570.4545454545455
aa(lp1215
F581.0909090909091
aF569.8181818181819
aa(lp1216
F581.9090909090909
aF569.1818181818181
aa(lp1217
F582.7272727272727
aF568.5454545454545
aa(lp1218
F583.5454545454545
aF567.9090909090909
aa(lp1219
F584.3636363636364
aF567.2727272727273
aa(lp1220
F585.1818181818181
aF566.6363636363636
aa(lp1221
F586.0
aF566.0
aa(lp1222
F586.8888888888889
aF565.4444444444445
aa(lp1223
F587.7777777777778
aF564.8888888888889
aa(lp1224
F588.6666666666666
aF564.3333333333334
aa(lp1225
F589.5555555555555
aF563.7777777777778
aa(lp1226
F590.4444444444445
aF563.2222222222222
aa(lp1227
F591.3333333333334
aF562.6666666666666
aa(lp1228
F592.2222222222222
aF562.1111111111111
aa(lp1229
F593.1111111111111
aF561.5555555555555
aa(lp1230
F594.0
aF561.0
aa(lp1231
F594.5555555555555
aF560.2222222222222
aa(lp1232
F595.1111111111111
aF559.4444444444445
aa(lp1233
F595.6666666666666
aF558.6666666666666
aa(lp1234
F596.2222222222222
aF557.8888888888889
aa(lp1235
F596.7777777777778
aF557.1111111111111
aa(lp1236
F597.3333333333334
aF556.3333333333334
aa(lp1237
F597.8888888888889
aF555.5555555555555
aa(lp1238
F598.4444444444445
aF554.7777777777778
aa(lp1239
F599.0
aF554.0
aa(lp1240
F599.5714285714286
aF553.1428571428571
aa(lp1241
F600.1428571428571
aF552.2857142857143
aa(lp1242
F600.7142857142857
aF551.4285714285714
aa(lp1243
F601.2857142857143
aF550.5714285714286
aa(lp1244
F601.8571428571429
aF549.7142857142857
aa(lp1245
F602.4285714285714
aF548.8571428571429
aa(lp1246
F603.0
aF548.0
aa(lp1247
F603.5714285714286
aF547.1428571428571
aa(lp1248
F604.1428571428571
aF546.2857142857143
aa(lp1249
F604.7142857142857
aF545.4285714285714
aa(lp1250
F605.2857142857143
aF544.5714285714286
aa(lp1251
F605.8571428571429
aF543.7142857142857
aa(lp1252
F606.4285714285714
aF542.8571428571429
aa(lp1253
F607.0
aF542.0
aa(lp1254
F607.5555555555555
aF541.2222222222222
aa(lp1255
F608.1111111111111
aF540.4444444444445
aa(lp1256
F608.6666666666666
aF539.6666666666666
aa(lp1257
F609.2222222222222
aF538.8888888888889
aa(lp1258
F609.7777777777778
aF538.1111111111111
aa(lp1259
F610.3333333333334
aF537.3333333333334
aa(lp1260
F610.8888888888889
aF536.5555555555555
aa(lp1261
F611.4444444444445
aF535.7777777777778
aa(lp1262
F612.0
aF535.0
aa(lp1263
F612.5
aF534.0
aa(lp1264
F613.0
aF533.0
aa(lp1265
F613.5
aF532.0
aa(lp1266
F614.0
aF531.0
aa(lp1267
F614.6666666666666
aF530.2222222222222
aa(lp1268
F615.3333333333334
aF529.4444444444445
aa(lp1269
F616.0
aF528.6666666666666
aa(lp1270
F616.6666666666666
aF527.8888888888889
aa(lp1271
F617.3333333333334
aF527.1111111111111
aa(lp1272
F618.0
aF526.3333333333334
aa(lp1273
F618.6666666666666
aF525.5555555555555
aa(lp1274
F619.3333333333334
aF524.7777777777778
aa(lp1275
F620.0
aF524.0
aa(lp1276
F620.6363636363636
aF523.2727272727273
aa(lp1277
F621.2727272727273
aF522.5454545454545
aa(lp1278
F621.9090909090909
aF521.8181818181819
aa(lp1279
F622.5454545454545
aF521.0909090909091
aa(lp1280
F623.1818181818181
aF520.3636363636364
aa(lp1281
F623.8181818181819
aF519.6363636363636
aa(lp1282
F624.4545454545455
aF518.9090909090909
aa(lp1283
F625.0909090909091
aF518.1818181818181
aa(lp1284
F625.7272727272727
aF517.4545454545455
aa(lp1285
F626.3636363636364
aF516.7272727272727
aa(lp1286
F627.0
aF516.0
aa(lp1287
F627.6
aF515.2
aa(lp1288
F628.2
aF514.4
aa(lp1289
F628.8
aF513.6
aa(lp1290
F629.4
aF512.8
aa(lp1291
F630.0
aF512.0
aa(lp1292
F630.6
aF511.2
aa(lp1293
F631.2
aF510.4
aa(lp1294
F631.8
aF509.6
aa(lp1295
F632.4
aF508.8
aa(lp1296
F633.0
aF508.0
aa(lp1297
F633.75
aF507.25
aa(lp1298
F634.5
aF506.5
aa(lp1299
F635.25
aF505.75
aa(lp1300
F636.0
aF505.0
aa(lp1301
F636.75
aF504.25
aa(lp1302
F637.5
aF503.5
aa(lp1303
F638.25
aF502.75
aa(lp1304
F639.0
aF502.0
aa(lp1305
F639.6666666666666
aF501.22222222222223
aa(lp1306
F640.3333333333334
aF500.44444444444446
aa(lp1307
F641.0
aF499.6666666666667
aa(lp1308
F641.6666666666666
aF498.8888888888889
aa(lp1309
F642.3333333333334
aF498.1111111111111
aa(lp1310
F643.0
aF497.3333333333333
aa(lp1311
F643.6666666666666
aF496.55555555555554
aa(lp1312
F644.3333333333334
aF495.77777777777777
aa(lp1313
F645.0
aF495.0
aa(lp1314
F645.6666666666666
aF494.22222222222223
aa(lp1315
F646.3333333333334
aF493.44444444444446
aa(lp1316
F647.0
aF492.6666666666667
aa(lp1317
F647.6666666666666
aF491.8888888888889
aa(lp1318
F648.3333333333334
aF491.1111111111111
aa(lp1319
F649.0
aF490.3333333333333
aa(lp1320
F649.6666666666666
aF489.55555555555554
aa(lp1321
F650.3333333333334
aF488.77777777777777
aa(lp1322
F651.0
aF488.0
aa(lp1323
F651.4285714285714
aF487.14285714285717
aa(lp1324
F651.8571428571429
aF486.2857142857143
aa(lp1325
F652.2857142857143
aF485.42857142857144
aa(lp1326
F652.7142857142857
aF484.57142857142856
aa(lp1327
F653.1428571428571
aF483.7142857142857
aa(lp1328
F653.5714285714286
aF482.85714285714283
aa(lp1329
F654.0
aF482.0
aa(lp1330
F654.5
aF481.125
aa(lp1331
F655.0
aF480.25
aa(lp1332
F655.5
aF479.375
aa(lp1333
F656.0
aF478.5
aa(lp1334
F656.5
aF477.625
aa(lp1335
F657.0
aF476.75
aa(lp1336
F657.5
aF475.875
aa(lp1337
F658.0
aF475.0
aa(lp1338
F658.5555555555555
aF474.22222222222223
aa(lp1339
F659.1111111111111
aF473.44444444444446
aa(lp1340
F659.6666666666666
aF472.6666666666667
aa(lp1341
F660.2222222222222
aF471.8888888888889
aa(lp1342
F660.7777777777778
aF471.1111111111111
aa(lp1343
F661.3333333333334
aF470.3333333333333
aa(lp1344
F661.8888888888889
aF469.55555555555554
aa(lp1345
F662.4444444444445
aF468.77777777777777
aa(lp1346
F663.0
aF468.0
aa(lp1347
F663.5
aF467.1666666666667
aa(lp1348
F664.0
aF466.3333333333333
aa(lp1349
F664.5
aF465.5
aa(lp1350
F665.0
aF464.6666666666667
aa(lp1351
F665.5
aF463.8333333333333
aa(lp1352
F666.0
aF463.0
aa(lp1353
F666.1666666666666
aF462.0
aa(lp1354
F666.3333333333334
aF461.0
aa(lp1355
F666.5
aF460.0
aa(lp1356
F666.6666666666666
aF459.0
aa(lp1357
F666.8333333333334
aF458.0
aa(lp1358
F667.0
aF457.0
aa(lp1359
F667.5
aF456.1666666666667
aa(lp1360
F668.0
aF455.3333333333333
aa(lp1361
F668.5
aF454.5
aa(lp1362
F669.0
aF453.6666666666667
aa(lp1363
F669.5
aF452.8333333333333
aa(lp1364
F670.0
aF452.0
aa(lp1365
F670.5
aF451.0
aa(lp1366
F671.0
aF450.0
aa(lp1367
F671.5
aF449.0
aa(lp1368
F672.0
aF448.0
aa(lp1369
F672.5
aF447.0
aa(lp1370
F673.0
aF446.0
aa(lp1371
F673.5
aF445.0
aa(lp1372
F674.0
aF444.0
aa(lp1373
F674.5
aF443.1666666666667
aa(lp1374
F675.0
aF442.3333333333333
aa(lp1375
F675.5
aF441.5
aa(lp1376
F676.0
aF440.6666666666667
aa(lp1377
F676.5
aF439.8333333333333
aa(lp1378
F677.0
aF439.0
aa(lp1379
F677.375
aF438.125
aa(lp1380
F677.75
aF437.25
aa(lp1381
F678.125
aF436.375
aa(lp1382
F678.5
aF435.5
aa(lp1383
F678.875
aF434.625
aa(lp1384
F679.25
aF433.75
aa(lp1385
F679.625
aF432.875
aa(lp1386
F680.0
aF432.0
aa(lp1387
F681.0
aF431.0
aa(lp1388
F681.25
aF430.0
aa(lp1389
F681.5
aF429.0
aa(lp1390
F681.75
aF428.0
aa(lp1391
F682.0
aF427.0
aa(lp1392
F682.5
aF426.0
aa(lp1393
F683.0
aF425.0
aa(lp1394
F683.0
aF424.0
aa(lp1395
F683.0
aF423.0
aa(lp1396
F683.0
aF422.0
aa(lp1397
F683.0
aF421.0
aa(lp1398
F683.3333333333334
aF420.0
aa(lp1399
F683.6666666666666
aF419.0
aa(lp1400
F684.0
aF418.0
aa(lp1401
F684.25
aF417.0
aa(lp1402
F684.5
aF416.0
aa(lp1403
F684.75
aF415.0
aa(lp1404
F685.0
aF414.0
aa(lp1405
F685.5
aF413.0
aa(lp1406
F686.0
aF412.0
aa(lp1407
F686.0
aF411.0
aa(lp1408
F686.0
aF410.0
aa(lp1409
F686.0
aF409.0
aa(lp1410
F686.4
aF408.0
aa(lp1411
F686.8
aF407.0
aa(lp1412
F687.2
aF406.0
aa(lp1413
F687.6
aF405.0
aa(lp1414
F688.0
aF404.0
aa(lp1415
F688.0
aF403.0
aa(lp1416
F688.0
aF402.0
aa(lp1417
F688.3333333333334
aF401.0
aa(lp1418
F688.6666666666666
aF400.0
aa(lp1419
F689.0
aF399.0
aa(lp1420
F689.5
aF398.25
aa(lp1421
F690.0
aF397.5
aa(lp1422
F690.5
aF396.75
aa(lp1423
F691.0
aF396.0
aa(lp1424
F692.0
aF395.0
aa(lp1425
F692.0
aF394.0
aa(lp1426
F692.0
aF393.0
aa(lp1427
F693.0
aF392.5
aa(lp1428
F694.0
aF392.0
aa(lp1429
F694.5
aF391.0
aa(lp1430
F695.0
aF390.0
aasg231
I10
sg232
F0.3
sa(dp1431
g10
I9
sg11
(lp1432
(lp1433
F550.0
aF573.0
aa(lp1434
F549.5
aF572.0
aa(lp1435
F549.0
aF571.0
aa(lp1436
F548.5
aF570.25
aa(lp1437
F548.0
aF569.5
aa(lp1438
F547.5
aF568.75
aa(lp1439
F547.0
aF568.0
aa(lp1440
F546.625
aF567.125
aa(lp1441
F546.25
aF566.25
aa(lp1442
F545.875
aF565.375
aa(lp1443
F545.5
aF564.5
aa(lp1444
F545.125
aF563.625
aa(lp1445
F544.75
aF562.75
aa(lp1446
F544.375
aF561.875
aa(lp1447
F544.0
aF561.0
aa(lp1448
F543.3636363636364
aF560.1818181818181
aa(lp1449
F542.7272727272727
aF559.3636363636364
aa(lp1450
F542.0909090909091
aF558.5454545454545
aa(lp1451
F541.4545454545455
aF557.7272727272727
aa(lp1452
F540.8181818181819
aF556.9090909090909
aa(lp1453
F540.1818181818181
aF556.0909090909091
aa(lp1454
F539.5454545454545
aF555.2727272727273
aa(lp1455
F538.9090909090909
aF554.4545454545455
aa(lp1456
F538.2727272727273
aF553.6363636363636
aa(lp1457
F537.6363636363636
aF552.8181818181819
aa(lp1458
F537.0
aF552.0
aa(lp1459
F536.5
aF551.1666666666666
aa(lp1460
F536.0
aF550.3333333333334
aa(lp1461
F535.5
aF549.5
aa(lp1462
F535.0
aF548.6666666666666
aa(lp1463
F534.5
aF547.8333333333334
aa(lp1464
F534.0
aF547.0
aa(lp1465
F533.5
aF546.1666666666666
aa(lp1466
F533.0
aF545.3333333333334
aa(lp1467
F532.5
aF544.5
aa(lp1468
F532.0
aF543.6666666666666
aa(lp1469
F531.5
aF542.8333333333334
aa(lp1470
F531.0
aF542.0
aa(lp1471
F530.5
aF541.1
aa(lp1472
F530.0
aF540.2
aa(lp1473
F529.5
aF539.3
aa(lp1474
F529.0
aF538.4
aa(lp1475
F528.5
aF537.5
aa(lp1476
F528.0
aF536.6
aa(lp1477
F527.5
aF535.7
aa(lp1478
F527.0
aF534.8
aa(lp1479
F526.5
aF533.9
aa(lp1480
F526.0
aF533.0
aa(lp1481
F525.4444444444445
aF532.2222222222222
aa(lp1482
F524.8888888888889
aF531.4444444444445
aa(lp1483
F524.3333333333334
aF530.6666666666666
aa(lp1484
F523.7777777777778
aF529.8888888888889
aa(lp1485
F523.2222222222222
aF529.1111111111111
aa(lp1486
F522.6666666666666
aF528.3333333333334
aa(lp1487
F522.1111111111111
aF527.5555555555555
aa(lp1488
F521.5555555555555
aF526.7777777777778
aa(lp1489
F521.0
aF526.0
aa(lp1490
F520.5
aF525.125
aa(lp1491
F520.0
aF524.25
aa(lp1492
F519.5
aF523.375
aa(lp1493
F519.0
aF522.5
aa(lp1494
F518.5
aF521.625
aa(lp1495
F518.0
aF520.75
aa(lp1496
F517.5
aF519.875
aa(lp1497
F517.0
aF519.0
aa(lp1498
F516.6
aF518.1
aa(lp1499
F516.2
aF517.2
aa(lp1500
F515.8
aF516.3
aa(lp1501
F515.4
aF515.4
aa(lp1502
F515.0
aF514.5
aa(lp1503
F514.6
aF513.6
aa(lp1504
F514.2
aF512.7
aa(lp1505
F513.8
aF511.8
aa(lp1506
F513.4
aF510.9
aa(lp1507
F513.0
aF510.0
aa(lp1508
F512.6666666666666
aF509.0
aa(lp1509
F512.3333333333334
aF508.0
aa(lp1510
F512.0
aF507.0
aa(lp1511
F511.6666666666667
aF506.0
aa(lp1512
F511.3333333333333
aF505.0
aa(lp1513
F511.0
aF504.0
aa(lp1514
F510.7142857142857
aF503.0
aa(lp1515
F510.42857142857144
aF502.0
aa(lp1516
F510.14285714285717
aF501.0
aa(lp1517
F509.85714285714283
aF500.0
aa(lp1518
F509.57142857142856
aF499.0
aa(lp1519
F509.2857142857143
aF498.0
aa(lp1520
F509.0
aF497.0
aa(lp1521
F508.3333333333333
aF496.1666666666667
aa(lp1522
F507.6666666666667
aF495.3333333333333
aa(lp1523
F507.0
aF494.5
aa(lp1524
F506.3333333333333
aF493.6666666666667
aa(lp1525
F505.6666666666667
aF492.8333333333333
aa(lp1526
F505.0
aF492.0
aa(lp1527
F504.5
aF491.0
aa(lp1528
F504.0
aF490.0
aa(lp1529
F503.5
aF489.0
aa(lp1530
F503.0
aF488.0
aa(lp1531
F502.5
aF487.1666666666667
aa(lp1532
F502.0
aF486.3333333333333
aa(lp1533
F501.5
aF485.5
aa(lp1534
F501.0
aF484.6666666666667
aa(lp1535
F500.5
aF483.8333333333333
aa(lp1536
F500.0
aF483.0
aa(lp1537
F499.6
aF482.0
aa(lp1538
F499.2
aF481.0
aa(lp1539
F498.8
aF480.0
aa(lp1540
F498.4
aF479.0
aa(lp1541
F498.0
aF478.0
aa(lp1542
F497.5
aF477.25
aa(lp1543
F497.0
aF476.5
aa(lp1544
F496.5
aF475.75
aa(lp1545
F496.0
aF475.0
aa(lp1546
F495.4
aF474.2
aa(lp1547
F494.8
aF473.4
aa(lp1548
F494.2
aF472.6
aa(lp1549
F493.6
aF471.8
aa(lp1550
F493.0
aF471.0
aa(lp1551
F492.3333333333333
aF470.1666666666667
aa(lp1552
F491.6666666666667
aF469.3333333333333
aa(lp1553
F491.0
aF468.5
aa(lp1554
F490.3333333333333
aF467.6666666666667
aa(lp1555
F489.6666666666667
aF466.8333333333333
aa(lp1556
F489.0
aF466.0
aa(lp1557
F488.5
aF465.25
aa(lp1558
F488.0
aF464.5
aa(lp1559
F487.5
aF463.75
aa(lp1560
F487.0
aF463.0
aa(lp1561
F486.5
aF462.25
aa(lp1562
F486.0
aF461.5
aa(lp1563
F485.5
aF460.75
aa(lp1564
F485.0
aF460.0
aa(lp1565
F484.6666666666667
aF459.0
aa(lp1566
F484.3333333333333
aF458.0
aa(lp1567
F484.0
aF457.0
aa(lp1568
F483.6666666666667
aF456.0
aa(lp1569
F483.3333333333333
aF455.0
aa(lp1570
F483.0
aF454.0
aa(lp1571
F482.6
aF453.0
aa(lp1572
F482.2
aF452.0
aa(lp1573
F481.8
aF451.0
aa(lp1574
F481.4
aF450.0
aa(lp1575
F481.0
aF449.0
aa(lp1576
F480.6666666666667
aF448.0
aa(lp1577
F480.3333333333333
aF447.0
aa(lp1578
F480.0
aF446.0
aa(lp1579
F479.6666666666667
aF445.0
aa(lp1580
F479.3333333333333
aF444.0
aa(lp1581
F479.0
aF443.0
aa(lp1582
F478.5
aF442.25
aa(lp1583
F478.0
aF441.5
aa(lp1584
F477.5
aF440.75
aa(lp1585
F477.0
aF440.0
aa(lp1586
F476.5
aF439.0
aa(lp1587
F476.0
aF438.0
aa(lp1588
F475.5
aF437.0
aa(lp1589
F475.0
aF436.0
aa(lp1590
F474.3333333333333
aF435.3333333333333
aa(lp1591
F473.6666666666667
aF434.6666666666667
aa(lp1592
F473.0
aF434.0
aa(lp1593
F472.5
aF433.25
aa(lp1594
F472.0
aF432.5
aa(lp1595
F471.5
aF431.75
aa(lp1596
F471.0
aF431.0
aa(lp1597
F470.0
aF430.0
aa(lp1598
F469.75
aF429.0
aa(lp1599
F469.5
aF428.0
aa(lp1600
F469.25
aF427.0
aa(lp1601
F469.0
aF426.0
aa(lp1602
F468.5
aF425.0
aa(lp1603
F468.0
aF424.0
aa(lp1604
F467.5
aF423.0
aa(lp1605
F467.0
aF422.0
aa(lp1606
F467.0
aF421.0
aa(lp1607
F467.0
aF420.0
aa(lp1608
F466.6666666666667
aF419.0
aa(lp1609
F466.3333333333333
aF418.0
aa(lp1610
F466.0
aF417.0
aa(lp1611
F466.0
aF416.0
aa(lp1612
F465.5
aF415.0
aa(lp1613
F465.0
aF414.0
aa(lp1614
F465.0
aF413.0
aa(lp1615
F465.0
aF412.0
aa(lp1616
F465.0
aF411.0
aa(lp1617
F464.6666666666667
aF410.0
aa(lp1618
F464.3333333333333
aF409.0
aa(lp1619
F464.0
aF408.0
aa(lp1620
F464.0
aF407.0
aa(lp1621
F464.0
aF406.0
aa(lp1622
F464.0
aF405.0
aa(lp1623
F464.0
aF404.0
aa(lp1624
F464.0
aF403.0
aa(lp1625
F464.0
aF402.0
aa(lp1626
F463.6666666666667
aF401.0
aa(lp1627
F463.3333333333333
aF400.0
aa(lp1628
F463.0
aF399.0
aa(lp1629
F463.0
aF398.0
aasg231
I11
sg232
F0.3
sasg451
I9
sg452
g453
(g454
(I0
tp1630
g456
tp1631
Rp1632
(I1
(I40
I2
tp1633
g463
I00
S'\x0c\x00\x00\x00\x11\x00\x00\x00\x0c\x00\x00\x00\x12\x00\x00\x00\x0c\x00\x00\x00\x13\x00\x00\x00\x0c\x00\x00\x00\x14\x00\x00\x00\x0c\x00\x00\x00\x15\x00\x00\x00\r\x00\x00\x00\x15\x00\x00\x00\x0e\x00\x00\x00\x15\x00\x00\x00\x0f\x00\x00\x00\x15\x00\x00\x00\x10\x00\x00\x00\x15\x00\x00\x00\x11\x00\x00\x00\x15\x00\x00\x00\x12\x00\x00\x00\x15\x00\x00\x00\x13\x00\x00\x00\x15\x00\x00\x00\x13\x00\x00\x00\x11\x00\x00\x00\x13\x00\x00\x00\x12\x00\x00\x00\x13\x00\x00\x00\x13\x00\x00\x00\x13\x00\x00\x00\x14\x00\x00\x00\x12\x00\x00\x00\x14\x00\x00\x00\x12\x00\x00\x00\x13\x00\x00\x00\x12\x00\x00\x00\x12\x00\x00\x00\x12\x00\x00\x00\x11\x00\x00\x00\x11\x00\x00\x00\x11\x00\x00\x00\x11\x00\x00\x00\x12\x00\x00\x00\x11\x00\x00\x00\x13\x00\x00\x00\x11\x00\x00\x00\x14\x00\x00\x00\x10\x00\x00\x00\x14\x00\x00\x00\x10\x00\x00\x00\x13\x00\x00\x00\x10\x00\x00\x00\x12\x00\x00\x00\x10\x00\x00\x00\x11\x00\x00\x00\x0f\x00\x00\x00\x11\x00\x00\x00\x0f\x00\x00\x00\x12\x00\x00\x00\x0f\x00\x00\x00\x13\x00\x00\x00\x0f\x00\x00\x00\x14\x00\x00\x00\x0e\x00\x00\x00\x14\x00\x00\x00\x0e\x00\x00\x00\x13\x00\x00\x00\x0e\x00\x00\x00\x12\x00\x00\x00\x0e\x00\x00\x00\x11\x00\x00\x00\r\x00\x00\x00\x11\x00\x00\x00\r\x00\x00\x00\x12\x00\x00\x00\r\x00\x00\x00\x13\x00\x00\x00\r\x00\x00\x00\x14\x00\x00\x00'
p1634
tp1635
bsg468
g469
sg470
g471
sg472
Nsg473
g474
(I531
I527
I60
I96
tp1636
Rp1637
sbag1
(g2
g3
Ntp1638
Rp1639
(dp1640
g7
(lp1641
sg451
I12
sg452
I0
sg468
S'leftbackward'
p1642
sg470
g792
sg472
Nsg473
g474
(I185
I370
I80
I52
tp1643
Rp1644
sbag1
(g2
g3
Ntp1645
Rp1646
(dp1647
g7
(lp1648
(dp1649
g10
I5
sg11
(lp1650
(lp1651
F344.0
aF413.0
aa(lp1652
F344.0
aF414.0
aa(lp1653
F344.0
aF415.0
aa(lp1654
F344.0
aF416.0
aa(lp1655
F344.0
aF417.0
aa(lp1656
F344.0
aF418.0
aa(lp1657
F344.0
aF419.0
aa(lp1658
F344.0
aF420.0
aa(lp1659
F344.0
aF421.0
aa(lp1660
F344.0
aF422.0
aa(lp1661
F344.0
aF423.0
aa(lp1662
F344.0
aF424.0
aa(lp1663
F344.0
aF425.0
aa(lp1664
F344.0
aF426.0
aa(lp1665
F344.0
aF427.0
aa(lp1666
F344.0
aF428.0
aa(lp1667
F344.0
aF429.0
aa(lp1668
F344.0
aF430.0
aa(lp1669
F344.0
aF431.0
aa(lp1670
F344.0
aF432.0
aa(lp1671
F344.0
aF433.0
aa(lp1672
F344.0
aF434.0
aa(lp1673
F344.0
aF435.0
aa(lp1674
F344.0
aF436.0
aa(lp1675
F344.0
aF437.0
aa(lp1676
F344.5
aF438.0
aa(lp1677
F345.0
aF439.0
aa(lp1678
F345.25
aF440.0
aa(lp1679
F345.5
aF441.0
aa(lp1680
F345.75
aF442.0
aa(lp1681
F346.0
aF443.0
aa(lp1682
F346.5
aF443.75
aa(lp1683
F347.0
aF444.5
aa(lp1684
F347.5
aF445.25
aa(lp1685
F348.0
aF446.0
aa(lp1686
F348.5
aF447.0
aa(lp1687
F349.0
aF448.0
aa(lp1688
F349.5
aF449.0
aa(lp1689
F350.0
aF450.0
aa(lp1690
F350.5
aF451.0
aa(lp1691
F351.0
aF452.0
aa(lp1692
F351.6666666666667
aF452.8333333333333
aa(lp1693
F352.3333333333333
aF453.6666666666667
aa(lp1694
F353.0
aF454.5
aa(lp1695
F353.6666666666667
aF455.3333333333333
aa(lp1696
F354.3333333333333
aF456.1666666666667
aa(lp1697
F355.0
aF457.0
aa(lp1698
F355.5
aF458.0
aa(lp1699
F356.0
aF459.0
aa(lp1700
F356.5
aF460.0
aa(lp1701
F357.0
aF461.0
aa(lp1702
F357.5
aF462.0
aa(lp1703
F358.0
aF463.0
aa(lp1704
F358.5
aF464.0
aa(lp1705
F359.0
aF465.0
aa(lp1706
F359.0
aF466.0
aa(lp1707
F359.0
aF467.0
aa(lp1708
F359.0
aF468.0
aa(lp1709
F359.6666666666667
aF468.6666666666667
aa(lp1710
F360.3333333333333
aF469.3333333333333
aa(lp1711
F361.0
aF470.0
aa(lp1712
F361.3333333333333
aF471.0
aa(lp1713
F361.6666666666667
aF472.0
aa(lp1714
F362.0
aF473.0
aa(lp1715
F362.5
aF473.75
aa(lp1716
F363.0
aF474.5
aa(lp1717
F363.5
aF475.25
aa(lp1718
F364.0
aF476.0
aa(lp1719
F364.5
aF477.0
aa(lp1720
F365.0
aF478.0
aa(lp1721
F365.6
aF478.8
aa(lp1722
F366.2
aF479.6
aa(lp1723
F366.8
aF480.4
aa(lp1724
F367.4
aF481.2
aa(lp1725
F368.0
aF482.0
aa(lp1726
F369.0
aF483.0
aa(lp1727
F370.0
aF483.5
aa(lp1728
F371.0
aF484.0
aa(lp1729
F371.6666666666667
aF484.6666666666667
aa(lp1730
F372.3333333333333
aF485.3333333333333
aa(lp1731
F373.0
aF486.0
aa(lp1732
F373.5
aF487.0
aa(lp1733
F374.0
aF488.0
aa(lp1734
F374.3333333333333
aF489.0
aa(lp1735
F374.6666666666667
aF490.0
aa(lp1736
F375.0
aF491.0
aa(lp1737
F375.6666666666667
aF491.6666666666667
aa(lp1738
F376.3333333333333
aF492.3333333333333
aa(lp1739
F377.0
aF493.0
aa(lp1740
F378.0
aF494.0
aa(lp1741
F378.5
aF494.75
aa(lp1742
F379.0
aF495.5
aa(lp1743
F379.5
aF496.25
aa(lp1744
F380.0
aF497.0
aa(lp1745
F380.0
aF498.0
aa(lp1746
F380.0
aF499.0
aa(lp1747
F381.0
aF500.0
aa(lp1748
F382.0
aF500.5
aa(lp1749
F383.0
aF501.0
aa(lp1750
F384.0
aF501.0
aa(lp1751
F385.0
aF501.0
aa(lp1752
F386.0
aF501.25
aa(lp1753
F387.0
aF501.5
aa(lp1754
F388.0
aF501.75
aa(lp1755
F389.0
aF502.0
aa(lp1756
F390.0
aF502.0
aa(lp1757
F391.0
aF502.0
aa(lp1758
F392.0
aF502.0
aa(lp1759
F393.0
aF502.0
aa(lp1760
F394.0
aF502.2
aa(lp1761
F395.0
aF502.4
aa(lp1762
F396.0
aF502.6
aa(lp1763
F397.0
aF502.8
aa(lp1764
F398.0
aF503.0
aa(lp1765
F399.0
aF503.0
aa(lp1766
F400.0
aF503.0
aa(lp1767
F401.0
aF503.0
aa(lp1768
F402.0
aF503.0
aa(lp1769
F403.0
aF503.0
aa(lp1770
F404.0
aF503.0
aa(lp1771
F405.0
aF503.0
aa(lp1772
F406.0
aF503.0
aa(lp1773
F407.0
aF502.6666666666667
aa(lp1774
F408.0
aF502.3333333333333
aa(lp1775
F409.0
aF502.0
aa(lp1776
F409.8
aF501.4
aa(lp1777
F410.6
aF500.8
aa(lp1778
F411.4
aF500.2
aa(lp1779
F412.2
aF499.6
aa(lp1780
F413.0
aF499.0
aa(lp1781
F413.8333333333333
aF498.3333333333333
aa(lp1782
F414.6666666666667
aF497.6666666666667
aa(lp1783
F415.5
aF497.0
aa(lp1784
F416.3333333333333
aF496.3333333333333
aa(lp1785
F417.1666666666667
aF495.6666666666667
aa(lp1786
F418.0
aF495.0
aa(lp1787
F418.8
aF494.4
aa(lp1788
F419.6
aF493.8
aa(lp1789
F420.4
aF493.2
aa(lp1790
F421.2
aF492.6
aa(lp1791
F422.0
aF492.0
aa(lp1792
F422.6
aF491.2
aa(lp1793
F423.2
aF490.4
aa(lp1794
F423.8
aF489.6
aa(lp1795
F424.4
aF488.8
aa(lp1796
F425.0
aF488.0
aa(lp1797
F425.75
aF487.25
aa(lp1798
F426.5
aF486.5
aa(lp1799
F427.25
aF485.75
aa(lp1800
F428.0
aF485.0
aa(lp1801
F428.6
aF484.2
aa(lp1802
F429.2
aF483.4
aa(lp1803
F429.8
aF482.6
aa(lp1804
F430.4
aF481.8
aa(lp1805
F431.0
aF481.0
aa(lp1806
F431.5
aF480.0
aa(lp1807
F432.0
aF479.0
aa(lp1808
F432.5
aF478.0
aa(lp1809
F433.0
aF477.0
aa(lp1810
F433.6666666666667
aF476.3333333333333
aa(lp1811
F434.3333333333333
aF475.6666666666667
aa(lp1812
F435.0
aF475.0
aa(lp1813
F435.6666666666667
aF474.3333333333333
aa(lp1814
F436.3333333333333
aF473.6666666666667
aa(lp1815
F437.0
aF473.0
aa(lp1816
F437.6666666666667
aF472.3333333333333
aa(lp1817
F438.3333333333333
aF471.6666666666667
aa(lp1818
F439.0
aF471.0
aa(lp1819
F439.3333333333333
aF470.0
aa(lp1820
F439.6666666666667
aF469.0
aa(lp1821
F440.0
aF468.0
aa(lp1822
F440.6666666666667
aF467.1666666666667
aa(lp1823
F441.3333333333333
aF466.3333333333333
aa(lp1824
F442.0
aF465.5
aa(lp1825
F442.6666666666667
aF464.6666666666667
aa(lp1826
F443.3333333333333
aF463.8333333333333
aa(lp1827
F444.0
aF463.0
aa(lp1828
F444.75
aF462.25
aa(lp1829
F445.5
aF461.5
aa(lp1830
F446.25
aF460.75
aa(lp1831
F447.0
aF460.0
aa(lp1832
F447.0
aF459.0
aa(lp1833
F447.5
aF458.0
aa(lp1834
F448.0
aF457.0
aa(lp1835
F448.25
aF456.0
aa(lp1836
F448.5
aF455.0
aa(lp1837
F448.75
aF454.0
aa(lp1838
F449.0
aF453.0
aa(lp1839
F449.5
aF452.0
aa(lp1840
F450.0
aF451.0
aa(lp1841
F450.75
aF450.5
aa(lp1842
F451.5
aF450.0
aa(lp1843
F452.25
aF449.5
aa(lp1844
F453.0
aF449.0
aa(lp1845
F453.2
aF448.0
aa(lp1846
F453.4
aF447.0
aa(lp1847
F453.6
aF446.0
aa(lp1848
F453.8
aF445.0
aa(lp1849
F454.0
aF444.0
aa(lp1850
F454.5
aF443.0
aa(lp1851
F455.0
aF442.0
aa(lp1852
F455.5
aF441.0
aa(lp1853
F456.0
aF440.0
aa(lp1854
F456.25
aF439.0
aa(lp1855
F456.5
aF438.0
aa(lp1856
F456.75
aF437.0
aa(lp1857
F457.0
aF436.0
aa(lp1858
F457.2
aF435.0
aa(lp1859
F457.4
aF434.0
aa(lp1860
F457.6
aF433.0
aa(lp1861
F457.8
aF432.0
aa(lp1862
F458.0
aF431.0
aa(lp1863
F458.0
aF430.0
aa(lp1864
F458.0
aF429.0
aa(lp1865
F458.0
aF428.0
aa(lp1866
F458.0
aF427.0
aa(lp1867
F458.3333333333333
aF426.0
aa(lp1868
F458.6666666666667
aF425.0
aa(lp1869
F459.0
aF424.0
aa(lp1870
F459.0
aF423.0
aa(lp1871
F459.0
aF422.0
aa(lp1872
F459.0
aF421.0
aa(lp1873
F459.0
aF420.0
aa(lp1874
F459.0
aF419.0
aa(lp1875
F459.0
aF418.0
aa(lp1876
F459.0
aF417.0
aa(lp1877
F459.0
aF416.0
aa(lp1878
F459.0
aF415.0
aa(lp1879
F459.0
aF414.0
aa(lp1880
F459.0
aF413.0
aa(lp1881
F459.0
aF412.0
aa(lp1882
F459.0
aF411.0
aa(lp1883
F459.0
aF410.0
aa(lp1884
F459.0
aF409.0
aa(lp1885
F459.0
aF408.0
aa(lp1886
F459.0
aF407.0
aa(lp1887
F459.0
aF406.0
aa(lp1888
F459.0
aF405.0
aa(lp1889
F459.0
aF404.0
aa(lp1890
F459.0
aF403.0
aa(lp1891
F459.0
aF402.0
aa(lp1892
F459.0
aF401.0
aa(lp1893
F459.0
aF400.0
aa(lp1894
F459.0
aF399.0
aa(lp1895
F459.0
aF398.0
aa(lp1896
F458.6666666666667
aF397.0
aa(lp1897
F458.3333333333333
aF396.0
aa(lp1898
F458.0
aF395.0
aasg231
I11
sg232
F0.3
sa(dp1899
g10
I5
sg11
(lp1900
(lp1901
F332.0
aF412.0
aa(lp1902
F331.3333333333333
aF412.6666666666667
aa(lp1903
F330.6666666666667
aF413.3333333333333
aa(lp1904
F330.0
aF414.0
aa(lp1905
F330.0
aF415.0
aa(lp1906
F329.5
aF415.75
aa(lp1907
F329.0
aF416.5
aa(lp1908
F328.5
aF417.25
aa(lp1909
F328.0
aF418.0
aa(lp1910
F327.5
aF419.0
aa(lp1911
F327.0
aF420.0
aa(lp1912
F326.5
aF421.0
aa(lp1913
F326.0
aF422.0
aa(lp1914
F325.6666666666667
aF423.0
aa(lp1915
F325.3333333333333
aF424.0
aa(lp1916
F325.0
aF425.0
aa(lp1917
F324.6666666666667
aF426.0
aa(lp1918
F324.3333333333333
aF427.0
aa(lp1919
F324.0
aF428.0
aa(lp1920
F323.6
aF429.0
aa(lp1921
F323.2
aF430.0
aa(lp1922
F322.8
aF431.0
aa(lp1923
F322.4
aF432.0
aa(lp1924
F322.0
aF433.0
aa(lp1925
F321.5
aF433.75
aa(lp1926
F321.0
aF434.5
aa(lp1927
F320.5
aF435.25
aa(lp1928
F320.0
aF436.0
aa(lp1929
F319.75
aF437.0
aa(lp1930
F319.5
aF438.0
aa(lp1931
F319.25
aF439.0
aa(lp1932
F319.0
aF440.0
aa(lp1933
F318.5
aF440.8333333333333
aa(lp1934
F318.0
aF441.6666666666667
aa(lp1935
F317.5
aF442.5
aa(lp1936
F317.0
aF443.3333333333333
aa(lp1937
F316.5
aF444.1666666666667
aa(lp1938
F316.0
aF445.0
aa(lp1939
F315.5
aF446.0
aa(lp1940
F315.0
aF447.0
aa(lp1941
F314.5
aF448.0
aa(lp1942
F314.0
aF449.0
aa(lp1943
F313.6666666666667
aF450.0
aa(lp1944
F313.3333333333333
aF451.0
aa(lp1945
F313.0
aF452.0
aa(lp1946
F312.5
aF453.0
aa(lp1947
F312.0
aF454.0
aa(lp1948
F311.5
aF455.0
aa(lp1949
F311.0
aF456.0
aa(lp1950
F310.5
aF457.0
aa(lp1951
F310.0
aF458.0
aa(lp1952
F309.5
aF459.0
aa(lp1953
F309.0
aF460.0
aa(lp1954
F308.57142857142856
aF460.85714285714283
aa(lp1955
F308.14285714285717
aF461.7142857142857
aa(lp1956
F307.7142857142857
aF462.57142857142856
aa(lp1957
F307.2857142857143
aF463.42857142857144
aa(lp1958
F306.85714285714283
aF464.2857142857143
aa(lp1959
F306.42857142857144
aF465.14285714285717
aa(lp1960
F306.0
aF466.0
aa(lp1961
F305.25
aF466.75
aa(lp1962
F304.5
aF467.5
aa(lp1963
F303.75
aF468.25
aa(lp1964
F303.0
aF469.0
aa(lp1965
F302.5
aF469.75
aa(lp1966
F302.0
aF470.5
aa(lp1967
F301.5
aF471.25
aa(lp1968
F301.0
aF472.0
aa(lp1969
F300.6666666666667
aF473.0
aa(lp1970
F300.3333333333333
aF474.0
aa(lp1971
F300.0
aF475.0
aa(lp1972
F299.3333333333333
aF475.6666666666667
aa(lp1973
F298.6666666666667
aF476.3333333333333
aa(lp1974
F298.0
aF477.0
aa(lp1975
F297.4
aF477.8
aa(lp1976
F296.8
aF478.6
aa(lp1977
F296.2
aF479.4
aa(lp1978
F295.6
aF480.2
aa(lp1979
F295.0
aF481.0
aa(lp1980
F294.25
aF481.75
aa(lp1981
F293.5
aF482.5
aa(lp1982
F292.75
aF483.25
aa(lp1983
F292.0
aF484.0
aa(lp1984
F291.5
aF484.75
aa(lp1985
F291.0
aF485.5
aa(lp1986
F290.5
aF486.25
aa(lp1987
F290.0
aF487.0
aa(lp1988
F289.3333333333333
aF487.6666666666667
aa(lp1989
F288.6666666666667
aF488.3333333333333
aa(lp1990
F288.0
aF489.0
aa(lp1991
F287.3333333333333
aF489.6666666666667
aa(lp1992
F286.6666666666667
aF490.3333333333333
aa(lp1993
F286.0
aF491.0
aa(lp1994
F285.0
aF491.5
aa(lp1995
F284.0
aF492.0
aa(lp1996
F283.0
aF492.5
aa(lp1997
F282.0
aF493.0
aa(lp1998
F281.25
aF493.5
aa(lp1999
F280.5
aF494.0
aa(lp2000
F279.75
aF494.5
aa(lp2001
F279.0
aF495.0
aa(lp2002
F278.0
aF496.0
aa(lp2003
F277.0
aF496.0
aa(lp2004
F276.0
aF496.0
aa(lp2005
F275.0
aF496.0
aa(lp2006
F274.0
aF496.0
aa(lp2007
F273.0
aF496.0
aa(lp2008
F272.0
aF496.0
aa(lp2009
F271.0
aF496.0
aa(lp2010
F270.0
aF496.0
aa(lp2011
F269.0
aF496.0
aa(lp2012
F268.0
aF496.0
aa(lp2013
F267.0
aF496.0
aa(lp2014
F266.0
aF496.0
aa(lp2015
F265.0
aF496.0
aa(lp2016
F264.0
aF497.0
aa(lp2017
F263.0
aF497.0
aa(lp2018
F262.0
aF497.0
aa(lp2019
F261.0
aF497.0
aa(lp2020
F260.0
aF497.0
aa(lp2021
F259.0
aF497.0
aa(lp2022
F258.0
aF497.0
aa(lp2023
F257.0
aF497.0
aa(lp2024
F256.0
aF497.0
aa(lp2025
F255.0
aF497.0
aa(lp2026
F254.0
aF497.0
aa(lp2027
F253.0
aF497.0
aa(lp2028
F252.0
aF497.0
aa(lp2029
F251.0
aF497.0
aa(lp2030
F250.0
aF497.0
aa(lp2031
F249.0
aF497.0
aa(lp2032
F248.0
aF497.0
aa(lp2033
F247.0
aF497.0
aa(lp2034
F246.0
aF497.0
aa(lp2035
F245.0
aF497.0
aa(lp2036
F244.0
aF496.6666666666667
aa(lp2037
F243.0
aF496.3333333333333
aa(lp2038
F242.0
aF496.0
aa(lp2039
F241.33333333333334
aF495.3333333333333
aa(lp2040
F240.66666666666666
aF494.6666666666667
aa(lp2041
F240.0
aF494.0
aa(lp2042
F239.28571428571428
aF493.2857142857143
aa(lp2043
F238.57142857142858
aF492.57142857142856
aa(lp2044
F237.85714285714286
aF491.85714285714283
aa(lp2045
F237.14285714285714
aF491.14285714285717
aa(lp2046
F236.42857142857142
aF490.42857142857144
aa(lp2047
F235.71428571428572
aF489.7142857142857
aa(lp2048
F235.0
aF489.0
aa(lp2049
F234.6
aF488.0
aa(lp2050
F234.2
aF487.0
aa(lp2051
F233.8
aF486.0
aa(lp2052
F233.4
aF485.0
aa(lp2053
F233.0
aF484.0
aa(lp2054
F232.625
aF483.125
aa(lp2055
F232.25
aF482.25
aa(lp2056
F231.875
aF481.375
aa(lp2057
F231.5
aF480.5
aa(lp2058
F231.125
aF479.625
aa(lp2059
F230.75
aF478.75
aa(lp2060
F230.375
aF477.875
aa(lp2061
F230.0
aF477.0
aa(lp2062
F229.625
aF476.125
aa(lp2063
F229.25
aF475.25
aa(lp2064
F228.875
aF474.375
aa(lp2065
F228.5
aF473.5
aa(lp2066
F228.125
aF472.625
aa(lp2067
F227.75
aF471.75
aa(lp2068
F227.375
aF470.875
aa(lp2069
F227.0
aF470.0
aa(lp2070
F226.5
aF469.25
aa(lp2071
F226.0
aF468.5
aa(lp2072
F225.5
aF467.75
aa(lp2073
F225.0
aF467.0
aa(lp2074
F224.6
aF466.0
aa(lp2075
F224.2
aF465.0
aa(lp2076
F223.8
aF464.0
aa(lp2077
F223.4
aF463.0
aa(lp2078
F223.0
aF462.0
aa(lp2079
F222.75
aF461.0
aa(lp2080
F222.5
aF460.0
aa(lp2081
F222.25
aF459.0
aa(lp2082
F222.0
aF458.0
aa(lp2083
F221.66666666666666
aF457.0
aa(lp2084
F221.33333333333334
aF456.0
aa(lp2085
F221.0
aF455.0
aa(lp2086
F220.66666666666666
aF454.0
aa(lp2087
F220.33333333333334
aF453.0
aa(lp2088
F220.0
aF452.0
aa(lp2089
F219.5
aF451.0
aa(lp2090
F219.0
aF450.0
aa(lp2091
F218.5
aF449.0
aa(lp2092
F218.0
aF448.0
aa(lp2093
F218.0
aF447.0
aa(lp2094
F218.0
aF446.0
aa(lp2095
F218.0
aF445.0
aa(lp2096
F218.0
aF444.0
aa(lp2097
F217.8
aF443.0
aa(lp2098
F217.6
aF442.0
aa(lp2099
F217.4
aF441.0
aa(lp2100
F217.2
aF440.0
aa(lp2101
F217.0
aF439.0
aa(lp2102
F216.8
aF438.0
aa(lp2103
F216.6
aF437.0
aa(lp2104
F216.4
aF436.0
aa(lp2105
F216.2
aF435.0
aa(lp2106
F216.0
aF434.0
aa(lp2107
F215.66666666666666
aF433.0
aa(lp2108
F215.33333333333334
aF432.0
aa(lp2109
F215.0
aF431.0
aa(lp2110
F215.0
aF430.0
aa(lp2111
F215.0
aF429.0
aa(lp2112
F215.0
aF428.0
aa(lp2113
F215.0
aF427.0
aa(lp2114
F215.0
aF426.0
aa(lp2115
F214.66666666666666
aF425.0
aa(lp2116
F214.33333333333334
aF424.0
aa(lp2117
F214.0
aF423.0
aa(lp2118
F214.0
aF422.0
aa(lp2119
F214.0
aF421.0
aa(lp2120
F214.0
aF420.0
aa(lp2121
F214.0
aF419.0
aa(lp2122
F214.0
aF418.0
aa(lp2123
F214.0
aF417.0
aa(lp2124
F214.0
aF416.0
aa(lp2125
F214.0
aF415.0
aa(lp2126
F214.0
aF414.0
aa(lp2127
F214.0
aF413.0
aa(lp2128
F214.0
aF412.0
aa(lp2129
F214.0
aF411.0
aa(lp2130
F214.0
aF410.0
aa(lp2131
F214.0
aF409.0
aa(lp2132
F214.0
aF408.0
aa(lp2133
F214.0
aF407.0
aa(lp2134
F214.0
aF406.0
aa(lp2135
F214.0
aF405.0
aa(lp2136
F213.5
aF404.0
aa(lp2137
F213.0
aF403.0
aa(lp2138
F213.0
aF402.0
aa(lp2139
F213.0
aF401.0
aa(lp2140
F213.0
aF400.0
aa(lp2141
F213.0
aF399.0
aasg231
I12
sg232
F0.3
sasg451
I5
sg452
g453
(g454
(I0
tp2142
g456
tp2143
Rp2144
(I1
(I45
I2
tp2145
g463
I00
S'\x00\x00\x00\x00\t\x00\x00\x00\x01\x00\x00\x00\t\x00\x00\x00\x02\x00\x00\x00\t\x00\x00\x00\x03\x00\x00\x00\t\x00\x00\x00\x04\x00\x00\x00\t\x00\x00\x00\x05\x00\x00\x00\t\x00\x00\x00\x06\x00\x00\x00\t\x00\x00\x00\x07\x00\x00\x00\t\x00\x00\x00\x08\x00\x00\x00\t\x00\x00\x00\x08\x00\x00\x00\n\x00\x00\x00\x08\x00\x00\x00\x0b\x00\x00\x00\x08\x00\x00\x00\x0c\x00\x00\x00\x08\x00\x00\x00\r\x00\x00\x00\x07\x00\x00\x00\r\x00\x00\x00\x06\x00\x00\x00\r\x00\x00\x00\x06\x00\x00\x00\x0c\x00\x00\x00\x07\x00\x00\x00\x0c\x00\x00\x00\x07\x00\x00\x00\x0b\x00\x00\x00\x06\x00\x00\x00\x0b\x00\x00\x00\x06\x00\x00\x00\n\x00\x00\x00\x07\x00\x00\x00\n\x00\x00\x00\x05\x00\x00\x00\n\x00\x00\x00\x05\x00\x00\x00\x0b\x00\x00\x00\x05\x00\x00\x00\x0c\x00\x00\x00\x05\x00\x00\x00\r\x00\x00\x00\x04\x00\x00\x00\r\x00\x00\x00\x04\x00\x00\x00\x0c\x00\x00\x00\x04\x00\x00\x00\x0b\x00\x00\x00\x04\x00\x00\x00\n\x00\x00\x00\x03\x00\x00\x00\n\x00\x00\x00\x03\x00\x00\x00\x0b\x00\x00\x00\x03\x00\x00\x00\x0c\x00\x00\x00\x03\x00\x00\x00\r\x00\x00\x00\x02\x00\x00\x00\r\x00\x00\x00\x02\x00\x00\x00\x0c\x00\x00\x00\x02\x00\x00\x00\x0b\x00\x00\x00\x02\x00\x00\x00\n\x00\x00\x00\x01\x00\x00\x00\n\x00\x00\x00\x01\x00\x00\x00\x0b\x00\x00\x00\x01\x00\x00\x00\x0c\x00\x00\x00\x01\x00\x00\x00\r\x00\x00\x00\x00\x00\x00\x00\r\x00\x00\x00\x00\x00\x00\x00\x0c\x00\x00\x00\x00\x00\x00\x00\x0b\x00\x00\x00\x00\x00\x00\x00\n\x00\x00\x00'
p2146
tp2147
bsg468
g469
sg470
g471
sg472
Nsg473
g474
(I315
I329
I60
I96
tp2148
Rp2149
sbag1
(g2
g3
Ntp2150
Rp2151
(dp2152
g7
(lp2153
sg451
I10
sg452
I0
sg468
S'leftforward'
p2154
sg470
g792
sg472
Nsg473
g474
(I650
I357
I80
I49
tp2155
Rp2156
sbag1
(g2
g3
Ntp2157
Rp2158
(dp2159
g7
(lp2160
sg451
I11
sg452
I0
sg468
S'rightforward'
p2161
sg470
g792
sg472
Nsg473
g474
(I421
I369
I80
I51
tp2162
Rp2163
sbag1
(g2
g3
Ntp2164
Rp2165
(dp2166
g7
(lp2167
(dp2168
g10
I4
sg11
(lp2169
(lp2170
F337.0
aF267.0
aa(lp2171
F337.75
aF267.75
aa(lp2172
F338.5
aF268.5
aa(lp2173
F339.25
aF269.25
aa(lp2174
F340.0
aF270.0
aa(lp2175
F340.6
aF270.8
aa(lp2176
F341.2
aF271.6
aa(lp2177
F341.8
aF272.4
aa(lp2178
F342.4
aF273.2
aa(lp2179
F343.0
aF274.0
aa(lp2180
F343.6666666666667
aF274.77777777777777
aa(lp2181
F344.3333333333333
aF275.55555555555554
aa(lp2182
F345.0
aF276.3333333333333
aa(lp2183
F345.6666666666667
aF277.1111111111111
aa(lp2184
F346.3333333333333
aF277.8888888888889
aa(lp2185
F347.0
aF278.6666666666667
aa(lp2186
F347.6666666666667
aF279.44444444444446
aa(lp2187
F348.3333333333333
aF280.22222222222223
aa(lp2188
F349.0
aF281.0
aa(lp2189
F349.7692307692308
aF281.6923076923077
aa(lp2190
F350.53846153846155
aF282.38461538461536
aa(lp2191
F351.3076923076923
aF283.0769230769231
aa(lp2192
F352.0769230769231
aF283.7692307692308
aa(lp2193
F352.84615384615387
aF284.46153846153845
aa(lp2194
F353.61538461538464
aF285.15384615384613
aa(lp2195
F354.38461538461536
aF285.84615384615387
aa(lp2196
F355.15384615384613
aF286.53846153846155
aa(lp2197
F355.9230769230769
aF287.2307692307692
aa(lp2198
F356.6923076923077
aF287.9230769230769
aa(lp2199
F357.46153846153845
aF288.61538461538464
aa(lp2200
F358.2307692307692
aF289.3076923076923
aa(lp2201
F359.0
aF290.0
aa(lp2202
F359.7
aF290.7
aa(lp2203
F360.4
aF291.4
aa(lp2204
F361.1
aF292.1
aa(lp2205
F361.8
aF292.8
aa(lp2206
F362.5
aF293.5
aa(lp2207
F363.2
aF294.2
aa(lp2208
F363.9
aF294.9
aa(lp2209
F364.6
aF295.6
aa(lp2210
F365.3
aF296.3
aa(lp2211
F366.0
aF297.0
aa(lp2212
F366.7142857142857
aF297.7142857142857
aa(lp2213
F367.42857142857144
aF298.42857142857144
aa(lp2214
F368.14285714285717
aF299.14285714285717
aa(lp2215
F368.85714285714283
aF299.85714285714283
aa(lp2216
F369.57142857142856
aF300.57142857142856
aa(lp2217
F370.2857142857143
aF301.2857142857143
aa(lp2218
F371.0
aF302.0
aa(lp2219
F371.8
aF302.6
aa(lp2220
F372.6
aF303.2
aa(lp2221
F373.4
aF303.8
aa(lp2222
F374.2
aF304.4
aa(lp2223
F375.0
aF305.0
aa(lp2224
F375.6666666666667
aF305.6666666666667
aa(lp2225
F376.3333333333333
aF306.3333333333333
aa(lp2226
F377.0
aF307.0
aa(lp2227
F377.6666666666667
aF307.8333333333333
aa(lp2228
F378.3333333333333
aF308.6666666666667
aa(lp2229
F379.0
aF309.5
aa(lp2230
F379.6666666666667
aF310.3333333333333
aa(lp2231
F380.3333333333333
aF311.1666666666667
aa(lp2232
F381.0
aF312.0
aa(lp2233
F381.5
aF312.875
aa(lp2234
F382.0
aF313.75
aa(lp2235
F382.5
aF314.625
aa(lp2236
F383.0
aF315.5
aa(lp2237
F383.5
aF316.375
aa(lp2238
F384.0
aF317.25
aa(lp2239
F384.5
aF318.125
aa(lp2240
F385.0
aF319.0
aa(lp2241
F385.75
aF319.75
aa(lp2242
F386.5
aF320.5
aa(lp2243
F387.25
aF321.25
aa(lp2244
F388.0
aF322.0
aa(lp2245
F388.75
aF322.75
aa(lp2246
F389.5
aF323.5
aa(lp2247
F390.25
aF324.25
aa(lp2248
F391.0
aF325.0
aa(lp2249
F391.55555555555554
aF325.77777777777777
aa(lp2250
F392.1111111111111
aF326.55555555555554
aa(lp2251
F392.6666666666667
aF327.3333333333333
aa(lp2252
F393.22222222222223
aF328.1111111111111
aa(lp2253
F393.77777777777777
aF328.8888888888889
aa(lp2254
F394.3333333333333
aF329.6666666666667
aa(lp2255
F394.8888888888889
aF330.44444444444446
aa(lp2256
F395.44444444444446
aF331.22222222222223
aa(lp2257
F396.0
aF332.0
aa(lp2258
F396.5
aF332.8333333333333
aa(lp2259
F397.0
aF333.6666666666667
aa(lp2260
F397.5
aF334.5
aa(lp2261
F398.0
aF335.3333333333333
aa(lp2262
F398.5
aF336.1666666666667
aa(lp2263
F399.0
aF337.0
aa(lp2264
F399.75
aF337.75
aa(lp2265
F400.5
aF338.5
aa(lp2266
F401.25
aF339.25
aa(lp2267
F402.0
aF340.0
aa(lp2268
F402.6
aF340.8
aa(lp2269
F403.2
aF341.6
aa(lp2270
F403.8
aF342.4
aa(lp2271
F404.4
aF343.2
aa(lp2272
F405.0
aF344.0
aa(lp2273
F405.6666666666667
aF344.6666666666667
aa(lp2274
F406.3333333333333
aF345.3333333333333
aa(lp2275
F407.0
aF346.0
aa(lp2276
F407.75
aF346.5
aa(lp2277
F408.5
aF347.0
aa(lp2278
F409.25
aF347.5
aa(lp2279
F410.0
aF348.0
aa(lp2280
F410.6
aF348.8
aa(lp2281
F411.2
aF349.6
aa(lp2282
F411.8
aF350.4
aa(lp2283
F412.4
aF351.2
aa(lp2284
F413.0
aF352.0
aa(lp2285
F413.5
aF352.8333333333333
aa(lp2286
F414.0
aF353.6666666666667
aa(lp2287
F414.5
aF354.5
aa(lp2288
F415.0
aF355.3333333333333
aa(lp2289
F415.5
aF356.1666666666667
aa(lp2290
F416.0
aF357.0
aa(lp2291
F416.6666666666667
aF357.8333333333333
aa(lp2292
F417.3333333333333
aF358.6666666666667
aa(lp2293
F418.0
aF359.5
aa(lp2294
F418.6666666666667
aF360.3333333333333
aa(lp2295
F419.3333333333333
aF361.1666666666667
aa(lp2296
F420.0
aF362.0
aa(lp2297
F420.75
aF362.75
aa(lp2298
F421.5
aF363.5
aa(lp2299
F422.25
aF364.25
aa(lp2300
F423.0
aF365.0
aa(lp2301
F423.6666666666667
aF365.6666666666667
aa(lp2302
F424.3333333333333
aF366.3333333333333
aa(lp2303
F425.0
aF367.0
aa(lp2304
F425.75
aF367.75
aa(lp2305
F426.5
aF368.5
aa(lp2306
F427.25
aF369.25
aa(lp2307
F428.0
aF370.0
aa(lp2308
F428.5
aF371.0
aa(lp2309
F429.0
aF372.0
aa(lp2310
F429.5
aF373.0
aa(lp2311
F430.0
aF374.0
aa(lp2312
F430.6666666666667
aF374.6666666666667
aa(lp2313
F431.3333333333333
aF375.3333333333333
aa(lp2314
F432.0
aF376.0
aa(lp2315
F432.5
aF376.75
aa(lp2316
F433.0
aF377.5
aa(lp2317
F433.5
aF378.25
aa(lp2318
F434.0
aF379.0
aa(lp2319
F434.3333333333333
aF380.0
aa(lp2320
F434.6666666666667
aF381.0
aa(lp2321
F435.0
aF382.0
aa(lp2322
F436.0
aF382.5
aa(lp2323
F437.0
aF383.0
aa(lp2324
F437.75
aF383.5
aa(lp2325
F438.5
aF384.0
aa(lp2326
F439.25
aF384.5
aa(lp2327
F440.0
aF385.0
aa(lp2328
F441.0
aF386.0
aa(lp2329
F442.0
aF387.0
aasg231
I11
sg232
F0.3
sa(dp2330
g10
I4
sg11
(lp2331
(lp2332
F334.0
aF257.0
aa(lp2333
F333.0
aF257.0
aa(lp2334
F332.25
aF257.75
aa(lp2335
F331.5
aF258.5
aa(lp2336
F330.75
aF259.25
aa(lp2337
F330.0
aF260.0
aa(lp2338
F329.2
aF260.6
aa(lp2339
F328.4
aF261.2
aa(lp2340
F327.6
aF261.8
aa(lp2341
F326.8
aF262.4
aa(lp2342
F326.0
aF263.0
aa(lp2343
F325.2
aF263.6
aa(lp2344
F324.4
aF264.2
aa(lp2345
F323.6
aF264.8
aa(lp2346
F322.8
aF265.4
aa(lp2347
F322.0
aF266.0
aa(lp2348
F321.27272727272725
aF266.72727272727275
aa(lp2349
F320.54545454545456
aF267.45454545454544
aa(lp2350
F319.8181818181818
aF268.1818181818182
aa(lp2351
F319.09090909090907
aF268.90909090909093
aa(lp2352
F318.3636363636364
aF269.6363636363636
aa(lp2353
F317.6363636363636
aF270.3636363636364
aa(lp2354
F316.90909090909093
aF271.09090909090907
aa(lp2355
F316.1818181818182
aF271.8181818181818
aa(lp2356
F315.45454545454544
aF272.54545454545456
aa(lp2357
F314.72727272727275
aF273.27272727272725
aa(lp2358
F314.0
aF274.0
aa(lp2359
F313.2142857142857
aF274.64285714285717
aa(lp2360
F312.42857142857144
aF275.2857142857143
aa(lp2361
F311.64285714285717
aF275.92857142857144
aa(lp2362
F310.85714285714283
aF276.57142857142856
aa(lp2363
F310.07142857142856
aF277.2142857142857
aa(lp2364
F309.2857142857143
aF277.85714285714283
aa(lp2365
F308.5
aF278.5
aa(lp2366
F307.7142857142857
aF279.14285714285717
aa(lp2367
F306.92857142857144
aF279.7857142857143
aa(lp2368
F306.14285714285717
aF280.42857142857144
aa(lp2369
F305.35714285714283
aF281.07142857142856
aa(lp2370
F304.57142857142856
aF281.7142857142857
aa(lp2371
F303.7857142857143
aF282.35714285714283
aa(lp2372
F303.0
aF283.0
aa(lp2373
F302.1111111111111
aF283.55555555555554
aa(lp2374
F301.22222222222223
aF284.1111111111111
aa(lp2375
F300.3333333333333
aF284.6666666666667
aa(lp2376
F299.44444444444446
aF285.22222222222223
aa(lp2377
F298.55555555555554
aF285.77777777777777
aa(lp2378
F297.6666666666667
aF286.3333333333333
aa(lp2379
F296.77777777777777
aF286.8888888888889
aa(lp2380
F295.8888888888889
aF287.44444444444446
aa(lp2381
F295.0
aF288.0
aa(lp2382
F294.375
aF288.75
aa(lp2383
F293.75
aF289.5
aa(lp2384
F293.125
aF290.25
aa(lp2385
F292.5
aF291.0
aa(lp2386
F291.875
aF291.75
aa(lp2387
F291.25
aF292.5
aa(lp2388
F290.625
aF293.25
aa(lp2389
F290.0
aF294.0
aa(lp2390
F289.1666666666667
aF294.6666666666667
aa(lp2391
F288.3333333333333
aF295.3333333333333
aa(lp2392
F287.5
aF296.0
aa(lp2393
F286.6666666666667
aF296.6666666666667
aa(lp2394
F285.8333333333333
aF297.3333333333333
aa(lp2395
F285.0
aF298.0
aa(lp2396
F284.4
aF298.8
aa(lp2397
F283.8
aF299.6
aa(lp2398
F283.2
aF300.4
aa(lp2399
F282.6
aF301.2
aa(lp2400
F282.0
aF302.0
aa(lp2401
F281.25
aF302.75
aa(lp2402
F280.5
aF303.5
aa(lp2403
F279.75
aF304.25
aa(lp2404
F279.0
aF305.0
aa(lp2405
F278.25
aF305.5
aa(lp2406
F277.5
aF306.0
aa(lp2407
F276.75
aF306.5
aa(lp2408
F276.0
aF307.0
aa(lp2409
F275.4
aF307.8
aa(lp2410
F274.8
aF308.6
aa(lp2411
F274.2
aF309.4
aa(lp2412
F273.6
aF310.2
aa(lp2413
F273.0
aF311.0
aa(lp2414
F272.2
aF311.6
aa(lp2415
F271.4
aF312.2
aa(lp2416
F270.6
aF312.8
aa(lp2417
F269.8
aF313.4
aa(lp2418
F269.0
aF314.0
aa(lp2419
F268.25
aF314.75
aa(lp2420
F267.5
aF315.5
aa(lp2421
F266.75
aF316.25
aa(lp2422
F266.0
aF317.0
aa(lp2423
F265.5
aF317.8333333333333
aa(lp2424
F265.0
aF318.6666666666667
aa(lp2425
F264.5
aF319.5
aa(lp2426
F264.0
aF320.3333333333333
aa(lp2427
F263.5
aF321.1666666666667
aa(lp2428
F263.0
aF322.0
aa(lp2429
F262.5
aF322.75
aa(lp2430
F262.0
aF323.5
aa(lp2431
F261.5
aF324.25
aa(lp2432
F261.0
aF325.0
aa(lp2433
F260.5
aF326.0
aa(lp2434
F260.0
aF327.0
aa(lp2435
F259.5
aF328.0
aa(lp2436
F259.0
aF329.0
aa(lp2437
F258.5
aF329.75
aa(lp2438
F258.0
aF330.5
aa(lp2439
F257.5
aF331.25
aa(lp2440
F257.0
aF332.0
aa(lp2441
F256.5
aF333.0
aa(lp2442
F256.0
aF334.0
aa(lp2443
F255.66666666666666
aF335.0
aa(lp2444
F255.33333333333334
aF336.0
aa(lp2445
F255.0
aF337.0
aa(lp2446
F254.75
aF338.0
aa(lp2447
F254.5
aF339.0
aa(lp2448
F254.25
aF340.0
aa(lp2449
F254.0
aF341.0
aa(lp2450
F253.5
aF341.75
aa(lp2451
F253.0
aF342.5
aa(lp2452
F252.5
aF343.25
aa(lp2453
F252.0
aF344.0
aa(lp2454
F251.5
aF345.0
aa(lp2455
F251.0
aF346.0
aa(lp2456
F250.5
aF347.0
aa(lp2457
F250.0
aF348.0
aa(lp2458
F249.66666666666666
aF349.0
aa(lp2459
F249.33333333333334
aF350.0
aa(lp2460
F249.0
aF351.0
aa(lp2461
F248.6
aF352.0
aa(lp2462
F248.2
aF353.0
aa(lp2463
F247.8
aF354.0
aa(lp2464
F247.4
aF355.0
aa(lp2465
F247.0
aF356.0
aa(lp2466
F246.66666666666666
aF357.0
aa(lp2467
F246.33333333333334
aF358.0
aa(lp2468
F246.0
aF359.0
aa(lp2469
F245.66666666666666
aF360.0
aa(lp2470
F245.33333333333334
aF361.0
aa(lp2471
F245.0
aF362.0
aa(lp2472
F244.75
aF363.0
aa(lp2473
F244.5
aF364.0
aa(lp2474
F244.25
aF365.0
aa(lp2475
F244.0
aF366.0
aa(lp2476
F243.5
aF367.0
aa(lp2477
F243.0
aF368.0
aa(lp2478
F242.66666666666666
aF369.0
aa(lp2479
F242.33333333333334
aF370.0
aa(lp2480
F242.0
aF371.0
aa(lp2481
F241.66666666666666
aF372.0
aa(lp2482
F241.33333333333334
aF373.0
aa(lp2483
F241.0
aF374.0
aa(lp2484
F240.66666666666666
aF375.0
aa(lp2485
F240.33333333333334
aF376.0
aa(lp2486
F240.0
aF377.0
aa(lp2487
F239.5
aF377.75
aa(lp2488
F239.0
aF378.5
aa(lp2489
F238.5
aF379.25
aa(lp2490
F238.0
aF380.0
aa(lp2491
F237.5
aF381.0
aa(lp2492
F237.0
aF382.0
aa(lp2493
F236.25
aF382.75
aa(lp2494
F235.5
aF383.5
aa(lp2495
F234.75
aF384.25
aa(lp2496
F234.0
aF385.0
aa(lp2497
F233.0
aF386.0
aa(lp2498
F232.5
aF387.0
aa(lp2499
F232.0
aF388.0
aa(lp2500
F231.66666666666666
aF389.0
aa(lp2501
F231.33333333333334
aF390.0
aa(lp2502
F231.0
aF391.0
aa(lp2503
F230.5
aF392.0
aa(lp2504
F230.0
aF393.0
aa(lp2505
F229.5
aF394.0
aasg231
I12
sg232
F0.3
sasg451
I4
sg452
g453
(g454
(I0
tp2506
g456
tp2507
Rp2508
(I1
(I46
I2
tp2509
g463
I00
S'\x00\x00\x00\x00\x01\x00\x00\x00\x01\x00\x00\x00\x01\x00\x00\x00\x02\x00\x00\x00\x01\x00\x00\x00\x03\x00\x00\x00\x01\x00\x00\x00\x04\x00\x00\x00\x01\x00\x00\x00\x05\x00\x00\x00\x01\x00\x00\x00\x06\x00\x00\x00\x01\x00\x00\x00\x07\x00\x00\x00\x01\x00\x00\x00\x08\x00\x00\x00\x01\x00\x00\x00\x08\x00\x00\x00\x02\x00\x00\x00\x08\x00\x00\x00\x03\x00\x00\x00\x08\x00\x00\x00\x05\x00\x00\x00\x08\x00\x00\x00\x04\x00\x00\x00\x07\x00\x00\x00\x05\x00\x00\x00\x05\x00\x00\x00\x05\x00\x00\x00\x05\x00\x00\x00\x05\x00\x00\x00\x04\x00\x00\x00\x05\x00\x00\x00\x06\x00\x00\x00\x05\x00\x00\x00\x03\x00\x00\x00\x05\x00\x00\x00\x02\x00\x00\x00\x05\x00\x00\x00\x01\x00\x00\x00\x05\x00\x00\x00\x00\x00\x00\x00\x05\x00\x00\x00\x00\x00\x00\x00\x04\x00\x00\x00\x01\x00\x00\x00\x04\x00\x00\x00\x02\x00\x00\x00\x04\x00\x00\x00\x03\x00\x00\x00\x04\x00\x00\x00\x04\x00\x00\x00\x04\x00\x00\x00\x05\x00\x00\x00\x04\x00\x00\x00\x06\x00\x00\x00\x04\x00\x00\x00\x07\x00\x00\x00\x04\x00\x00\x00\x07\x00\x00\x00\x03\x00\x00\x00\x06\x00\x00\x00\x03\x00\x00\x00\x05\x00\x00\x00\x03\x00\x00\x00\x04\x00\x00\x00\x03\x00\x00\x00\x03\x00\x00\x00\x03\x00\x00\x00\x02\x00\x00\x00\x03\x00\x00\x00\x01\x00\x00\x00\x03\x00\x00\x00\x00\x00\x00\x00\x03\x00\x00\x00\x00\x00\x00\x00\x02\x00\x00\x00\x01\x00\x00\x00\x02\x00\x00\x00\x02\x00\x00\x00\x02\x00\x00\x00\x03\x00\x00\x00\x02\x00\x00\x00\x04\x00\x00\x00\x02\x00\x00\x00\x05\x00\x00\x00\x02\x00\x00\x00\x06\x00\x00\x00\x02\x00\x00\x00\x07\x00\x00\x00\x02\x00\x00\x00'
p2510
tp2511
bsg468
g469
sg470
g471
sg472
Nsg473
g474
(I313
I176
I60
I96
tp2512
Rp2513
sbag1
(g2
g3
Ntp2514
Rp2515
(dp2516
g7
(lp2517
(dp2518
g10
I3
sg11
(lp2519
(lp2520
F799.0
aF535.0
aa(lp2521
F798.5
aF534.1666666666666
aa(lp2522
F798.0
aF533.3333333333334
aa(lp2523
F797.5
aF532.5
aa(lp2524
F797.0
aF531.6666666666666
aa(lp2525
F796.5
aF530.8333333333334
aa(lp2526
F796.0
aF530.0
aa(lp2527
F795.3125
aF529.25
aa(lp2528
F794.625
aF528.5
aa(lp2529
F793.9375
aF527.75
aa(lp2530
F793.25
aF527.0
aa(lp2531
F792.5625
aF526.25
aa(lp2532
F791.875
aF525.5
aa(lp2533
F791.1875
aF524.75
aa(lp2534
F790.5
aF524.0
aa(lp2535
F789.8125
aF523.25
aa(lp2536
F789.125
aF522.5
aa(lp2537
F788.4375
aF521.75
aa(lp2538
F787.75
aF521.0
aa(lp2539
F787.0625
aF520.25
aa(lp2540
F786.375
aF519.5
aa(lp2541
F785.6875
aF518.75
aa(lp2542
F785.0
aF518.0
aa(lp2543
F784.25
aF517.3125
aa(lp2544
F783.5
aF516.625
aa(lp2545
F782.75
aF515.9375
aa(lp2546
F782.0
aF515.25
aa(lp2547
F781.25
aF514.5625
aa(lp2548
F780.5
aF513.875
aa(lp2549
F779.75
aF513.1875
aa(lp2550
F779.0
aF512.5
aa(lp2551
F778.25
aF511.8125
aa(lp2552
F777.5
aF511.125
aa(lp2553
F776.75
aF510.4375
aa(lp2554
F776.0
aF509.75
aa(lp2555
F775.25
aF509.0625
aa(lp2556
F774.5
aF508.375
aa(lp2557
F773.75
aF507.6875
aa(lp2558
F773.0
aF507.0
aa(lp2559
F772.25
aF506.25
aa(lp2560
F771.5
aF505.5
aa(lp2561
F770.75
aF504.75
aa(lp2562
F770.0
aF504.0
aa(lp2563
F769.25
aF503.25
aa(lp2564
F768.5
aF502.5
aa(lp2565
F767.75
aF501.75
aa(lp2566
F767.0
aF501.0
aa(lp2567
F766.3076923076923
aF500.3076923076923
aa(lp2568
F765.6153846153846
aF499.61538461538464
aa(lp2569
F764.9230769230769
aF498.9230769230769
aa(lp2570
F764.2307692307693
aF498.2307692307692
aa(lp2571
F763.5384615384615
aF497.53846153846155
aa(lp2572
F762.8461538461538
aF496.84615384615387
aa(lp2573
F762.1538461538462
aF496.15384615384613
aa(lp2574
F761.4615384615385
aF495.46153846153845
aa(lp2575
F760.7692307692307
aF494.7692307692308
aa(lp2576
F760.0769230769231
aF494.0769230769231
aa(lp2577
F759.3846153846154
aF493.38461538461536
aa(lp2578
F758.6923076923077
aF492.6923076923077
aa(lp2579
F758.0
aF492.0
aa(lp2580
F757.3076923076923
aF491.2307692307692
aa(lp2581
F756.6153846153846
aF490.46153846153845
aa(lp2582
F755.9230769230769
aF489.6923076923077
aa(lp2583
F755.2307692307693
aF488.9230769230769
aa(lp2584
F754.5384615384615
aF488.15384615384613
aa(lp2585
F753.8461538461538
aF487.38461538461536
aa(lp2586
F753.1538461538462
aF486.61538461538464
aa(lp2587
F752.4615384615385
aF485.84615384615387
aa(lp2588
F751.7692307692307
aF485.0769230769231
aa(lp2589
F751.0769230769231
aF484.3076923076923
aa(lp2590
F750.3846153846154
aF483.53846153846155
aa(lp2591
F749.6923076923077
aF482.7692307692308
aa(lp2592
F749.0
aF482.0
aa(lp2593
F748.5555555555555
aF481.1111111111111
aa(lp2594
F748.1111111111111
aF480.22222222222223
aa(lp2595
F747.6666666666666
aF479.3333333333333
aa(lp2596
F747.2222222222222
aF478.44444444444446
aa(lp2597
F746.7777777777778
aF477.55555555555554
aa(lp2598
F746.3333333333334
aF476.6666666666667
aa(lp2599
F745.8888888888889
aF475.77777777777777
aa(lp2600
F745.4444444444445
aF474.8888888888889
aa(lp2601
F745.0
aF474.0
aa(lp2602
F744.3076923076923
aF473.3076923076923
aa(lp2603
F743.6153846153846
aF472.61538461538464
aa(lp2604
F742.9230769230769
aF471.9230769230769
aa(lp2605
F742.2307692307693
aF471.2307692307692
aa(lp2606
F741.5384615384615
aF470.53846153846155
aa(lp2607
F740.8461538461538
aF469.84615384615387
aa(lp2608
F740.1538461538462
aF469.15384615384613
aa(lp2609
F739.4615384615385
aF468.46153846153845
aa(lp2610
F738.7692307692307
aF467.7692307692308
aa(lp2611
F738.0769230769231
aF467.0769230769231
aa(lp2612
F737.3846153846154
aF466.38461538461536
aa(lp2613
F736.6923076923077
aF465.6923076923077
aa(lp2614
F736.0
aF465.0
aa(lp2615
F735.375
aF464.25
aa(lp2616
F734.75
aF463.5
aa(lp2617
F734.125
aF462.75
aa(lp2618
F733.5
aF462.0
aa(lp2619
F732.875
aF461.25
aa(lp2620
F732.25
aF460.5
aa(lp2621
F731.625
aF459.75
aa(lp2622
F731.0
aF459.0
aa(lp2623
F730.4285714285714
aF458.14285714285717
aa(lp2624
F729.8571428571429
aF457.2857142857143
aa(lp2625
F729.2857142857143
aF456.42857142857144
aa(lp2626
F728.7142857142857
aF455.57142857142856
aa(lp2627
F728.1428571428571
aF454.7142857142857
aa(lp2628
F727.5714285714286
aF453.85714285714283
aa(lp2629
F727.0
aF453.0
aa(lp2630
F726.5714285714286
aF452.14285714285717
aa(lp2631
F726.1428571428571
aF451.2857142857143
aa(lp2632
F725.7142857142857
aF450.42857142857144
aa(lp2633
F725.2857142857143
aF449.57142857142856
aa(lp2634
F724.8571428571429
aF448.7142857142857
aa(lp2635
F724.4285714285714
aF447.85714285714283
aa(lp2636
F724.0
aF447.0
aa(lp2637
F723.375
aF446.25
aa(lp2638
F722.75
aF445.5
aa(lp2639
F722.125
aF444.75
aa(lp2640
F721.5
aF444.0
aa(lp2641
F720.875
aF443.25
aa(lp2642
F720.25
aF442.5
aa(lp2643
F719.625
aF441.75
aa(lp2644
F719.0
aF441.0
aa(lp2645
F718.4
aF440.2
aa(lp2646
F717.8
aF439.4
aa(lp2647
F717.2
aF438.6
aa(lp2648
F716.6
aF437.8
aa(lp2649
F716.0
aF437.0
aa(lp2650
F715.625
aF436.125
aa(lp2651
F715.25
aF435.25
aa(lp2652
F714.875
aF434.375
aa(lp2653
F714.5
aF433.5
aa(lp2654
F714.125
aF432.625
aa(lp2655
F713.75
aF431.75
aa(lp2656
F713.375
aF430.875
aa(lp2657
F713.0
aF430.0
aa(lp2658
F712.5
aF429.0
aa(lp2659
F712.0
aF428.0
aa(lp2660
F711.5
aF427.0
aa(lp2661
F711.0
aF426.0
aa(lp2662
F710.75
aF425.0
aa(lp2663
F710.5
aF424.0
aa(lp2664
F710.25
aF423.0
aa(lp2665
F710.0
aF422.0
aa(lp2666
F709.4
aF421.2
aa(lp2667
F708.8
aF420.4
aa(lp2668
F708.2
aF419.6
aa(lp2669
F707.6
aF418.8
aa(lp2670
F707.0
aF418.0
aa(lp2671
F707.0
aF417.0
aa(lp2672
F707.0
aF416.0
aa(lp2673
F707.0
aF415.0
aa(lp2674
F706.3333333333334
aF414.3333333333333
aa(lp2675
F705.6666666666666
aF413.6666666666667
aa(lp2676
F705.0
aF413.0
aa(lp2677
F704.3333333333334
aF412.3333333333333
aa(lp2678
F703.6666666666666
aF411.6666666666667
aa(lp2679
F703.0
aF411.0
aa(lp2680
F702.6
aF410.0
aa(lp2681
F702.2
aF409.0
aa(lp2682
F701.8
aF408.0
aa(lp2683
F701.4
aF407.0
aa(lp2684
F701.0
aF406.0
aa(lp2685
F700.5
aF405.0
aa(lp2686
F700.0
aF404.0
aa(lp2687
F699.6666666666666
aF403.0
aa(lp2688
F699.3333333333334
aF402.0
aa(lp2689
F699.0
aF401.0
aa(lp2690
F698.6
aF400.0
aa(lp2691
F698.2
aF399.0
aa(lp2692
F697.8
aF398.0
aa(lp2693
F697.4
aF397.0
aa(lp2694
F697.0
aF396.0
aa(lp2695
F697.0
aF395.0
aa(lp2696
F697.0
aF394.0
aa(lp2697
F696.6666666666666
aF393.0
aa(lp2698
F696.3333333333334
aF392.0
aa(lp2699
F696.0
aF391.0
aa(lp2700
F695.5
aF390.25
aa(lp2701
F695.0
aF389.5
aa(lp2702
F694.5
aF388.75
aa(lp2703
F694.0
aF388.0
aa(lp2704
F694.0
aF387.0
aa(lp2705
F694.0
aF386.0
aa(lp2706
F694.0
aF385.0
aa(lp2707
F694.0
aF384.0
aasg231
I10
sg232
F0.3
sa(dp2708
g10
I3
sg11
(lp2709
(lp2710
F808.0
aF536.0
aa(lp2711
F809.0
aF535.0
aa(lp2712
F809.6
aF534.2
aa(lp2713
F810.2
aF533.4
aa(lp2714
F810.8
aF532.6
aa(lp2715
F811.4
aF531.8
aa(lp2716
F812.0
aF531.0
aa(lp2717
F812.6
aF530.2
aa(lp2718
F813.2
aF529.4
aa(lp2719
F813.8
aF528.6
aa(lp2720
F814.4
aF527.8
aa(lp2721
F815.0
aF527.0
aa(lp2722
F815.6923076923077
aF526.2307692307693
aa(lp2723
F816.3846153846154
aF525.4615384615385
aa(lp2724
F817.0769230769231
aF524.6923076923077
aa(lp2725
F817.7692307692307
aF523.9230769230769
aa(lp2726
F818.4615384615385
aF523.1538461538462
aa(lp2727
F819.1538461538462
aF522.3846153846154
aa(lp2728
F819.8461538461538
aF521.6153846153846
aa(lp2729
F820.5384615384615
aF520.8461538461538
aa(lp2730
F821.2307692307693
aF520.0769230769231
aa(lp2731
F821.9230769230769
aF519.3076923076923
aa(lp2732
F822.6153846153846
aF518.5384615384615
aa(lp2733
F823.3076923076923
aF517.7692307692307
aa(lp2734
F824.0
aF517.0
aa(lp2735
F824.6923076923077
aF516.2307692307693
aa(lp2736
F825.3846153846154
aF515.4615384615385
aa(lp2737
F826.0769230769231
aF514.6923076923077
aa(lp2738
F826.7692307692307
aF513.9230769230769
aa(lp2739
F827.4615384615385
aF513.1538461538462
aa(lp2740
F828.1538461538462
aF512.3846153846154
aa(lp2741
F828.8461538461538
aF511.61538461538464
aa(lp2742
F829.5384615384615
aF510.84615384615387
aa(lp2743
F830.2307692307693
aF510.0769230769231
aa(lp2744
F830.9230769230769
aF509.3076923076923
aa(lp2745
F831.6153846153846
aF508.53846153846155
aa(lp2746
F832.3076923076923
aF507.7692307692308
aa(lp2747
F833.0
aF507.0
aa(lp2748
F833.2
aF506.0
aa(lp2749
F833.4
aF505.0
aa(lp2750
F833.6
aF504.0
aa(lp2751
F833.8
aF503.0
aa(lp2752
F834.0
aF502.0
aa(lp2753
F834.6923076923077
aF501.3076923076923
aa(lp2754
F835.3846153846154
aF500.61538461538464
aa(lp2755
F836.0769230769231
aF499.9230769230769
aa(lp2756
F836.7692307692307
aF499.2307692307692
aa(lp2757
F837.4615384615385
aF498.53846153846155
aa(lp2758
F838.1538461538462
aF497.84615384615387
aa(lp2759
F838.8461538461538
aF497.15384615384613
aa(lp2760
F839.5384615384615
aF496.46153846153845
aa(lp2761
F840.2307692307693
aF495.7692307692308
aa(lp2762
F840.9230769230769
aF495.0769230769231
aa(lp2763
F841.6153846153846
aF494.38461538461536
aa(lp2764
F842.3076923076923
aF493.6923076923077
aa(lp2765
F843.0
aF493.0
aa(lp2766
F843.5454545454545
aF492.1818181818182
aa(lp2767
F844.0909090909091
aF491.3636363636364
aa(lp2768
F844.6363636363636
aF490.54545454545456
aa(lp2769
F845.1818181818181
aF489.72727272727275
aa(lp2770
F845.7272727272727
aF488.90909090909093
aa(lp2771
F846.2727272727273
aF488.09090909090907
aa(lp2772
F846.8181818181819
aF487.27272727272725
aa(lp2773
F847.3636363636364
aF486.45454545454544
aa(lp2774
F847.9090909090909
aF485.6363636363636
aa(lp2775
F848.4545454545455
aF484.8181818181818
aa(lp2776
F849.0
aF484.0
aa(lp2777
F849.5
aF483.1666666666667
aa(lp2778
F850.0
aF482.3333333333333
aa(lp2779
F850.5
aF481.5
aa(lp2780
F851.0
aF480.6666666666667
aa(lp2781
F851.5
aF479.8333333333333
aa(lp2782
F852.0
aF479.0
aa(lp2783
F852.5
aF478.1666666666667
aa(lp2784
F853.0
aF477.3333333333333
aa(lp2785
F853.5
aF476.5
aa(lp2786
F854.0
aF475.6666666666667
aa(lp2787
F854.5
aF474.8333333333333
aa(lp2788
F855.0
aF474.0
aa(lp2789
F855.5555555555555
aF473.22222222222223
aa(lp2790
F856.1111111111111
aF472.44444444444446
aa(lp2791
F856.6666666666666
aF471.6666666666667
aa(lp2792
F857.2222222222222
aF470.8888888888889
aa(lp2793
F857.7777777777778
aF470.1111111111111
aa(lp2794
F858.3333333333334
aF469.3333333333333
aa(lp2795
F858.8888888888889
aF468.55555555555554
aa(lp2796
F859.4444444444445
aF467.77777777777777
aa(lp2797
F860.0
aF467.0
aa(lp2798
F860.5
aF466.1666666666667
aa(lp2799
F861.0
aF465.3333333333333
aa(lp2800
F861.5
aF464.5
aa(lp2801
F862.0
aF463.6666666666667
aa(lp2802
F862.5
aF462.8333333333333
aa(lp2803
F863.0
aF462.0
aa(lp2804
F863.5
aF461.1666666666667
aa(lp2805
F864.0
aF460.3333333333333
aa(lp2806
F864.5
aF459.5
aa(lp2807
F865.0
aF458.6666666666667
aa(lp2808
F865.5
aF457.8333333333333
aa(lp2809
F866.0
aF457.0
aa(lp2810
F866.375
aF456.125
aa(lp2811
F866.75
aF455.25
aa(lp2812
F867.125
aF454.375
aa(lp2813
F867.5
aF453.5
aa(lp2814
F867.875
aF452.625
aa(lp2815
F868.25
aF451.75
aa(lp2816
F868.625
aF450.875
aa(lp2817
F869.0
aF450.0
aa(lp2818
F869.6
aF449.2
aa(lp2819
F870.2
aF448.4
aa(lp2820
F870.8
aF447.6
aa(lp2821
F871.4
aF446.8
aa(lp2822
F872.0
aF446.0
aa(lp2823
F872.625
aF445.25
aa(lp2824
F873.25
aF444.5
aa(lp2825
F873.875
aF443.75
aa(lp2826
F874.5
aF443.0
aa(lp2827
F875.125
aF442.25
aa(lp2828
F875.75
aF441.5
aa(lp2829
F876.375
aF440.75
aa(lp2830
F877.0
aF440.0
aa(lp2831
F877.5
aF439.25
aa(lp2832
F878.0
aF438.5
aa(lp2833
F878.5
aF437.75
aa(lp2834
F879.0
aF437.0
aa(lp2835
F879.4
aF436.0
aa(lp2836
F879.8
aF435.0
aa(lp2837
F880.2
aF434.0
aa(lp2838
F880.6
aF433.0
aa(lp2839
F881.0
aF432.0
aa(lp2840
F881.3333333333334
aF431.0
aa(lp2841
F881.6666666666666
aF430.0
aa(lp2842
F882.0
aF429.0
aa(lp2843
F882.4
aF428.0
aa(lp2844
F882.8
aF427.0
aa(lp2845
F883.2
aF426.0
aa(lp2846
F883.6
aF425.0
aa(lp2847
F884.0
aF424.0
aa(lp2848
F884.3333333333334
aF423.0
aa(lp2849
F884.6666666666666
aF422.0
aa(lp2850
F885.0
aF421.0
aa(lp2851
F885.5
aF420.25
aa(lp2852
F886.0
aF419.5
aa(lp2853
F886.5
aF418.75
aa(lp2854
F887.0
aF418.0
aa(lp2855
F887.5
aF417.0
aa(lp2856
F888.0
aF416.0
aa(lp2857
F888.5
aF415.0
aa(lp2858
F889.0
aF414.0
aa(lp2859
F889.5
aF413.0
aa(lp2860
F890.0
aF412.0
aa(lp2861
F890.6666666666666
aF411.3333333333333
aa(lp2862
F891.3333333333334
aF410.6666666666667
aa(lp2863
F892.0
aF410.0
aa(lp2864
F892.6666666666666
aF409.3333333333333
aa(lp2865
F893.3333333333334
aF408.6666666666667
aa(lp2866
F894.0
aF408.0
aa(lp2867
F894.6
aF407.2
aa(lp2868
F895.2
aF406.4
aa(lp2869
F895.8
aF405.6
aa(lp2870
F896.4
aF404.8
aa(lp2871
F897.0
aF404.0
aa(lp2872
F897.5
aF403.0
aa(lp2873
F898.0
aF402.0
aa(lp2874
F898.5
aF401.0
aa(lp2875
F899.0
aF400.0
aa(lp2876
F900.0
aF399.0
aa(lp2877
F900.6
aF398.2
aa(lp2878
F901.2
aF397.4
aa(lp2879
F901.8
aF396.6
aa(lp2880
F902.4
aF395.8
aa(lp2881
F903.0
aF395.0
aa(lp2882
F903.5
aF394.25
aa(lp2883
F904.0
aF393.5
aa(lp2884
F904.5
aF392.75
aa(lp2885
F905.0
aF392.0
aa(lp2886
F905.5
aF391.0
aa(lp2887
F906.0
aF390.0
aa(lp2888
F906.6
aF389.2
aa(lp2889
F907.2
aF388.4
aa(lp2890
F907.8
aF387.6
aa(lp2891
F908.4
aF386.8
aa(lp2892
F909.0
aF386.0
aa(lp2893
F909.5
aF385.0
aa(lp2894
F910.0
aF384.0
aa(lp2895
F911.0
aF383.0
aasg231
I13
sg232
F0.3
sasg451
I3
sg452
g453
(g454
(I0
tp2896
g456
tp2897
Rp2898
(I1
(I45
I2
tp2899
g463
I00
S'\x1f\x00\x00\x00\x11\x00\x00\x00\x1f\x00\x00\x00\x12\x00\x00\x00\x1f\x00\x00\x00\x13\x00\x00\x00\x1f\x00\x00\x00\x14\x00\x00\x00\x1f\x00\x00\x00\x15\x00\x00\x00\x1e\x00\x00\x00\x15\x00\x00\x00\x1d\x00\x00\x00\x15\x00\x00\x00\x1c\x00\x00\x00\x15\x00\x00\x00\x1b\x00\x00\x00\x15\x00\x00\x00\x1a\x00\x00\x00\x15\x00\x00\x00\x19\x00\x00\x00\x15\x00\x00\x00\x18\x00\x00\x00\x15\x00\x00\x00\x17\x00\x00\x00\x15\x00\x00\x00\x17\x00\x00\x00\x14\x00\x00\x00\x17\x00\x00\x00\x13\x00\x00\x00\x17\x00\x00\x00\x12\x00\x00\x00\x17\x00\x00\x00\x11\x00\x00\x00\x18\x00\x00\x00\x11\x00\x00\x00\x19\x00\x00\x00\x11\x00\x00\x00\x1a\x00\x00\x00\x11\x00\x00\x00\x1b\x00\x00\x00\x11\x00\x00\x00\x1c\x00\x00\x00\x11\x00\x00\x00\x1d\x00\x00\x00\x11\x00\x00\x00\x1e\x00\x00\x00\x11\x00\x00\x00\x1e\x00\x00\x00\x12\x00\x00\x00\x1d\x00\x00\x00\x12\x00\x00\x00\x1d\x00\x00\x00\x13\x00\x00\x00\x1d\x00\x00\x00\x14\x00\x00\x00\x1e\x00\x00\x00\x14\x00\x00\x00\x1e\x00\x00\x00\x13\x00\x00\x00\x1c\x00\x00\x00\x12\x00\x00\x00\x1c\x00\x00\x00\x13\x00\x00\x00\x1c\x00\x00\x00\x14\x00\x00\x00\x1b\x00\x00\x00\x14\x00\x00\x00\x1a\x00\x00\x00\x14\x00\x00\x00\x19\x00\x00\x00\x14\x00\x00\x00\x18\x00\x00\x00\x14\x00\x00\x00\x18\x00\x00\x00\x13\x00\x00\x00\x19\x00\x00\x00\x13\x00\x00\x00\x1a\x00\x00\x00\x13\x00\x00\x00\x1b\x00\x00\x00\x13\x00\x00\x00\x1b\x00\x00\x00\x12\x00\x00\x00\x1a\x00\x00\x00\x12\x00\x00\x00\x19\x00\x00\x00\x12\x00\x00\x00\x18\x00\x00\x00\x12\x00\x00\x00'
p2900
tp2901
bsg468
g469
sg470
g471
sg472
Nsg473
g474
(I778
I481
I60
I96
tp2902
Rp2903
sbag1
(g2
g3
Ntp2904
Rp2905
(dp2906
g7
(lp2907
(dp2908
g10
I2
sg11
(lp2909
(lp2910
F805.0
aF394.0
aa(lp2911
F806.0
aF394.5
aa(lp2912
F807.0
aF395.0
aa(lp2913
F807.5
aF396.0
aa(lp2914
F808.0
aF397.0
aa(lp2915
F808.0
aF398.0
aa(lp2916
F808.6
aF398.8
aa(lp2917
F809.2
aF399.6
aa(lp2918
F809.8
aF400.4
aa(lp2919
F810.4
aF401.2
aa(lp2920
F811.0
aF402.0
aa(lp2921
F811.25
aF403.0
aa(lp2922
F811.5
aF404.0
aa(lp2923
F811.75
aF405.0
aa(lp2924
F812.0
aF406.0
aa(lp2925
F812.4
aF407.0
aa(lp2926
F812.8
aF408.0
aa(lp2927
F813.2
aF409.0
aa(lp2928
F813.6
aF410.0
aa(lp2929
F814.0
aF411.0
aa(lp2930
F814.3333333333334
aF411.8888888888889
aa(lp2931
F814.6666666666666
aF412.77777777777777
aa(lp2932
F815.0
aF413.6666666666667
aa(lp2933
F815.3333333333334
aF414.55555555555554
aa(lp2934
F815.6666666666666
aF415.44444444444446
aa(lp2935
F816.0
aF416.3333333333333
aa(lp2936
F816.3333333333334
aF417.22222222222223
aa(lp2937
F816.6666666666666
aF418.1111111111111
aa(lp2938
F817.0
aF419.0
aa(lp2939
F817.3333333333334
aF419.8888888888889
aa(lp2940
F817.6666666666666
aF420.77777777777777
aa(lp2941
F818.0
aF421.6666666666667
aa(lp2942
F818.3333333333334
aF422.55555555555554
aa(lp2943
F818.6666666666666
aF423.44444444444446
aa(lp2944
F819.0
aF424.3333333333333
aa(lp2945
F819.3333333333334
aF425.22222222222223
aa(lp2946
F819.6666666666666
aF426.1111111111111
aa(lp2947
F820.0
aF427.0
aa(lp2948
F820.5
aF428.0
aa(lp2949
F821.0
aF429.0
aa(lp2950
F821.5
aF430.0
aa(lp2951
F822.0
aF431.0
aa(lp2952
F822.5555555555555
aF431.77777777777777
aa(lp2953
F823.1111111111111
aF432.55555555555554
aa(lp2954
F823.6666666666666
aF433.3333333333333
aa(lp2955
F824.2222222222222
aF434.1111111111111
aa(lp2956
F824.7777777777778
aF434.8888888888889
aa(lp2957
F825.3333333333334
aF435.6666666666667
aa(lp2958
F825.8888888888889
aF436.44444444444446
aa(lp2959
F826.4444444444445
aF437.22222222222223
aa(lp2960
F827.0
aF438.0
aa(lp2961
F827.5714285714286
aF438.85714285714283
aa(lp2962
F828.1428571428571
aF439.7142857142857
aa(lp2963
F828.7142857142857
aF440.57142857142856
aa(lp2964
F829.2857142857143
aF441.42857142857144
aa(lp2965
F829.8571428571429
aF442.2857142857143
aa(lp2966
F830.4285714285714
aF443.14285714285717
aa(lp2967
F831.0
aF444.0
aa(lp2968
F831.6666666666666
aF444.8333333333333
aa(lp2969
F832.3333333333334
aF445.6666666666667
aa(lp2970
F833.0
aF446.5
aa(lp2971
F833.6666666666666
aF447.3333333333333
aa(lp2972
F834.3333333333334
aF448.1666666666667
aa(lp2973
F835.0
aF449.0
aa(lp2974
F835.5
aF449.8333333333333
aa(lp2975
F836.0
aF450.6666666666667
aa(lp2976
F836.5
aF451.5
aa(lp2977
F837.0
aF452.3333333333333
aa(lp2978
F837.5
aF453.1666666666667
aa(lp2979
F838.0
aF454.0
aa(lp2980
F838.8333333333334
aF454.6666666666667
aa(lp2981
F839.6666666666666
aF455.3333333333333
aa(lp2982
F840.5
aF456.0
aa(lp2983
F841.3333333333334
aF456.6666666666667
aa(lp2984
F842.1666666666666
aF457.3333333333333
aa(lp2985
F843.0
aF458.0
aa(lp2986
F843.6666666666666
aF458.8333333333333
aa(lp2987
F844.3333333333334
aF459.6666666666667
aa(lp2988
F845.0
aF460.5
aa(lp2989
F845.6666666666666
aF461.3333333333333
aa(lp2990
F846.3333333333334
aF462.1666666666667
aa(lp2991
F847.0
aF463.0
aa(lp2992
F847.6666666666666
aF463.6666666666667
aa(lp2993
F848.3333333333334
aF464.3333333333333
aa(lp2994
F849.0
aF465.0
aa(lp2995
F849.6666666666666
aF465.6666666666667
aa(lp2996
F850.3333333333334
aF466.3333333333333
aa(lp2997
F851.0
aF467.0
aa(lp2998
F851.7142857142857
aF467.7142857142857
aa(lp2999
F852.4285714285714
aF468.42857142857144
aa(lp3000
F853.1428571428571
aF469.14285714285717
aa(lp3001
F853.8571428571429
aF469.85714285714283
aa(lp3002
F854.5714285714286
aF470.57142857142856
aa(lp3003
F855.2857142857143
aF471.2857142857143
aa(lp3004
F856.0
aF472.0
aa(lp3005
F856.8
aF472.6
aa(lp3006
F857.6
aF473.2
aa(lp3007
F858.4
aF473.8
aa(lp3008
F859.2
aF474.4
aa(lp3009
F860.0
aF475.0
aa(lp3010
F860.6666666666666
aF475.6666666666667
aa(lp3011
F861.3333333333334
aF476.3333333333333
aa(lp3012
F862.0
aF477.0
aa(lp3013
F862.6666666666666
aF477.6666666666667
aa(lp3014
F863.3333333333334
aF478.3333333333333
aa(lp3015
F864.0
aF479.0
aa(lp3016
F864.75
aF479.5
aa(lp3017
F865.5
aF480.0
aa(lp3018
F866.25
aF480.5
aa(lp3019
F867.0
aF481.0
aa(lp3020
F867.75
aF481.75
aa(lp3021
F868.5
aF482.5
aa(lp3022
F869.25
aF483.25
aa(lp3023
F870.0
aF484.0
aa(lp3024
F870.75
aF484.75
aa(lp3025
F871.5
aF485.5
aa(lp3026
F872.25
aF486.25
aa(lp3027
F873.0
aF487.0
aa(lp3028
F874.0
aF487.4
aa(lp3029
F875.0
aF487.8
aa(lp3030
F876.0
aF488.2
aa(lp3031
F877.0
aF488.6
aa(lp3032
F878.0
aF489.0
aa(lp3033
F878.8
aF489.6
aa(lp3034
F879.6
aF490.2
aa(lp3035
F880.4
aF490.8
aa(lp3036
F881.2
aF491.4
aa(lp3037
F882.0
aF492.0
aa(lp3038
F883.0
aF492.3333333333333
aa(lp3039
F884.0
aF492.6666666666667
aa(lp3040
F885.0
aF493.0
aa(lp3041
F886.0
aF493.5
aa(lp3042
F887.0
aF494.0
aa(lp3043
F887.6666666666666
aF494.6666666666667
aa(lp3044
F888.3333333333334
aF495.3333333333333
aa(lp3045
F889.0
aF496.0
aa(lp3046
F890.0
aF496.25
aa(lp3047
F891.0
aF496.5
aa(lp3048
F892.0
aF496.75
aa(lp3049
F893.0
aF497.0
aa(lp3050
F894.0
aF497.0
aa(lp3051
F895.0
aF497.0
aa(lp3052
F896.0
aF497.0
aa(lp3053
F897.0
aF497.0
aa(lp3054
F898.0
aF497.0
aa(lp3055
F899.0
aF497.0
aa(lp3056
F900.0
aF497.0
aa(lp3057
F901.0
aF497.0
aa(lp3058
F902.0
aF497.0
aa(lp3059
F903.0
aF496.75
aa(lp3060
F904.0
aF496.5
aa(lp3061
F905.0
aF496.25
aa(lp3062
F906.0
aF496.0
aa(lp3063
F906.8333333333334
aF495.3333333333333
aa(lp3064
F907.6666666666666
aF494.6666666666667
aa(lp3065
F908.5
aF494.0
aa(lp3066
F909.3333333333334
aF493.3333333333333
aa(lp3067
F910.1666666666666
aF492.6666666666667
aa(lp3068
F911.0
aF492.0
aa(lp3069
F911.75
aF491.25
aa(lp3070
F912.5
aF490.5
aa(lp3071
F913.25
aF489.75
aa(lp3072
F914.0
aF489.0
aa(lp3073
F914.5714285714286
aF488.14285714285717
aa(lp3074
F915.1428571428571
aF487.2857142857143
aa(lp3075
F915.7142857142857
aF486.42857142857144
aa(lp3076
F916.2857142857143
aF485.57142857142856
aa(lp3077
F916.8571428571429
aF484.7142857142857
aa(lp3078
F917.4285714285714
aF483.85714285714283
aa(lp3079
F918.0
aF483.0
aa(lp3080
F918.5
aF482.0
aa(lp3081
F919.0
aF481.0
aa(lp3082
F919.3333333333334
aF480.0
aa(lp3083
F919.6666666666666
aF479.0
aa(lp3084
F920.0
aF478.0
aa(lp3085
F920.3333333333334
aF477.0
aa(lp3086
F920.6666666666666
aF476.0
aa(lp3087
F921.0
aF475.0
aa(lp3088
F921.0
aF474.0
aa(lp3089
F921.0
aF473.0
aa(lp3090
F921.0
aF472.0
aa(lp3091
F921.0
aF471.0
aa(lp3092
F921.0
aF470.0
aa(lp3093
F921.0
aF469.0
aa(lp3094
F921.0
aF468.0
aa(lp3095
F921.0
aF467.0
aa(lp3096
F921.0
aF466.0
aa(lp3097
F921.0
aF465.0
aa(lp3098
F921.0
aF464.0
aa(lp3099
F921.0
aF463.0
aa(lp3100
F921.25
aF462.0
aa(lp3101
F921.5
aF461.0
aa(lp3102
F921.75
aF460.0
aa(lp3103
F922.0
aF459.0
aa(lp3104
F922.0
aF458.0
aa(lp3105
F922.0
aF457.0
aa(lp3106
F922.0
aF456.0
aa(lp3107
F922.0
aF455.0
aa(lp3108
F922.0
aF454.0
aa(lp3109
F922.0
aF453.0
aa(lp3110
F922.0
aF452.0
aa(lp3111
F922.0
aF451.0
aa(lp3112
F922.0
aF450.0
aa(lp3113
F922.0
aF449.0
aa(lp3114
F922.0
aF448.0
aa(lp3115
F922.0
aF447.0
aa(lp3116
F922.0
aF446.0
aa(lp3117
F922.0
aF445.0
aa(lp3118
F922.0
aF444.0
aa(lp3119
F922.0
aF443.0
aa(lp3120
F922.0
aF442.0
aa(lp3121
F922.0
aF441.0
aa(lp3122
F922.0
aF440.0
aa(lp3123
F922.0
aF439.0
aa(lp3124
F922.0
aF438.0
aa(lp3125
F922.0
aF437.0
aa(lp3126
F922.0
aF436.0
aa(lp3127
F922.0
aF435.0
aa(lp3128
F922.0
aF434.0
aa(lp3129
F922.0
aF433.0
aa(lp3130
F922.0
aF432.0
aa(lp3131
F922.0
aF431.0
aa(lp3132
F922.0
aF430.0
aa(lp3133
F922.0
aF429.0
aa(lp3134
F922.0
aF428.0
aa(lp3135
F922.0
aF427.0
aa(lp3136
F922.0
aF426.0
aa(lp3137
F922.0
aF425.0
aa(lp3138
F922.0
aF424.0
aa(lp3139
F922.0
aF423.0
aa(lp3140
F922.0
aF422.0
aa(lp3141
F922.0
aF421.0
aa(lp3142
F922.0
aF420.0
aa(lp3143
F922.0
aF419.0
aa(lp3144
F922.0
aF418.0
aa(lp3145
F922.0
aF417.0
aa(lp3146
F922.0
aF416.0
aa(lp3147
F922.0
aF415.0
aa(lp3148
F922.0
aF414.0
aa(lp3149
F922.0
aF413.0
aa(lp3150
F922.0
aF412.0
aa(lp3151
F922.0
aF411.0
aa(lp3152
F922.0
aF410.0
aa(lp3153
F922.0
aF409.0
aa(lp3154
F922.0
aF408.0
aa(lp3155
F922.0
aF407.0
aa(lp3156
F922.0
aF406.0
aa(lp3157
F922.0
aF405.0
aa(lp3158
F922.0
aF404.0
aa(lp3159
F921.5
aF403.0
aa(lp3160
F921.0
aF402.0
aa(lp3161
F920.5
aF401.0
aa(lp3162
F920.0
aF400.0
aa(lp3163
F920.0
aF399.0
aa(lp3164
F920.0
aF398.0
aa(lp3165
F920.0
aF397.0
aa(lp3166
F920.0
aF396.0
aa(lp3167
F920.0
aF395.0
aa(lp3168
F919.8
aF394.0
aa(lp3169
F919.6
aF393.0
aa(lp3170
F919.4
aF392.0
aa(lp3171
F919.2
aF391.0
aa(lp3172
F919.0
aF390.0
aa(lp3173
F918.5
aF389.25
aa(lp3174
F918.0
aF388.5
aa(lp3175
F917.5
aF387.75
aa(lp3176
F917.0
aF387.0
aa(lp3177
F916.8
aF386.0
aa(lp3178
F916.6
aF385.0
aa(lp3179
F916.4
aF384.0
aa(lp3180
F916.2
aF383.0
aa(lp3181
F916.0
aF382.0
aa(lp3182
F915.75
aF381.0
aa(lp3183
F915.5
aF380.0
aa(lp3184
F915.25
aF379.0
aa(lp3185
F915.0
aF378.0
aa(lp3186
F915.0
aF377.0
aa(lp3187
F915.0
aF376.0
aa(lp3188
F914.5
aF375.0
aasg231
I13
sg232
F0.3
sa(dp3189
g10
I2
sg11
(lp3190
(lp3191
F803.0
aF397.0
aa(lp3192
F803.0
aF398.0
aa(lp3193
F802.8
aF399.0
aa(lp3194
F802.6
aF400.0
aa(lp3195
F802.4
aF401.0
aa(lp3196
F802.2
aF402.0
aa(lp3197
F802.0
aF403.0
aa(lp3198
F801.875
aF404.0
aa(lp3199
F801.75
aF405.0
aa(lp3200
F801.625
aF406.0
aa(lp3201
F801.5
aF407.0
aa(lp3202
F801.375
aF408.0
aa(lp3203
F801.25
aF409.0
aa(lp3204
F801.125
aF410.0
aa(lp3205
F801.0
aF411.0
aa(lp3206
F800.9
aF412.0
aa(lp3207
F800.8
aF413.0
aa(lp3208
F800.7
aF414.0
aa(lp3209
F800.6
aF415.0
aa(lp3210
F800.5
aF416.0
aa(lp3211
F800.4
aF417.0
aa(lp3212
F800.3
aF418.0
aa(lp3213
F800.2
aF419.0
aa(lp3214
F800.1
aF420.0
aa(lp3215
F800.0
aF421.0
aa(lp3216
F799.5
aF422.0
aa(lp3217
F799.0
aF423.0
aa(lp3218
F798.5
aF424.0
aa(lp3219
F798.0
aF425.0
aa(lp3220
F797.8
aF426.0
aa(lp3221
F797.6
aF427.0
aa(lp3222
F797.4
aF428.0
aa(lp3223
F797.2
aF429.0
aa(lp3224
F797.0
aF430.0
aa(lp3225
F796.8
aF431.0
aa(lp3226
F796.6
aF432.0
aa(lp3227
F796.4
aF433.0
aa(lp3228
F796.2
aF434.0
aa(lp3229
F796.0
aF435.0
aa(lp3230
F795.6666666666666
aF435.8888888888889
aa(lp3231
F795.3333333333334
aF436.77777777777777
aa(lp3232
F795.0
aF437.6666666666667
aa(lp3233
F794.6666666666666
aF438.55555555555554
aa(lp3234
F794.3333333333334
aF439.44444444444446
aa(lp3235
F794.0
aF440.3333333333333
aa(lp3236
F793.6666666666666
aF441.22222222222223
aa(lp3237
F793.3333333333334
aF442.1111111111111
aa(lp3238
F793.0
aF443.0
aa(lp3239
F792.5
aF443.8333333333333
aa(lp3240
F792.0
aF444.6666666666667
aa(lp3241
F791.5
aF445.5
aa(lp3242
F791.0
aF446.3333333333333
aa(lp3243
F790.5
aF447.1666666666667
aa(lp3244
F790.0
aF448.0
aa(lp3245
F789.7142857142857
aF449.0
aa(lp3246
F789.4285714285714
aF450.0
aa(lp3247
F789.1428571428571
aF451.0
aa(lp3248
F788.8571428571429
aF452.0
aa(lp3249
F788.5714285714286
aF453.0
aa(lp3250
F788.2857142857143
aF454.0
aa(lp3251
F788.0
aF455.0
aa(lp3252
F787.5555555555555
aF455.8888888888889
aa(lp3253
F787.1111111111111
aF456.77777777777777
aa(lp3254
F786.6666666666666
aF457.6666666666667
aa(lp3255
F786.2222222222222
aF458.55555555555554
aa(lp3256
F785.7777777777778
aF459.44444444444446
aa(lp3257
F785.3333333333334
aF460.3333333333333
aa(lp3258
F784.8888888888889
aF461.22222222222223
aa(lp3259
F784.4444444444445
aF462.1111111111111
aa(lp3260
F784.0
aF463.0
aa(lp3261
F783.5
aF463.875
aa(lp3262
F783.0
aF464.75
aa(lp3263
F782.5
aF465.625
aa(lp3264
F782.0
aF466.5
aa(lp3265
F781.5
aF467.375
aa(lp3266
F781.0
aF468.25
aa(lp3267
F780.5
aF469.125
aa(lp3268
F780.0
aF470.0
aa(lp3269
F779.5
aF470.8333333333333
aa(lp3270
F779.0
aF471.6666666666667
aa(lp3271
F778.5
aF472.5
aa(lp3272
F778.0
aF473.3333333333333
aa(lp3273
F777.5
aF474.1666666666667
aa(lp3274
F777.0
aF475.0
aa(lp3275
F776.3333333333334
aF475.8333333333333
aa(lp3276
F775.6666666666666
aF476.6666666666667
aa(lp3277
F775.0
aF477.5
aa(lp3278
F774.3333333333334
aF478.3333333333333
aa(lp3279
F773.6666666666666
aF479.1666666666667
aa(lp3280
F773.0
aF480.0
aa(lp3281
F772.5
aF480.75
aa(lp3282
F772.0
aF481.5
aa(lp3283
F771.5
aF482.25
aa(lp3284
F771.0
aF483.0
aa(lp3285
F770.3333333333334
aF483.8333333333333
aa(lp3286
F769.6666666666666
aF484.6666666666667
aa(lp3287
F769.0
aF485.5
aa(lp3288
F768.3333333333334
aF486.3333333333333
aa(lp3289
F767.6666666666666
aF487.1666666666667
aa(lp3290
F767.0
aF488.0
aa(lp3291
F766.4
aF488.8
aa(lp3292
F765.8
aF489.6
aa(lp3293
F765.2
aF490.4
aa(lp3294
F764.6
aF491.2
aa(lp3295
F764.0
aF492.0
aa(lp3296
F763.3333333333334
aF492.8333333333333
aa(lp3297
F762.6666666666666
aF493.6666666666667
aa(lp3298
F762.0
aF494.5
aa(lp3299
F761.3333333333334
aF495.3333333333333
aa(lp3300
F760.6666666666666
aF496.1666666666667
aa(lp3301
F760.0
aF497.0
aa(lp3302
F759.3333333333334
aF497.6666666666667
aa(lp3303
F758.6666666666666
aF498.3333333333333
aa(lp3304
F758.0
aF499.0
aa(lp3305
F757.1428571428571
aF499.42857142857144
aa(lp3306
F756.2857142857143
aF499.85714285714283
aa(lp3307
F755.4285714285714
aF500.2857142857143
aa(lp3308
F754.5714285714286
aF500.7142857142857
aa(lp3309
F753.7142857142857
aF501.14285714285717
aa(lp3310
F752.8571428571429
aF501.57142857142856
aa(lp3311
F752.0
aF502.0
aa(lp3312
F751.5
aF502.75
aa(lp3313
F751.0
aF503.5
aa(lp3314
F750.5
aF504.25
aa(lp3315
F750.0
aF505.0
aa(lp3316
F749.0
aF505.5
aa(lp3317
F748.0
aF506.0
aa(lp3318
F747.3333333333334
aF506.6666666666667
aa(lp3319
F746.6666666666666
aF507.3333333333333
aa(lp3320
F746.0
aF508.0
aa(lp3321
F745.0
aF508.25
aa(lp3322
F744.0
aF508.5
aa(lp3323
F743.0
aF508.75
aa(lp3324
F742.0
aF509.0
aa(lp3325
F741.0
aF509.2
aa(lp3326
F740.0
aF509.4
aa(lp3327
F739.0
aF509.6
aa(lp3328
F738.0
aF509.8
aa(lp3329
F737.0
aF510.0
aa(lp3330
F736.0
aF510.0
aa(lp3331
F735.0
aF510.0
aa(lp3332
F734.0
aF510.3333333333333
aa(lp3333
F733.0
aF510.6666666666667
aa(lp3334
F732.0
aF511.0
aa(lp3335
F731.0
aF511.0
aa(lp3336
F730.0
aF511.0
aa(lp3337
F729.0
aF511.0
aa(lp3338
F728.0
aF511.0
aa(lp3339
F727.0
aF511.0
aa(lp3340
F726.0
aF511.0
aa(lp3341
F725.0
aF511.0
aa(lp3342
F724.0
aF511.0
aa(lp3343
F723.2
aF510.4
aa(lp3344
F722.4
aF509.8
aa(lp3345
F721.6
aF509.2
aa(lp3346
F720.8
aF508.6
aa(lp3347
F720.0
aF508.0
aa(lp3348
F719.4
aF507.2
aa(lp3349
F718.8
aF506.4
aa(lp3350
F718.2
aF505.6
aa(lp3351
F717.6
aF504.8
aa(lp3352
F717.0
aF504.0
aa(lp3353
F716.3333333333334
aF503.3333333333333
aa(lp3354
F715.6666666666666
aF502.6666666666667
aa(lp3355
F715.0
aF502.0
aa(lp3356
F714.4
aF501.2
aa(lp3357
F713.8
aF500.4
aa(lp3358
F713.2
aF499.6
aa(lp3359
F712.6
aF498.8
aa(lp3360
F712.0
aF498.0
aa(lp3361
F711.6
aF497.0
aa(lp3362
F711.2
aF496.0
aa(lp3363
F710.8
aF495.0
aa(lp3364
F710.4
aF494.0
aa(lp3365
F710.0
aF493.0
aa(lp3366
F709.4
aF492.2
aa(lp3367
F708.8
aF491.4
aa(lp3368
F708.2
aF490.6
aa(lp3369
F707.6
aF489.8
aa(lp3370
F707.0
aF489.0
aa(lp3371
F706.5
aF488.1666666666667
aa(lp3372
F706.0
aF487.3333333333333
aa(lp3373
F705.5
aF486.5
aa(lp3374
F705.0
aF485.6666666666667
aa(lp3375
F704.5
aF484.8333333333333
aa(lp3376
F704.0
aF484.0
aa(lp3377
F703.7142857142857
aF483.0
aa(lp3378
F703.4285714285714
aF482.0
aa(lp3379
F703.1428571428571
aF481.0
aa(lp3380
F702.8571428571429
aF480.0
aa(lp3381
F702.5714285714286
aF479.0
aa(lp3382
F702.2857142857143
aF478.0
aa(lp3383
F702.0
aF477.0
aa(lp3384
F702.0
aF476.0
aa(lp3385
F702.0
aF475.0
aa(lp3386
F701.6666666666666
aF474.0
aa(lp3387
F701.3333333333334
aF473.0
aa(lp3388
F701.0
aF472.0
aa(lp3389
F700.6666666666666
aF471.0
aa(lp3390
F700.3333333333334
aF470.0
aa(lp3391
F700.0
aF469.0
aa(lp3392
F700.0
aF468.0
aa(lp3393
F700.0
aF467.0
aa(lp3394
F700.0
aF466.0
aa(lp3395
F700.0
aF465.0
aa(lp3396
F700.0
aF464.0
aa(lp3397
F700.0
aF463.0
aa(lp3398
F700.0
aF462.0
aa(lp3399
F700.0
aF461.0
aa(lp3400
F700.0
aF460.0
aa(lp3401
F700.0
aF459.0
aa(lp3402
F700.0
aF458.0
aa(lp3403
F700.0
aF457.0
aa(lp3404
F700.0
aF456.0
aa(lp3405
F700.0
aF455.0
aa(lp3406
F700.0
aF454.0
aa(lp3407
F700.0
aF453.0
aa(lp3408
F700.0
aF452.0
aa(lp3409
F700.0
aF451.0
aa(lp3410
F700.0
aF450.0
aa(lp3411
F700.0
aF449.0
aa(lp3412
F699.8571428571429
aF448.0
aa(lp3413
F699.7142857142857
aF447.0
aa(lp3414
F699.5714285714286
aF446.0
aa(lp3415
F699.4285714285714
aF445.0
aa(lp3416
F699.2857142857143
aF444.0
aa(lp3417
F699.1428571428571
aF443.0
aa(lp3418
F699.0
aF442.0
aa(lp3419
F698.75
aF441.0
aa(lp3420
F698.5
aF440.0
aa(lp3421
F698.25
aF439.0
aa(lp3422
F698.0
aF438.0
aa(lp3423
F698.0
aF437.0
aa(lp3424
F698.0
aF436.0
aa(lp3425
F698.0
aF435.0
aa(lp3426
F698.0
aF434.0
aa(lp3427
F698.0
aF433.0
aa(lp3428
F697.75
aF432.0
aa(lp3429
F697.5
aF431.0
aa(lp3430
F697.25
aF430.0
aa(lp3431
F697.0
aF429.0
aa(lp3432
F697.0
aF428.0
aa(lp3433
F697.0
aF427.0
aa(lp3434
F697.0
aF426.0
aa(lp3435
F697.0
aF425.0
aa(lp3436
F697.0
aF424.0
aa(lp3437
F697.0
aF423.0
aa(lp3438
F697.0
aF422.0
aa(lp3439
F697.0
aF421.0
aa(lp3440
F697.0
aF420.0
aa(lp3441
F697.0
aF419.0
aa(lp3442
F697.0
aF418.0
aa(lp3443
F697.0
aF417.0
aa(lp3444
F697.0
aF416.0
aa(lp3445
F697.0
aF415.0
aa(lp3446
F697.0
aF414.0
aa(lp3447
F697.0
aF413.0
aa(lp3448
F697.0
aF412.0
aa(lp3449
F697.0
aF411.0
aa(lp3450
F697.0
aF410.0
aa(lp3451
F696.6
aF409.0
aa(lp3452
F696.2
aF408.0
aa(lp3453
F695.8
aF407.0
aa(lp3454
F695.4
aF406.0
aa(lp3455
F695.0
aF405.0
aa(lp3456
F695.0
aF404.0
aa(lp3457
F695.0
aF403.0
aa(lp3458
F695.0
aF402.0
aa(lp3459
F695.0
aF401.0
aa(lp3460
F694.75
aF400.0
aa(lp3461
F694.5
aF399.0
aa(lp3462
F694.25
aF398.0
aa(lp3463
F694.0
aF397.0
aa(lp3464
F694.0
aF396.0
aa(lp3465
F693.6666666666666
aF395.0
aa(lp3466
F693.3333333333334
aF394.0
aa(lp3467
F693.0
aF393.0
aa(lp3468
F693.0
aF392.0
aa(lp3469
F693.0
aF391.0
aa(lp3470
F692.6
aF390.0
aa(lp3471
F692.2
aF389.0
aa(lp3472
F691.8
aF388.0
aa(lp3473
F691.4
aF387.0
aa(lp3474
F691.0
aF386.0
aa(lp3475
F691.0
aF385.0
aa(lp3476
F691.0
aF384.0
aa(lp3477
F691.0
aF383.0
aa(lp3478
F691.0
aF382.0
aa(lp3479
F691.0
aF381.0
aa(lp3480
F691.0
aF380.0
aa(lp3481
F691.0
aF379.0
aasg231
I10
sg232
F0.3
sasg451
I2
sg452
g453
(g454
(I0
tp3482
g456
tp3483
Rp3484
(I1
(I45
I2
tp3485
g463
I00
S'\x17\x00\x00\x00\t\x00\x00\x00\x17\x00\x00\x00\n\x00\x00\x00\x17\x00\x00\x00\x0b\x00\x00\x00\x17\x00\x00\x00\x0c\x00\x00\x00\x17\x00\x00\x00\r\x00\x00\x00\x18\x00\x00\x00\r\x00\x00\x00\x19\x00\x00\x00\r\x00\x00\x00\x1a\x00\x00\x00\r\x00\x00\x00\x1b\x00\x00\x00\r\x00\x00\x00\x1c\x00\x00\x00\r\x00\x00\x00\x1d\x00\x00\x00\r\x00\x00\x00\x1e\x00\x00\x00\r\x00\x00\x00\x1f\x00\x00\x00\r\x00\x00\x00\x1f\x00\x00\x00\x0c\x00\x00\x00\x1e\x00\x00\x00\x0c\x00\x00\x00\x1d\x00\x00\x00\x0c\x00\x00\x00\x1c\x00\x00\x00\x0c\x00\x00\x00\x1b\x00\x00\x00\x0c\x00\x00\x00\x1a\x00\x00\x00\x0c\x00\x00\x00\x19\x00\x00\x00\x0c\x00\x00\x00\x18\x00\x00\x00\x0c\x00\x00\x00\x18\x00\x00\x00\x0b\x00\x00\x00\x19\x00\x00\x00\x0b\x00\x00\x00\x1a\x00\x00\x00\x0b\x00\x00\x00\x1b\x00\x00\x00\x0b\x00\x00\x00\x1c\x00\x00\x00\x0b\x00\x00\x00\x1d\x00\x00\x00\x0b\x00\x00\x00\x1e\x00\x00\x00\x0b\x00\x00\x00\x1f\x00\x00\x00\x0b\x00\x00\x00\x1f\x00\x00\x00\n\x00\x00\x00\x1e\x00\x00\x00\n\x00\x00\x00\x1d\x00\x00\x00\n\x00\x00\x00\x1c\x00\x00\x00\n\x00\x00\x00\x1b\x00\x00\x00\n\x00\x00\x00\x1a\x00\x00\x00\n\x00\x00\x00\x19\x00\x00\x00\n\x00\x00\x00\x18\x00\x00\x00\n\x00\x00\x00\x18\x00\x00\x00\t\x00\x00\x00\x19\x00\x00\x00\t\x00\x00\x00\x1a\x00\x00\x00\t\x00\x00\x00\x1b\x00\x00\x00\t\x00\x00\x00\x1c\x00\x00\x00\t\x00\x00\x00\x1d\x00\x00\x00\t\x00\x00\x00\x1e\x00\x00\x00\t\x00\x00\x00\x1f\x00\x00\x00\t\x00\x00\x00'
p3486
tp3487
bsg468
g469
sg470
g471
sg472
Nsg473
g474
(I781
I311
I60
I96
tp3488
Rp3489
sbag1
(g2
g3
Ntp3490
Rp3491
(dp3492
g7
(lp3493
(dp3494
g10
I1
sg11
(lp3495
(lp3496
F806.0
aF233.0
aa(lp3497
F805.25
aF233.75
aa(lp3498
F804.5
aF234.5
aa(lp3499
F803.75
aF235.25
aa(lp3500
F803.0
aF236.0
aa(lp3501
F802.1666666666666
aF236.66666666666666
aa(lp3502
F801.3333333333334
aF237.33333333333334
aa(lp3503
F800.5
aF238.0
aa(lp3504
F799.6666666666666
aF238.66666666666666
aa(lp3505
F798.8333333333334
aF239.33333333333334
aa(lp3506
F798.0
aF240.0
aa(lp3507
F797.25
aF240.75
aa(lp3508
F796.5
aF241.5
aa(lp3509
F795.75
aF242.25
aa(lp3510
F795.0
aF243.0
aa(lp3511
F794.25
aF243.75
aa(lp3512
F793.5
aF244.5
aa(lp3513
F792.75
aF245.25
aa(lp3514
F792.0
aF246.0
aa(lp3515
F791.3
aF246.7
aa(lp3516
F790.6
aF247.4
aa(lp3517
F789.9
aF248.1
aa(lp3518
F789.2
aF248.8
aa(lp3519
F788.5
aF249.5
aa(lp3520
F787.8
aF250.2
aa(lp3521
F787.1
aF250.9
aa(lp3522
F786.4
aF251.6
aa(lp3523
F785.7
aF252.3
aa(lp3524
F785.0
aF253.0
aa(lp3525
F784.2857142857143
aF253.71428571428572
aa(lp3526
F783.5714285714286
aF254.42857142857142
aa(lp3527
F782.8571428571429
aF255.14285714285714
aa(lp3528
F782.1428571428571
aF255.85714285714286
aa(lp3529
F781.4285714285714
aF256.57142857142856
aa(lp3530
F780.7142857142857
aF257.2857142857143
aa(lp3531
F780.0
aF258.0
aa(lp3532
F779.2727272727273
aF258.72727272727275
aa(lp3533
F778.5454545454545
aF259.45454545454544
aa(lp3534
F777.8181818181819
aF260.1818181818182
aa(lp3535
F777.0909090909091
aF260.90909090909093
aa(lp3536
F776.3636363636364
aF261.6363636363636
aa(lp3537
F775.6363636363636
aF262.3636363636364
aa(lp3538
F774.9090909090909
aF263.09090909090907
aa(lp3539
F774.1818181818181
aF263.8181818181818
aa(lp3540
F773.4545454545455
aF264.54545454545456
aa(lp3541
F772.7272727272727
aF265.27272727272725
aa(lp3542
F772.0
aF266.0
aa(lp3543
F771.3333333333334
aF266.77777777777777
aa(lp3544
F770.6666666666666
aF267.55555555555554
aa(lp3545
F770.0
aF268.3333333333333
aa(lp3546
F769.3333333333334
aF269.1111111111111
aa(lp3547
F768.6666666666666
aF269.8888888888889
aa(lp3548
F768.0
aF270.6666666666667
aa(lp3549
F767.3333333333334
aF271.44444444444446
aa(lp3550
F766.6666666666666
aF272.22222222222223
aa(lp3551
F766.0
aF273.0
aa(lp3552
F765.4444444444445
aF273.77777777777777
aa(lp3553
F764.8888888888889
aF274.55555555555554
aa(lp3554
F764.3333333333334
aF275.3333333333333
aa(lp3555
F763.7777777777778
aF276.1111111111111
aa(lp3556
F763.2222222222222
aF276.8888888888889
aa(lp3557
F762.6666666666666
aF277.6666666666667
aa(lp3558
F762.1111111111111
aF278.44444444444446
aa(lp3559
F761.5555555555555
aF279.22222222222223
aa(lp3560
F761.0
aF280.0
aa(lp3561
F760.3333333333334
aF280.77777777777777
aa(lp3562
F759.6666666666666
aF281.55555555555554
aa(lp3563
F759.0
aF282.3333333333333
aa(lp3564
F758.3333333333334
aF283.1111111111111
aa(lp3565
F757.6666666666666
aF283.8888888888889
aa(lp3566
F757.0
aF284.6666666666667
aa(lp3567
F756.3333333333334
aF285.44444444444446
aa(lp3568
F755.6666666666666
aF286.22222222222223
aa(lp3569
F755.0
aF287.0
aa(lp3570
F754.4444444444445
aF287.77777777777777
aa(lp3571
F753.8888888888889
aF288.55555555555554
aa(lp3572
F753.3333333333334
aF289.3333333333333
aa(lp3573
F752.7777777777778
aF290.1111111111111
aa(lp3574
F752.2222222222222
aF290.8888888888889
aa(lp3575
F751.6666666666666
aF291.6666666666667
aa(lp3576
F751.1111111111111
aF292.44444444444446
aa(lp3577
F750.5555555555555
aF293.22222222222223
aa(lp3578
F750.0
aF294.0
aa(lp3579
F749.4
aF294.8
aa(lp3580
F748.8
aF295.6
aa(lp3581
F748.2
aF296.4
aa(lp3582
F747.6
aF297.2
aa(lp3583
F747.0
aF298.0
aa(lp3584
F746.2857142857143
aF298.7142857142857
aa(lp3585
F745.5714285714286
aF299.42857142857144
aa(lp3586
F744.8571428571429
aF300.14285714285717
aa(lp3587
F744.1428571428571
aF300.85714285714283
aa(lp3588
F743.4285714285714
aF301.57142857142856
aa(lp3589
F742.7142857142857
aF302.2857142857143
aa(lp3590
F742.0
aF303.0
aa(lp3591
F741.3333333333334
aF303.8333333333333
aa(lp3592
F740.6666666666666
aF304.6666666666667
aa(lp3593
F740.0
aF305.5
aa(lp3594
F739.3333333333334
aF306.3333333333333
aa(lp3595
F738.6666666666666
aF307.1666666666667
aa(lp3596
F738.0
aF308.0
aa(lp3597
F737.4
aF308.8
aa(lp3598
F736.8
aF309.6
aa(lp3599
F736.2
aF310.4
aa(lp3600
F735.6
aF311.2
aa(lp3601
F735.0
aF312.0
aa(lp3602
F734.375
aF312.75
aa(lp3603
F733.75
aF313.5
aa(lp3604
F733.125
aF314.25
aa(lp3605
F732.5
aF315.0
aa(lp3606
F731.875
aF315.75
aa(lp3607
F731.25
aF316.5
aa(lp3608
F730.625
aF317.25
aa(lp3609
F730.0
aF318.0
aa(lp3610
F729.3333333333334
aF318.6666666666667
aa(lp3611
F728.6666666666666
aF319.3333333333333
aa(lp3612
F728.0
aF320.0
aa(lp3613
F727.3333333333334
aF320.6666666666667
aa(lp3614
F726.6666666666666
aF321.3333333333333
aa(lp3615
F726.0
aF322.0
aa(lp3616
F725.4285714285714
aF322.85714285714283
aa(lp3617
F724.8571428571429
aF323.7142857142857
aa(lp3618
F724.2857142857143
aF324.57142857142856
aa(lp3619
F723.7142857142857
aF325.42857142857144
aa(lp3620
F723.1428571428571
aF326.2857142857143
aa(lp3621
F722.5714285714286
aF327.14285714285717
aa(lp3622
F722.0
aF328.0
aa(lp3623
F721.5714285714286
aF328.85714285714283
aa(lp3624
F721.1428571428571
aF329.7142857142857
aa(lp3625
F720.7142857142857
aF330.57142857142856
aa(lp3626
F720.2857142857143
aF331.42857142857144
aa(lp3627
F719.8571428571429
aF332.2857142857143
aa(lp3628
F719.4285714285714
aF333.14285714285717
aa(lp3629
F719.0
aF334.0
aa(lp3630
F718.5
aF334.8333333333333
aa(lp3631
F718.0
aF335.6666666666667
aa(lp3632
F717.5
aF336.5
aa(lp3633
F717.0
aF337.3333333333333
aa(lp3634
F716.5
aF338.1666666666667
aa(lp3635
F716.0
aF339.0
aa(lp3636
F715.6
aF340.0
aa(lp3637
F715.2
aF341.0
aa(lp3638
F714.8
aF342.0
aa(lp3639
F714.4
aF343.0
aa(lp3640
F714.0
aF344.0
aa(lp3641
F713.5
aF345.0
aa(lp3642
F713.0
aF346.0
aa(lp3643
F712.5
aF346.75
aa(lp3644
F712.0
aF347.5
aa(lp3645
F711.5
aF348.25
aa(lp3646
F711.0
aF349.0
aa(lp3647
F710.6
aF350.0
aa(lp3648
F710.2
aF351.0
aa(lp3649
F709.8
aF352.0
aa(lp3650
F709.4
aF353.0
aa(lp3651
F709.0
aF354.0
aa(lp3652
F708.2
aF354.6
aa(lp3653
F707.4
aF355.2
aa(lp3654
F706.6
aF355.8
aa(lp3655
F705.8
aF356.4
aa(lp3656
F705.0
aF357.0
aa(lp3657
F704.5
aF358.0
aa(lp3658
F704.0
aF359.0
aa(lp3659
F703.5
aF360.0
aa(lp3660
F703.0
aF361.0
aa(lp3661
F702.6666666666666
aF362.0
aa(lp3662
F702.3333333333334
aF363.0
aa(lp3663
F702.0
aF364.0
aa(lp3664
F701.5
aF364.75
aa(lp3665
F701.0
aF365.5
aa(lp3666
F700.5
aF366.25
aa(lp3667
F700.0
aF367.0
aa(lp3668
F699.0
aF368.0
aa(lp3669
F698.6666666666666
aF369.0
aa(lp3670
F698.3333333333334
aF370.0
aa(lp3671
F698.0
aF371.0
aasg231
I10
sg232
F0.3
sa(dp3672
g10
I1
sg11
(lp3673
(lp3674
F807.0
aF224.0
aa(lp3675
F808.0
aF224.0
aa(lp3676
F808.625
aF224.75
aa(lp3677
F809.25
aF225.5
aa(lp3678
F809.875
aF226.25
aa(lp3679
F810.5
aF227.0
aa(lp3680
F811.125
aF227.75
aa(lp3681
F811.75
aF228.5
aa(lp3682
F812.375
aF229.25
aa(lp3683
F813.0
aF230.0
aa(lp3684
F813.5714285714286
aF230.85714285714286
aa(lp3685
F814.1428571428571
aF231.71428571428572
aa(lp3686
F814.7142857142857
aF232.57142857142858
aa(lp3687
F815.2857142857143
aF233.42857142857142
aa(lp3688
F815.8571428571429
aF234.28571428571428
aa(lp3689
F816.4285714285714
aF235.14285714285714
aa(lp3690
F817.0
aF236.0
aa(lp3691
F817.5555555555555
aF236.88888888888889
aa(lp3692
F818.1111111111111
aF237.77777777777777
aa(lp3693
F818.6666666666666
aF238.66666666666666
aa(lp3694
F819.2222222222222
aF239.55555555555554
aa(lp3695
F819.7777777777778
aF240.44444444444446
aa(lp3696
F820.3333333333334
aF241.33333333333334
aa(lp3697
F820.8888888888889
aF242.22222222222223
aa(lp3698
F821.4444444444445
aF243.11111111111111
aa(lp3699
F822.0
aF244.0
aa(lp3700
F822.5833333333334
aF244.83333333333334
aa(lp3701
F823.1666666666666
aF245.66666666666666
aa(lp3702
F823.75
aF246.5
aa(lp3703
F824.3333333333334
aF247.33333333333334
aa(lp3704
F824.9166666666666
aF248.16666666666666
aa(lp3705
F825.5
aF249.0
aa(lp3706
F826.0833333333334
aF249.83333333333334
aa(lp3707
F826.6666666666666
aF250.66666666666666
aa(lp3708
F827.25
aF251.5
aa(lp3709
F827.8333333333334
aF252.33333333333334
aa(lp3710
F828.4166666666666
aF253.16666666666666
aa(lp3711
F829.0
aF254.0
aa(lp3712
F829.5454545454545
aF254.8181818181818
aa(lp3713
F830.0909090909091
aF255.63636363636363
aa(lp3714
F830.6363636363636
aF256.45454545454544
aa(lp3715
F831.1818181818181
aF257.27272727272725
aa(lp3716
F831.7272727272727
aF258.09090909090907
aa(lp3717
F832.2727272727273
aF258.90909090909093
aa(lp3718
F832.8181818181819
aF259.72727272727275
aa(lp3719
F833.3636363636364
aF260.54545454545456
aa(lp3720
F833.9090909090909
aF261.3636363636364
aa(lp3721
F834.4545454545455
aF262.1818181818182
aa(lp3722
F835.0
aF263.0
aa(lp3723
F835.5833333333334
aF263.8333333333333
aa(lp3724
F836.1666666666666
aF264.6666666666667
aa(lp3725
F836.75
aF265.5
aa(lp3726
F837.3333333333334
aF266.3333333333333
aa(lp3727
F837.9166666666666
aF267.1666666666667
aa(lp3728
F838.5
aF268.0
aa(lp3729
F839.0833333333334
aF268.8333333333333
aa(lp3730
F839.6666666666666
aF269.6666666666667
aa(lp3731
F840.25
aF270.5
aa(lp3732
F840.8333333333334
aF271.3333333333333
aa(lp3733
F841.4166666666666
aF272.1666666666667
aa(lp3734
F842.0
aF273.0
aa(lp3735
F842.5384615384615
aF273.84615384615387
aa(lp3736
F843.0769230769231
aF274.6923076923077
aa(lp3737
F843.6153846153846
aF275.53846153846155
aa(lp3738
F844.1538461538462
aF276.38461538461536
aa(lp3739
F844.6923076923077
aF277.2307692307692
aa(lp3740
F845.2307692307693
aF278.0769230769231
aa(lp3741
F845.7692307692307
aF278.9230769230769
aa(lp3742
F846.3076923076923
aF279.7692307692308
aa(lp3743
F846.8461538461538
aF280.61538461538464
aa(lp3744
F847.3846153846154
aF281.46153846153845
aa(lp3745
F847.9230769230769
aF282.3076923076923
aa(lp3746
F848.4615384615385
aF283.15384615384613
aa(lp3747
F849.0
aF284.0
aa(lp3748
F849.5
aF284.875
aa(lp3749
F850.0
aF285.75
aa(lp3750
F850.5
aF286.625
aa(lp3751
F851.0
aF287.5
aa(lp3752
F851.5
aF288.375
aa(lp3753
F852.0
aF289.25
aa(lp3754
F852.5
aF290.125
aa(lp3755
F853.0
aF291.0
aa(lp3756
F853.5555555555555
aF291.77777777777777
aa(lp3757
F854.1111111111111
aF292.55555555555554
aa(lp3758
F854.6666666666666
aF293.3333333333333
aa(lp3759
F855.2222222222222
aF294.1111111111111
aa(lp3760
F855.7777777777778
aF294.8888888888889
aa(lp3761
F856.3333333333334
aF295.6666666666667
aa(lp3762
F856.8888888888889
aF296.44444444444446
aa(lp3763
F857.4444444444445
aF297.22222222222223
aa(lp3764
F858.0
aF298.0
aa(lp3765
F858.6666666666666
aF298.6666666666667
aa(lp3766
F859.3333333333334
aF299.3333333333333
aa(lp3767
F860.0
aF300.0
aa(lp3768
F860.5
aF300.75
aa(lp3769
F861.0
aF301.5
aa(lp3770
F861.5
aF302.25
aa(lp3771
F862.0
aF303.0
aa(lp3772
F862.4285714285714
aF303.85714285714283
aa(lp3773
F862.8571428571429
aF304.7142857142857
aa(lp3774
F863.2857142857143
aF305.57142857142856
aa(lp3775
F863.7142857142857
aF306.42857142857144
aa(lp3776
F864.1428571428571
aF307.2857142857143
aa(lp3777
F864.5714285714286
aF308.14285714285717
aa(lp3778
F865.0
aF309.0
aa(lp3779
F865.6666666666666
aF309.6666666666667
aa(lp3780
F866.3333333333334
aF310.3333333333333
aa(lp3781
F867.0
aF311.0
aa(lp3782
F867.6666666666666
aF311.6666666666667
aa(lp3783
F868.3333333333334
aF312.3333333333333
aa(lp3784
F869.0
aF313.0
aa(lp3785
F869.5
aF314.0
aa(lp3786
F870.0
aF315.0
aa(lp3787
F870.5
aF316.0
aa(lp3788
F871.0
aF317.0
aa(lp3789
F871.6666666666666
aF317.6666666666667
aa(lp3790
F872.3333333333334
aF318.3333333333333
aa(lp3791
F873.0
aF319.0
aa(lp3792
F873.6666666666666
aF319.6666666666667
aa(lp3793
F874.3333333333334
aF320.3333333333333
aa(lp3794
F875.0
aF321.0
aa(lp3795
F875.4285714285714
aF321.85714285714283
aa(lp3796
F875.8571428571429
aF322.7142857142857
aa(lp3797
F876.2857142857143
aF323.57142857142856
aa(lp3798
F876.7142857142857
aF324.42857142857144
aa(lp3799
F877.1428571428571
aF325.2857142857143
aa(lp3800
F877.5714285714286
aF326.14285714285717
aa(lp3801
F878.0
aF327.0
aa(lp3802
F878.6666666666666
aF327.6666666666667
aa(lp3803
F879.3333333333334
aF328.3333333333333
aa(lp3804
F880.0
aF329.0
aa(lp3805
F880.6666666666666
aF329.6666666666667
aa(lp3806
F881.3333333333334
aF330.3333333333333
aa(lp3807
F882.0
aF331.0
aa(lp3808
F882.5
aF332.0
aa(lp3809
F883.0
aF333.0
aa(lp3810
F883.5
aF334.0
aa(lp3811
F884.0
aF335.0
aa(lp3812
F884.6666666666666
aF335.6666666666667
aa(lp3813
F885.3333333333334
aF336.3333333333333
aa(lp3814
F886.0
aF337.0
aa(lp3815
F886.6
aF337.8
aa(lp3816
F887.2
aF338.6
aa(lp3817
F887.8
aF339.4
aa(lp3818
F888.4
aF340.2
aa(lp3819
F889.0
aF341.0
aa(lp3820
F889.6666666666666
aF341.8333333333333
aa(lp3821
F890.3333333333334
aF342.6666666666667
aa(lp3822
F891.0
aF343.5
aa(lp3823
F891.6666666666666
aF344.3333333333333
aa(lp3824
F892.3333333333334
aF345.1666666666667
aa(lp3825
F893.0
aF346.0
aa(lp3826
F893.75
aF346.75
aa(lp3827
F894.5
aF347.5
aa(lp3828
F895.25
aF348.25
aa(lp3829
F896.0
aF349.0
aa(lp3830
F896.6
aF349.8
aa(lp3831
F897.2
aF350.6
aa(lp3832
F897.8
aF351.4
aa(lp3833
F898.4
aF352.2
aa(lp3834
F899.0
aF353.0
aa(lp3835
F899.5
aF353.75
aa(lp3836
F900.0
aF354.5
aa(lp3837
F900.5
aF355.25
aa(lp3838
F901.0
aF356.0
aa(lp3839
F901.6666666666666
aF356.6666666666667
aa(lp3840
F902.3333333333334
aF357.3333333333333
aa(lp3841
F903.0
aF358.0
aa(lp3842
F903.5
aF358.75
aa(lp3843
F904.0
aF359.5
aa(lp3844
F904.5
aF360.25
aa(lp3845
F905.0
aF361.0
aa(lp3846
F905.5
aF362.0
aa(lp3847
F906.0
aF363.0
aa(lp3848
F906.75
aF363.5
aa(lp3849
F907.5
aF364.0
aa(lp3850
F908.25
aF364.5
aa(lp3851
F909.0
aF365.0
aa(lp3852
F910.0
aF366.0
aasg231
I13
sg232
F0.3
sasg451
I1
sg452
g453
(g454
(I0
tp3853
g456
tp3854
Rp3855
(I1
(I45
I2
tp3856
g463
I00
S'\x1f\x00\x00\x00\x01\x00\x00\x00\x1f\x00\x00\x00\x02\x00\x00\x00\x1f\x00\x00\x00\x03\x00\x00\x00\x1f\x00\x00\x00\x04\x00\x00\x00\x1f\x00\x00\x00\x05\x00\x00\x00\x1e\x00\x00\x00\x05\x00\x00\x00\x1e\x00\x00\x00\x04\x00\x00\x00\x1e\x00\x00\x00\x03\x00\x00\x00\x1e\x00\x00\x00\x02\x00\x00\x00\x1e\x00\x00\x00\x01\x00\x00\x00\x1d\x00\x00\x00\x01\x00\x00\x00\x1d\x00\x00\x00\x02\x00\x00\x00\x1d\x00\x00\x00\x03\x00\x00\x00\x1d\x00\x00\x00\x04\x00\x00\x00\x1d\x00\x00\x00\x05\x00\x00\x00\x1c\x00\x00\x00\x05\x00\x00\x00\x1c\x00\x00\x00\x04\x00\x00\x00\x1c\x00\x00\x00\x03\x00\x00\x00\x1c\x00\x00\x00\x02\x00\x00\x00\x1c\x00\x00\x00\x01\x00\x00\x00\x1b\x00\x00\x00\x01\x00\x00\x00\x1b\x00\x00\x00\x02\x00\x00\x00\x1b\x00\x00\x00\x03\x00\x00\x00\x1b\x00\x00\x00\x04\x00\x00\x00\x1b\x00\x00\x00\x05\x00\x00\x00\x1a\x00\x00\x00\x05\x00\x00\x00\x1a\x00\x00\x00\x04\x00\x00\x00\x1a\x00\x00\x00\x03\x00\x00\x00\x1a\x00\x00\x00\x02\x00\x00\x00\x1a\x00\x00\x00\x01\x00\x00\x00\x19\x00\x00\x00\x01\x00\x00\x00\x19\x00\x00\x00\x02\x00\x00\x00\x19\x00\x00\x00\x03\x00\x00\x00\x19\x00\x00\x00\x04\x00\x00\x00\x19\x00\x00\x00\x05\x00\x00\x00\x18\x00\x00\x00\x05\x00\x00\x00\x18\x00\x00\x00\x04\x00\x00\x00\x18\x00\x00\x00\x03\x00\x00\x00\x18\x00\x00\x00\x02\x00\x00\x00\x18\x00\x00\x00\x01\x00\x00\x00\x17\x00\x00\x00\x05\x00\x00\x00\x17\x00\x00\x00\x04\x00\x00\x00\x17\x00\x00\x00\x03\x00\x00\x00\x17\x00\x00\x00\x02\x00\x00\x00\x17\x00\x00\x00\x01\x00\x00\x00'
p3857
tp3858
bsg468
g469
sg470
g471
sg472
Nsg473
g474
(I784
I146
I60
I96
tp3859
Rp3860
sba.