(lp0
(i__main__
pickledNeuron
p1
(dp2
S'axons'
p3
(lp4
sS'nid'
p5
I9
sS'rf'
p6
I0
sS'tp'
p7
S'leftforward'
p8
sS'super_type'
p9
S'motor'
p10
sS'freq'
p11
NsS'rect'
p12
cpygame
__rect_constructor
p13
(I308
I478
I80
I49
tp14
Rp15
sba(i__main__
pickledNeuron
p16
(dp17
g3
(lp18
sg5
I11
sg6
I0
sg7
S'leftbackward'
p19
sg9
g10
sg11
Nsg12
g13
(I470
I475
I80
I52
tp20
Rp21
sba(i__main__
pickledNeuron
p22
(dp23
g3
(lp24
(dp25
S'start'
p26
I12
sS'points'
p27
(lp28
(lp29
F349.0
aF412.0
aa(lp30
F349.0
aF411.0
aa(lp31
F349.0
aF410.0
aa(lp32
F349.0
aF409.0
aa(lp33
F349.0
aF408.0
aa(lp34
F349.0
aF407.0
aa(lp35
F349.0
aF406.0
aa(lp36
F349.0
aF405.0
aa(lp37
F348.85714285714283
aF404.0
aa(lp38
F348.7142857142857
aF403.0
aa(lp39
F348.57142857142856
aF402.0
aa(lp40
F348.42857142857144
aF401.0
aa(lp41
F348.2857142857143
aF400.0
aa(lp42
F348.14285714285717
aF399.0
aa(lp43
F348.0
aF398.0
aa(lp44
F347.8333333333333
aF397.0
aa(lp45
F347.6666666666667
aF396.0
aa(lp46
F347.5
aF395.0
aa(lp47
F347.3333333333333
aF394.0
aa(lp48
F347.1666666666667
aF393.0
aa(lp49
F347.0
aF392.0
aa(lp50
F347.0
aF391.0
aa(lp51
F347.0
aF390.0
aa(lp52
F347.0
aF389.0
aa(lp53
F347.0
aF388.0
aa(lp54
F347.0
aF387.0
aa(lp55
F347.0
aF386.0
aa(lp56
F346.8333333333333
aF385.0
aa(lp57
F346.6666666666667
aF384.0
aa(lp58
F346.5
aF383.0
aa(lp59
F346.3333333333333
aF382.0
aa(lp60
F346.1666666666667
aF381.0
aa(lp61
F346.0
aF380.0
aa(lp62
F346.0
aF379.0
aa(lp63
F346.0
aF378.0
aa(lp64
F346.0
aF377.0
aa(lp65
F346.0
aF376.0
aa(lp66
F346.0
aF375.0
aa(lp67
F346.0
aF374.0
aa(lp68
F346.0
aF373.0
aa(lp69
F346.0
aF372.0
aa(lp70
F346.0
aF371.0
aa(lp71
F346.0
aF370.0
aa(lp72
F346.0
aF369.0
aa(lp73
F346.0
aF368.0
aa(lp74
F346.0
aF367.0
aa(lp75
F346.0
aF366.0
aa(lp76
F346.0
aF365.0
aa(lp77
F346.0
aF364.0
aa(lp78
F346.0
aF363.0
aa(lp79
F346.0
aF362.0
aa(lp80
F346.0
aF361.0
aa(lp81
F346.0
aF360.0
aa(lp82
F346.0
aF359.0
aa(lp83
F346.0
aF358.0
aa(lp84
F346.0
aF357.0
aa(lp85
F346.0
aF356.0
aa(lp86
F346.0
aF355.0
aa(lp87
F346.0
aF354.0
aa(lp88
F346.0
aF353.0
aa(lp89
F346.0
aF352.0
aa(lp90
F346.2
aF351.0
aa(lp91
F346.4
aF350.0
aa(lp92
F346.6
aF349.0
aa(lp93
F346.8
aF348.0
aa(lp94
F347.0
aF347.0
aa(lp95
F347.3333333333333
aF346.0
aa(lp96
F347.6666666666667
aF345.0
aa(lp97
F348.0
aF344.0
aa(lp98
F348.3333333333333
aF343.0
aa(lp99
F348.6666666666667
aF342.0
aa(lp100
F349.0
aF341.0
aa(lp101
F349.4
aF340.0
aa(lp102
F349.8
aF339.0
aa(lp103
F350.2
aF338.0
aa(lp104
F350.6
aF337.0
aa(lp105
F351.0
aF336.0
aa(lp106
F351.6666666666667
aF335.3333333333333
aa(lp107
F352.3333333333333
aF334.6666666666667
aasS'end'
p108
I8
sS'weight'
p109
F0.5
sa(dp110
g26
I12
sg27
(lp111
(lp112
F345.0
aF430.0
aa(lp113
F344.0
aF430.5
aa(lp114
F343.0
aF431.0
aa(lp115
F342.0
aF432.0
aa(lp116
F342.0
aF433.0
aa(lp117
F342.0
aF434.0
aa(lp118
F342.0
aF435.0
aa(lp119
F342.0
aF436.0
aa(lp120
F342.0
aF437.0
aa(lp121
F342.0
aF438.0
aa(lp122
F342.0
aF439.0
aa(lp123
F342.0
aF440.0
aa(lp124
F342.0
aF441.0
aa(lp125
F342.0
aF442.0
aa(lp126
F342.0
aF443.0
aa(lp127
F342.0
aF444.0
aa(lp128
F342.0
aF445.0
aa(lp129
F342.0
aF446.0
aa(lp130
F342.0
aF447.0
aa(lp131
F342.0
aF448.0
aa(lp132
F342.0
aF449.0
aa(lp133
F342.0
aF450.0
aa(lp134
F342.0
aF451.0
aa(lp135
F342.0
aF452.0
aa(lp136
F342.0
aF453.0
aa(lp137
F342.0
aF454.0
aa(lp138
F342.25
aF455.0
aa(lp139
F342.5
aF456.0
aa(lp140
F342.75
aF457.0
aa(lp141
F343.0
aF458.0
aa(lp142
F343.0
aF459.0
aa(lp143
F343.0
aF460.0
aa(lp144
F343.0
aF461.0
aa(lp145
F343.0
aF462.0
aa(lp146
F343.25
aF463.0
aa(lp147
F343.5
aF464.0
aa(lp148
F343.75
aF465.0
aa(lp149
F344.0
aF466.0
aa(lp150
F344.0
aF467.0
aa(lp151
F344.0
aF468.0
aa(lp152
F344.0
aF469.0
aa(lp153
F344.0
aF470.0
aa(lp154
F344.0
aF471.0
aa(lp155
F344.0
aF472.0
aa(lp156
F344.0
aF473.0
aa(lp157
F344.0
aF474.0
aa(lp158
F344.25
aF475.0
aa(lp159
F344.5
aF476.0
aa(lp160
F344.75
aF477.0
aa(lp161
F345.0
aF478.0
aa(lp162
F345.0
aF479.0
aa(lp163
F345.0
aF480.0
aa(lp164
F345.0
aF481.0
aa(lp165
F345.0
aF482.0
aa(lp166
F345.0
aF483.0
aa(lp167
F345.0
aF484.0
aa(lp168
F345.0
aF485.0
aa(lp169
F345.0
aF486.0
aa(lp170
F345.0
aF487.0
aa(lp171
F345.0
aF488.0
aa(lp172
F345.0
aF489.0
aa(lp173
F345.0
aF490.0
aa(lp174
F345.0
aF491.0
aa(lp175
F345.0
aF492.0
aa(lp176
F345.0
aF493.0
aa(lp177
F345.0
aF494.0
aa(lp178
F345.0
aF495.0
aasg108
I9
sg109
F0.5
sasg5
I12
sg6
I0
sg7
S'auditory'
p179
sg9
S'sensor'
p180
sg11
I328
sg12
g13
(I317
I379
I60
I96
tp181
Rp182
sba(i__main__
pickledNeuron
p183
(dp184
g3
(lp185
(dp186
g26
I14
sg27
(lp187
(lp188
F429.0
aF371.0
aa(lp189
F428.0
aF370.0
aa(lp190
F427.0
aF369.5
aa(lp191
F426.0
aF369.0
aa(lp192
F425.125
aF368.625
aa(lp193
F424.25
aF368.25
aa(lp194
F423.375
aF367.875
aa(lp195
F422.5
aF367.5
aa(lp196
F421.625
aF367.125
aa(lp197
F420.75
aF366.75
aa(lp198
F419.875
aF366.375
aa(lp199
F419.0
aF366.0
aa(lp200
F418.1666666666667
aF365.3333333333333
aa(lp201
F417.3333333333333
aF364.6666666666667
aa(lp202
F416.5
aF364.0
aa(lp203
F415.6666666666667
aF363.3333333333333
aa(lp204
F414.8333333333333
aF362.6666666666667
aa(lp205
F414.0
aF362.0
aa(lp206
F413.0
aF361.75
aa(lp207
F412.0
aF361.5
aa(lp208
F411.0
aF361.25
aa(lp209
F410.0
aF361.0
aa(lp210
F409.0
aF360.6
aa(lp211
F408.0
aF360.2
aa(lp212
F407.0
aF359.8
aa(lp213
F406.0
aF359.4
aa(lp214
F405.0
aF359.0
aa(lp215
F404.0
aF358.0
aa(lp216
F403.0
aF357.0
aa(lp217
F402.0
aF356.0
aa(lp218
F401.0
aF356.0
aa(lp219
F400.4
aF355.2
aa(lp220
F399.8
aF354.4
aa(lp221
F399.2
aF353.6
aa(lp222
F398.6
aF352.8
aa(lp223
F398.0
aF352.0
aa(lp224
F397.0
aF351.5
aa(lp225
F396.0
aF351.0
aa(lp226
F395.0
aF350.5
aa(lp227
F394.0
aF350.0
aa(lp228
F393.0
aF349.5
aa(lp229
F392.0
aF349.0
aa(lp230
F391.0
aF348.6
aa(lp231
F390.0
aF348.2
aa(lp232
F389.0
aF347.8
aa(lp233
F388.0
aF347.4
aa(lp234
F387.0
aF347.0
aa(lp235
F386.3333333333333
aF346.3333333333333
aa(lp236
F385.6666666666667
aF345.6666666666667
aa(lp237
F385.0
aF345.0
aa(lp238
F384.0
aF344.0
aa(lp239
F383.0
aF344.0
aa(lp240
F382.0
aF343.5
aa(lp241
F381.0
aF343.0
aa(lp242
F380.0
aF342.6666666666667
aa(lp243
F379.0
aF342.3333333333333
aa(lp244
F378.0
aF342.0
aa(lp245
F377.0
aF341.6666666666667
aa(lp246
F376.0
aF341.3333333333333
aa(lp247
F375.0
aF341.0
aa(lp248
F374.0
aF340.0
aa(lp249
F373.0
aF339.75
aa(lp250
F372.0
aF339.5
aa(lp251
F371.0
aF339.25
aasg108
I8
sg109
F0.5
sa(dp252
g26
I14
sg27
(lp253
(lp254
F442.0
aF436.0
aa(lp255
F443.0
aF437.0
aa(lp256
F444.0
aF438.0
aa(lp257
F444.6666666666667
aF438.6666666666667
aa(lp258
F445.3333333333333
aF439.3333333333333
aa(lp259
F446.0
aF440.0
aa(lp260
F447.0
aF441.0
aa(lp261
F447.5
aF441.8333333333333
aa(lp262
F448.0
aF442.6666666666667
aa(lp263
F448.5
aF443.5
aa(lp264
F449.0
aF444.3333333333333
aa(lp265
F449.5
aF445.1666666666667
aa(lp266
F450.0
aF446.0
aa(lp267
F451.0
aF447.0
aa(lp268
F452.0
aF448.0
aa(lp269
F453.0
aF449.0
aa(lp270
F453.6666666666667
aF449.6666666666667
aa(lp271
F454.3333333333333
aF450.3333333333333
aa(lp272
F455.0
aF451.0
aa(lp273
F455.6666666666667
aF451.6666666666667
aa(lp274
F456.3333333333333
aF452.3333333333333
aa(lp275
F457.0
aF453.0
aa(lp276
F457.6666666666667
aF453.6666666666667
aa(lp277
F458.3333333333333
aF454.3333333333333
aa(lp278
F459.0
aF455.0
aa(lp279
F459.6666666666667
aF455.6666666666667
aa(lp280
F460.3333333333333
aF456.3333333333333
aa(lp281
F461.0
aF457.0
aa(lp282
F461.6666666666667
aF457.6666666666667
aa(lp283
F462.3333333333333
aF458.3333333333333
aa(lp284
F463.0
aF459.0
aa(lp285
F463.6
aF459.8
aa(lp286
F464.2
aF460.6
aa(lp287
F464.8
aF461.4
aa(lp288
F465.4
aF462.2
aa(lp289
F466.0
aF463.0
aa(lp290
F467.0
aF463.5
aa(lp291
F468.0
aF464.0
aa(lp292
F468.6666666666667
aF464.6666666666667
aa(lp293
F469.3333333333333
aF465.3333333333333
aa(lp294
F470.0
aF466.0
aa(lp295
F471.0
aF467.0
aa(lp296
F471.75
aF467.5
aa(lp297
F472.5
aF468.0
aa(lp298
F473.25
aF468.5
aa(lp299
F474.0
aF469.0
aa(lp300
F474.5
aF469.75
aa(lp301
F475.0
aF470.5
aa(lp302
F475.5
aF471.25
aa(lp303
F476.0
aF472.0
aa(lp304
F477.0
aF473.0
aa(lp305
F477.6666666666667
aF473.6666666666667
aa(lp306
F478.3333333333333
aF474.3333333333333
aa(lp307
F479.0
aF475.0
aa(lp308
F480.0
aF475.5
aa(lp309
F481.0
aF476.0
aa(lp310
F481.6666666666667
aF476.6666666666667
aa(lp311
F482.3333333333333
aF477.3333333333333
aa(lp312
F483.0
aF478.0
aa(lp313
F483.5
aF479.0
aa(lp314
F484.0
aF480.0
aa(lp315
F485.0
aF481.0
aa(lp316
F486.0
aF482.0
aasg108
I11
sg109
F0.5
sasg5
I14
sg6
I0
sg7
g179
sg9
g180
sg11
I195
sg12
g13
(I405
I351
I60
I96
tp317
Rp318
sba(i__main__
pickledNeuron
p319
(dp320
g3
(lp321
(dp322
g26
I15
sg27
(lp323
(lp324
F427.0
aF520.0
aa(lp325
F427.0
aF521.0
aa(lp326
F427.0
aF522.0
aa(lp327
F427.0
aF523.0
aa(lp328
F427.0
aF524.0
aa(lp329
F427.0
aF525.0
aa(lp330
F427.0
aF526.0
aa(lp331
F427.0
aF527.0
aa(lp332
F427.0
aF528.0
aa(lp333
F427.0
aF529.0
aa(lp334
F427.0
aF530.0
aa(lp335
F427.0
aF531.0
aa(lp336
F427.0
aF532.0
aa(lp337
F427.0
aF533.0
aa(lp338
F427.0
aF534.0
aa(lp339
F427.0
aF535.0
aa(lp340
F427.0
aF536.0
aa(lp341
F427.0
aF537.0
aa(lp342
F427.0
aF538.0
aa(lp343
F427.0
aF539.0
aa(lp344
F427.0
aF540.0
aa(lp345
F426.6
aF541.0
aa(lp346
F426.2
aF542.0
aa(lp347
F425.8
aF543.0
aa(lp348
F425.4
aF544.0
aa(lp349
F425.0
aF545.0
aa(lp350
F424.3333333333333
aF545.6666666666666
aa(lp351
F423.6666666666667
aF546.3333333333334
aa(lp352
F423.0
aF547.0
aa(lp353
F422.3333333333333
aF547.6666666666666
aa(lp354
F421.6666666666667
aF548.3333333333334
aa(lp355
F421.0
aF549.0
aa(lp356
F420.3333333333333
aF549.8333333333334
aa(lp357
F419.6666666666667
aF550.6666666666666
aa(lp358
F419.0
aF551.5
aa(lp359
F418.3333333333333
aF552.3333333333334
aa(lp360
F417.6666666666667
aF553.1666666666666
aa(lp361
F417.0
aF554.0
aa(lp362
F416.5
aF555.0
aa(lp363
F416.0
aF556.0
aa(lp364
F415.6666666666667
aF557.0
aa(lp365
F415.3333333333333
aF558.0
aa(lp366
F415.0
aF559.0
aa(lp367
F414.5
aF560.0
aa(lp368
F414.0
aF561.0
aa(lp369
F413.5
aF562.0
aa(lp370
F413.0
aF563.0
aa(lp371
F412.0
aF564.0
aa(lp372
F411.0
aF564.0
aa(lp373
F410.0
aF565.0
aa(lp374
F409.0
aF565.0
aa(lp375
F408.0
aF565.0
aa(lp376
F407.0
aF565.0
aa(lp377
F406.0
aF565.0
aa(lp378
F405.0
aF565.0
aa(lp379
F404.0
aF565.0
aa(lp380
F403.0
aF565.0
aa(lp381
F402.0
aF565.0
aa(lp382
F401.0
aF565.0
aa(lp383
F400.0
aF564.0
aa(lp384
F399.0
aF563.6666666666666
aa(lp385
F398.0
aF563.3333333333334
aa(lp386
F397.0
aF563.0
aa(lp387
F396.3333333333333
aF562.3333333333334
aa(lp388
F395.6666666666667
aF561.6666666666666
aa(lp389
F395.0
aF561.0
aa(lp390
F394.3333333333333
aF560.3333333333334
aa(lp391
F393.6666666666667
aF559.6666666666666
aa(lp392
F393.0
aF559.0
aa(lp393
F392.0
aF558.5
aa(lp394
F391.0
aF558.0
aa(lp395
F390.0
aF557.5
aa(lp396
F389.0
aF557.0
aa(lp397
F388.25
aF556.25
aa(lp398
F387.5
aF555.5
aa(lp399
F386.75
aF554.75
aa(lp400
F386.0
aF554.0
aa(lp401
F385.25
aF553.375
aa(lp402
F384.5
aF552.75
aa(lp403
F383.75
aF552.125
aa(lp404
F383.0
aF551.5
aa(lp405
F382.25
aF550.875
aa(lp406
F381.5
aF550.25
aa(lp407
F380.75
aF549.625
aa(lp408
F380.0
aF549.0
aa(lp409
F379.1666666666667
aF548.3333333333334
aa(lp410
F378.3333333333333
aF547.6666666666666
aa(lp411
F377.5
aF547.0
aa(lp412
F376.6666666666667
aF546.3333333333334
aa(lp413
F375.8333333333333
aF545.6666666666666
aa(lp414
F375.0
aF545.0
aa(lp415
F374.5
aF544.0
aa(lp416
F374.0
aF543.0
aa(lp417
F373.2
aF542.4
aa(lp418
F372.4
aF541.8
aa(lp419
F371.6
aF541.2
aa(lp420
F370.8
aF540.6
aa(lp421
F370.0
aF540.0
aa(lp422
F369.3333333333333
aF539.3333333333334
aa(lp423
F368.6666666666667
aF538.6666666666666
aa(lp424
F368.0
aF538.0
aa(lp425
F367.0
aF537.0
aa(lp426
F366.6666666666667
aF536.0
aa(lp427
F366.3333333333333
aF535.0
aa(lp428
F366.0
aF534.0
aa(lp429
F365.3333333333333
aF533.3333333333334
aa(lp430
F364.6666666666667
aF532.6666666666666
aa(lp431
F364.0
aF532.0
aa(lp432
F363.6666666666667
aF531.0
aa(lp433
F363.3333333333333
aF530.0
aa(lp434
F363.0
aF529.0
aa(lp435
F362.5
aF528.0
aa(lp436
F362.0
aF527.0
aa(lp437
F361.5
aF526.0
aa(lp438
F361.0
aF525.0
aa(lp439
F360.5
aF524.1666666666666
aa(lp440
F360.0
aF523.3333333333334
aa(lp441
F359.5
aF522.5
aa(lp442
F359.0
aF521.6666666666666
aa(lp443
F358.5
aF520.8333333333334
aa(lp444
F358.0
aF520.0
aa(lp445
F357.3333333333333
aF519.3333333333334
aa(lp446
F356.6666666666667
aF518.6666666666666
aa(lp447
F356.0
aF518.0
aa(lp448
F355.3333333333333
aF517.3333333333334
aa(lp449
F354.6666666666667
aF516.6666666666666
aa(lp450
F354.0
aF516.0
aa(lp451
F353.3333333333333
aF515.3333333333334
aa(lp452
F352.6666666666667
aF514.6666666666666
aa(lp453
F352.0
aF514.0
aa(lp454
F351.0
aF513.0
aa(lp455
F350.3333333333333
aF512.3333333333334
aa(lp456
F349.6666666666667
aF511.6666666666667
aasg108
I9
sg109
F0.5
sa(dp457
g26
I15
sg27
(lp458
(lp459
F425.0
aF476.0
aa(lp460
F426.0
aF476.0
aa(lp461
F427.0
aF476.0
aa(lp462
F427.6666666666667
aF475.3333333333333
aa(lp463
F428.3333333333333
aF474.6666666666667
aa(lp464
F429.0
aF474.0
aa(lp465
F429.5
aF473.0
aa(lp466
F430.0
aF472.0
aa(lp467
F430.5
aF471.0
aa(lp468
F431.0
aF470.0
aa(lp469
F431.7142857142857
aF469.2857142857143
aa(lp470
F432.42857142857144
aF468.57142857142856
aa(lp471
F433.14285714285717
aF467.85714285714283
aa(lp472
F433.85714285714283
aF467.14285714285717
aa(lp473
F434.57142857142856
aF466.42857142857144
aa(lp474
F435.2857142857143
aF465.7142857142857
aa(lp475
F436.0
aF465.0
aa(lp476
F436.55555555555554
aF464.22222222222223
aa(lp477
F437.1111111111111
aF463.44444444444446
aa(lp478
F437.6666666666667
aF462.6666666666667
aa(lp479
F438.22222222222223
aF461.8888888888889
aa(lp480
F438.77777777777777
aF461.1111111111111
aa(lp481
F439.3333333333333
aF460.3333333333333
aa(lp482
F439.8888888888889
aF459.55555555555554
aa(lp483
F440.44444444444446
aF458.77777777777777
aa(lp484
F441.0
aF458.0
aa(lp485
F441.5
aF457.25
aa(lp486
F442.0
aF456.5
aa(lp487
F442.5
aF455.75
aa(lp488
F443.0
aF455.0
aa(lp489
F443.57142857142856
aF454.14285714285717
aa(lp490
F444.14285714285717
aF453.2857142857143
aa(lp491
F444.7142857142857
aF452.42857142857144
aa(lp492
F445.2857142857143
aF451.57142857142856
aa(lp493
F445.85714285714283
aF450.7142857142857
aa(lp494
F446.42857142857144
aF449.85714285714283
aa(lp495
F447.0
aF449.0
aa(lp496
F447.5
aF448.25
aa(lp497
F448.0
aF447.5
aa(lp498
F448.5
aF446.75
aa(lp499
F449.0
aF446.0
aa(lp500
F449.5
aF445.1666666666667
aa(lp501
F450.0
aF444.3333333333333
aa(lp502
F450.5
aF443.5
aa(lp503
F451.0
aF442.6666666666667
aa(lp504
F451.5
aF441.8333333333333
aa(lp505
F452.0
aF441.0
aa(lp506
F452.5
aF440.0
aa(lp507
F453.0
aF439.0
aa(lp508
F453.5
aF438.0
aa(lp509
F454.0
aF437.0
aa(lp510
F454.6666666666667
aF436.3333333333333
aa(lp511
F455.3333333333333
aF435.6666666666667
aa(lp512
F456.0
aF435.0
aa(lp513
F456.6666666666667
aF434.3333333333333
aa(lp514
F457.3333333333333
aF433.6666666666667
aa(lp515
F458.0
aF433.0
aa(lp516
F458.5
aF432.25
aa(lp517
F459.0
aF431.5
aa(lp518
F459.5
aF430.75
aa(lp519
F460.0
aF430.0
aa(lp520
F460.3333333333333
aF429.0
aa(lp521
F460.6666666666667
aF428.0
aa(lp522
F461.0
aF427.0
aa(lp523
F461.3333333333333
aF426.0
aa(lp524
F461.6666666666667
aF425.0
aa(lp525
F462.0
aF424.0
aa(lp526
F462.5
aF423.0
aa(lp527
F463.0
aF422.0
aa(lp528
F463.25
aF421.0
aa(lp529
F463.5
aF420.0
aa(lp530
F463.75
aF419.0
aa(lp531
F464.0
aF418.0
aa(lp532
F464.25
aF417.0
aa(lp533
F464.5
aF416.0
aa(lp534
F464.75
aF415.0
aa(lp535
F465.0
aF414.0
aa(lp536
F465.25
aF413.0
aa(lp537
F465.5
aF412.0
aa(lp538
F465.75
aF411.0
aa(lp539
F466.0
aF410.0
aa(lp540
F466.25
aF409.0
aa(lp541
F466.5
aF408.0
aa(lp542
F466.75
aF407.0
aa(lp543
F467.0
aF406.0
aa(lp544
F467.4
aF405.0
aa(lp545
F467.8
aF404.0
aa(lp546
F468.2
aF403.0
aa(lp547
F468.6
aF402.0
aa(lp548
F469.0
aF401.0
aa(lp549
F469.5
aF400.1666666666667
aa(lp550
F470.0
aF399.3333333333333
aa(lp551
F470.5
aF398.5
aa(lp552
F471.0
aF397.6666666666667
aa(lp553
F471.5
aF396.8333333333333
aa(lp554
F472.0
aF396.0
aa(lp555
F472.42857142857144
aF395.14285714285717
aa(lp556
F472.85714285714283
aF394.2857142857143
aa(lp557
F473.2857142857143
aF393.42857142857144
aa(lp558
F473.7142857142857
aF392.57142857142856
aa(lp559
F474.14285714285717
aF391.7142857142857
aa(lp560
F474.57142857142856
aF390.85714285714283
aa(lp561
F475.0
aF390.0
aa(lp562
F475.6
aF389.2
aa(lp563
F476.2
aF388.4
aa(lp564
F476.8
aF387.6
aa(lp565
F477.4
aF386.8
aa(lp566
F478.0
aF386.0
aa(lp567
F478.42857142857144
aF385.14285714285717
aa(lp568
F478.85714285714283
aF384.2857142857143
aa(lp569
F479.2857142857143
aF383.42857142857144
aa(lp570
F479.7142857142857
aF382.57142857142856
aa(lp571
F480.14285714285717
aF381.7142857142857
aa(lp572
F480.57142857142856
aF380.85714285714283
aa(lp573
F481.0
aF380.0
aa(lp574
F481.25
aF379.0
aa(lp575
F481.5
aF378.0
aa(lp576
F481.75
aF377.0
aa(lp577
F482.0
aF376.0
aa(lp578
F482.25
aF375.0
aa(lp579
F482.5
aF374.0
aa(lp580
F482.75
aF373.0
aa(lp581
F483.0
aF372.0
aa(lp582
F483.5
aF371.0
aa(lp583
F484.0
aF370.0
aa(lp584
F484.5
aF369.0
aa(lp585
F485.0
aF368.0
aa(lp586
F485.6666666666667
aF367.3333333333333
aa(lp587
F486.3333333333333
aF366.6666666666667
aa(lp588
F487.0
aF366.0
aa(lp589
F487.25
aF365.0
aa(lp590
F487.5
aF364.0
aa(lp591
F487.75
aF363.0
aa(lp592
F488.0
aF362.0
aa(lp593
F488.75
aF361.5
aa(lp594
F489.5
aF361.0
aa(lp595
F490.25
aF360.5
aa(lp596
F491.0
aF360.0
aa(lp597
F492.0
aF359.0
aa(lp598
F492.5
aF358.0
aa(lp599
F493.0
aF357.0
aa(lp600
F494.0
aF356.0
aa(lp601
F494.5
aF355.25
aa(lp602
F495.0
aF354.5
aa(lp603
F495.5
aF353.75
aa(lp604
F496.0
aF353.0
aa(lp605
F496.75
aF352.25
aa(lp606
F497.5
aF351.5
aa(lp607
F498.25
aF350.75
aa(lp608
F499.0
aF350.0
aa(lp609
F499.3333333333333
aF349.0
aa(lp610
F499.6666666666667
aF348.0
aa(lp611
F500.0
aF347.0
aa(lp612
F500.5
aF346.25
aa(lp613
F501.0
aF345.5
aa(lp614
F501.5
aF344.75
aa(lp615
F502.0
aF344.0
aa(lp616
F503.0
aF343.0
aa(lp617
F503.5
aF342.0
aa(lp618
F504.0
aF341.0
aa(lp619
F504.5
aF340.0
aa(lp620
F505.0
aF339.0
aa(lp621
F506.0
aF338.0
aa(lp622
F506.5
aF337.25
aa(lp623
F507.0
aF336.5
aa(lp624
F507.5
aF335.75
aasg108
I10
sg109
F0.5
sasg5
I15
sg6
I0
sg7
g179
sg9
g180
sg11
I146
sg12
g13
(I399
I437
I60
I96
tp625
Rp626
sba(i__main__
pickledNeuron
p627
(dp628
g3
(lp629
sg5
I8
sg6
I0
sg7
S'rightforward'
p630
sg9
g10
sg11
Nsg12
g13
(I311
I317
I80
I51
tp631
Rp632
sba(i__main__
pickledNeuron
p633
(dp634
g3
(lp635
(dp636
g26
I13
sg27
(lp637
(lp638
F517.0
aF417.0
aa(lp639
F517.0
aF416.0
aa(lp640
F517.0
aF415.0
aa(lp641
F517.0
aF414.0
aa(lp642
F517.0
aF413.0
aa(lp643
F517.0
aF412.0
aa(lp644
F517.0
aF411.0
aa(lp645
F517.0
aF410.0
aa(lp646
F517.1818181818181
aF409.0
aa(lp647
F517.3636363636364
aF408.0
aa(lp648
F517.5454545454545
aF407.0
aa(lp649
F517.7272727272727
aF406.0
aa(lp650
F517.9090909090909
aF405.0
aa(lp651
F518.0909090909091
aF404.0
aa(lp652
F518.2727272727273
aF403.0
aa(lp653
F518.4545454545455
aF402.0
aa(lp654
F518.6363636363636
aF401.0
aa(lp655
F518.8181818181819
aF400.0
aa(lp656
F519.0
aF399.0
aa(lp657
F519.1666666666666
aF398.0
aa(lp658
F519.3333333333334
aF397.0
aa(lp659
F519.5
aF396.0
aa(lp660
F519.6666666666666
aF395.0
aa(lp661
F519.8333333333334
aF394.0
aa(lp662
F520.0
aF393.0
aa(lp663
F520.1666666666666
aF392.0
aa(lp664
F520.3333333333334
aF391.0
aa(lp665
F520.5
aF390.0
aa(lp666
F520.6666666666666
aF389.0
aa(lp667
F520.8333333333334
aF388.0
aa(lp668
F521.0
aF387.0
aa(lp669
F521.25
aF386.0
aa(lp670
F521.5
aF385.0
aa(lp671
F521.75
aF384.0
aa(lp672
F522.0
aF383.0
aa(lp673
F522.25
aF382.0
aa(lp674
F522.5
aF381.0
aa(lp675
F522.75
aF380.0
aa(lp676
F523.0
aF379.0
aa(lp677
F523.3333333333334
aF378.0
aa(lp678
F523.6666666666666
aF377.0
aa(lp679
F524.0
aF376.0
aa(lp680
F524.0
aF375.0
aa(lp681
F524.0
aF374.0
aa(lp682
F524.0
aF373.0
aa(lp683
F524.0
aF372.0
aa(lp684
F524.0
aF371.0
aa(lp685
F524.0
aF370.0
aa(lp686
F524.3333333333334
aF369.0
aa(lp687
F524.6666666666666
aF368.0
aa(lp688
F525.0
aF367.0
aa(lp689
F525.5
aF366.0
aa(lp690
F526.0
aF365.0
aa(lp691
F526.2
aF364.0
aa(lp692
F526.4
aF363.0
aa(lp693
F526.6
aF362.0
aa(lp694
F526.8
aF361.0
aa(lp695
F527.0
aF360.0
aa(lp696
F527.25
aF359.0
aa(lp697
F527.5
aF358.0
aa(lp698
F527.75
aF357.0
aa(lp699
F528.0
aF356.0
aa(lp700
F528.3333333333334
aF355.0
aa(lp701
F528.6666666666666
aF354.0
aa(lp702
F529.0
aF353.0
aa(lp703
F529.3333333333334
aF352.0
aa(lp704
F529.6666666666666
aF351.0
aa(lp705
F530.0
aF350.0
aa(lp706
F530.5
aF349.1666666666667
aa(lp707
F531.0
aF348.3333333333333
aa(lp708
F531.5
aF347.5
aa(lp709
F532.0
aF346.6666666666667
aa(lp710
F532.5
aF345.8333333333333
aa(lp711
F533.0
aF345.0
aa(lp712
F533.0
aF344.0
aa(lp713
F533.0
aF343.0
aa(lp714
F533.0
aF342.0
aa(lp715
F533.3333333333334
aF341.0
aa(lp716
F533.6666666666666
aF340.0
aa(lp717
F534.0
aF339.0
aa(lp718
F534.0
aF338.0
aa(lp719
F534.0
aF337.0
aasg108
I10
sg109
F0.5
sa(dp720
g26
I13
sg27
(lp721
(lp722
F520.0
aF429.0
aa(lp723
F520.0
aF430.0
aa(lp724
F520.0
aF431.0
aa(lp725
F520.0
aF432.0
aa(lp726
F520.0
aF433.0
aa(lp727
F520.0
aF434.0
aa(lp728
F520.0
aF435.0
aa(lp729
F520.0
aF436.0
aa(lp730
F520.0
aF437.0
aa(lp731
F520.0
aF438.0
aa(lp732
F520.0
aF439.0
aa(lp733
F520.0
aF440.0
aa(lp734
F520.0
aF441.0
aa(lp735
F520.0
aF442.0
aa(lp736
F520.0
aF443.0
aa(lp737
F520.0
aF444.0
aa(lp738
F520.0
aF445.0
aa(lp739
F520.0
aF446.0
aa(lp740
F520.0
aF447.0
aa(lp741
F520.0
aF448.0
aa(lp742
F520.0
aF449.0
aa(lp743
F520.0
aF450.0
aa(lp744
F520.0
aF451.0
aa(lp745
F520.0
aF452.0
aa(lp746
F520.0
aF453.0
aa(lp747
F520.0
aF454.0
aa(lp748
F520.0
aF455.0
aa(lp749
F520.0
aF456.0
aa(lp750
F520.0
aF457.0
aa(lp751
F520.0
aF458.0
aa(lp752
F520.0
aF459.0
aa(lp753
F519.7142857142857
aF460.0
aa(lp754
F519.4285714285714
aF461.0
aa(lp755
F519.1428571428571
aF462.0
aa(lp756
F518.8571428571429
aF463.0
aa(lp757
F518.5714285714286
aF464.0
aa(lp758
F518.2857142857143
aF465.0
aa(lp759
F518.0
aF466.0
aa(lp760
F518.0
aF467.0
aa(lp761
F518.0
aF468.0
aa(lp762
F518.0
aF469.0
aa(lp763
F518.0
aF470.0
aa(lp764
F518.0
aF471.0
aa(lp765
F518.0
aF472.0
aa(lp766
F518.0
aF473.0
aa(lp767
F518.0
aF474.0
aa(lp768
F518.0
aF475.0
aa(lp769
F518.0
aF476.0
aa(lp770
F518.0
aF477.0
aa(lp771
F518.0
aF478.0
aa(lp772
F518.0
aF479.0
aa(lp773
F518.0
aF480.0
aa(lp774
F517.6666666666666
aF481.0
aa(lp775
F517.3333333333334
aF482.0
aa(lp776
F517.0
aF483.0
aa(lp777
F516.6666666666666
aF484.0
aa(lp778
F516.3333333333334
aF485.0
aa(lp779
F516.0
aF486.0
aa(lp780
F515.6666666666666
aF487.0
aa(lp781
F515.3333333333334
aF488.0
aa(lp782
F515.0
aF489.0
aa(lp783
F515.0
aF490.0
aa(lp784
F515.0
aF491.0
aa(lp785
F515.0
aF492.0
aa(lp786
F515.0
aF493.0
aa(lp787
F514.5
aF494.0
aasg108
I11
sg109
F0.5
sasg5
I13
sg6
I0
sg7
g179
sg9
g180
sg11
I245
sg12
g13
(I491
I373
I60
I96
tp788
Rp789
sba(i__main__
pickledNeuron
p790
(dp791
g3
(lp792
sg5
I10
sg6
I0
sg7
S'rightbackward'
p793
sg9
g10
sg11
Nsg12
g13
(I486
I317
I80
I51
tp794
Rp795
sba.