(lp0
(i__main__
pickledNeuron
p1
(dp2
S'axons'
p3
(lp4
(dp5
S'start'
p6
I4
sS'points'
p7
(lp8
(lp9
F780.0
aF309.0
aa(lp10
F779.0
aF309.5
aa(lp11
F778.0
aF310.0
aa(lp12
F777.0
aF310.5
aa(lp13
F776.0
aF311.0
aa(lp14
F775.0
aF311.5
aa(lp15
F774.0
aF312.0
aa(lp16
F773.0
aF312.5
aa(lp17
F772.0
aF313.0
aa(lp18
F771.0
aF313.5
aa(lp19
F770.0
aF314.0
aa(lp20
F769.0
aF314.5
aa(lp21
F768.0
aF315.0
aa(lp22
F767.0
aF315.5
aa(lp23
F766.0
aF316.0
aa(lp24
F765.0
aF316.3333333333333
aa(lp25
F764.0
aF316.6666666666667
aa(lp26
F763.0
aF317.0
aa(lp27
F762.0
aF317.5
aa(lp28
F761.0
aF318.0
aa(lp29
F760.0
aF318.5
aa(lp30
F759.0
aF319.0
aa(lp31
F758.0
aF319.5
aa(lp32
F757.0
aF320.0
aa(lp33
F756.0
aF320.3333333333333
aa(lp34
F755.0
aF320.6666666666667
aa(lp35
F754.0
aF321.0
aa(lp36
F753.0
aF321.0
aa(lp37
F752.0
aF321.5
aa(lp38
F751.0
aF322.0
aa(lp39
F750.0
aF322.3333333333333
aa(lp40
F749.0
aF322.6666666666667
aa(lp41
F748.0
aF323.0
aa(lp42
F747.0
aF323.5
aa(lp43
F746.0
aF324.0
aa(lp44
F745.0
aF324.3333333333333
aa(lp45
F744.0
aF324.6666666666667
aa(lp46
F743.0
aF325.0
aa(lp47
F742.0
aF325.5
aa(lp48
F741.0
aF326.0
aa(lp49
F740.0
aF326.3333333333333
aa(lp50
F739.0
aF326.6666666666667
aa(lp51
F738.0
aF327.0
aa(lp52
F737.0
aF327.3333333333333
aa(lp53
F736.0
aF327.6666666666667
aa(lp54
F735.0
aF328.0
aa(lp55
F734.0
aF328.3333333333333
aa(lp56
F733.0
aF328.6666666666667
aa(lp57
F732.0
aF329.0
aa(lp58
F731.0
aF329.0
aa(lp59
F730.0
aF329.0
aa(lp60
F729.0
aF329.0
aa(lp61
F728.0
aF329.3333333333333
aa(lp62
F727.0
aF329.6666666666667
aa(lp63
F726.0
aF330.0
aa(lp64
F725.0
aF330.3333333333333
aa(lp65
F724.0
aF330.6666666666667
aa(lp66
F723.0
aF331.0
aa(lp67
F722.0
aF331.0
aa(lp68
F721.0
aF331.0
aa(lp69
F720.0
aF331.0
aa(lp70
F719.0
aF331.5
aa(lp71
F718.0
aF332.0
aa(lp72
F717.0
aF332.5
aa(lp73
F716.0
aF333.0
aa(lp74
F715.0
aF333.3333333333333
aa(lp75
F714.0
aF333.6666666666667
aa(lp76
F713.0
aF334.0
aa(lp77
F712.0
aF334.0
aa(lp78
F711.0
aF334.0
aa(lp79
F710.0
aF335.0
aa(lp80
F709.0
aF335.0
aa(lp81
F708.0
aF335.0
aa(lp82
F707.0
aF335.3333333333333
aa(lp83
F706.0
aF335.6666666666667
aa(lp84
F705.0
aF336.0
aa(lp85
F704.0
aF336.0
aa(lp86
F703.0
aF336.0
aa(lp87
F702.0
aF336.5
aa(lp88
F701.0
aF337.0
aa(lp89
F700.0
aF337.0
aa(lp90
F699.0
aF337.0
aa(lp91
F698.0
aF337.0
aa(lp92
F697.0
aF337.0
aa(lp93
F696.0
aF337.3333333333333
aa(lp94
F695.0
aF337.6666666666667
aa(lp95
F694.0
aF338.0
aa(lp96
F693.0
aF338.0
aa(lp97
F692.0
aF338.0
aa(lp98
F691.0
aF338.0
aa(lp99
F690.0
aF338.3333333333333
aa(lp100
F689.0
aF338.6666666666667
aa(lp101
F688.0
aF339.0
aa(lp102
F687.0
aF339.0
aa(lp103
F686.0
aF339.0
aa(lp104
F685.0
aF339.0
aa(lp105
F684.0
aF339.25
aa(lp106
F683.0
aF339.5
aa(lp107
F682.0
aF339.75
aa(lp108
F681.0
aF340.0
aa(lp109
F680.0
aF340.0
aa(lp110
F679.0
aF340.0
aa(lp111
F678.0
aF340.0
aa(lp112
F677.0
aF340.5
aa(lp113
F676.0
aF341.0
aa(lp114
F675.0
aF341.0
aa(lp115
F674.0
aF341.0
aa(lp116
F673.0
aF341.0
aa(lp117
F672.0
aF341.0
aa(lp118
F671.0
aF341.0
aa(lp119
F670.0
aF342.0
aa(lp120
F669.0
aF342.0
aa(lp121
F668.0
aF342.5
aa(lp122
F667.0
aF343.0
aa(lp123
F666.0
aF343.0
aa(lp124
F665.0
aF343.0
aa(lp125
F664.0
aF343.5
aa(lp126
F663.0
aF344.0
aa(lp127
F662.0
aF344.0
aa(lp128
F661.0
aF344.0
aa(lp129
F660.0
aF344.0
aa(lp130
F659.0
aF345.0
aa(lp131
F658.0
aF345.0
aa(lp132
F657.0
aF345.0
aa(lp133
F656.0
aF345.5
aa(lp134
F655.0
aF346.0
aa(lp135
F654.0
aF346.0
aa(lp136
F653.0
aF347.0
aa(lp137
F652.0
aF347.0
aa(lp138
F651.0
aF347.0
aa(lp139
F650.0
aF347.0
aa(lp140
F649.0
aF347.5
aa(lp141
F648.0
aF348.0
aa(lp142
F647.0
aF348.0
aa(lp143
F646.0
aF348.0
aa(lp144
F645.0
aF348.0
aa(lp145
F644.0
aF348.0
aa(lp146
F643.0
aF349.0
aa(lp147
F642.0
aF349.3333333333333
aa(lp148
F641.0
aF349.6666666666667
aa(lp149
F640.0
aF350.0
aa(lp150
F639.0
aF350.0
aa(lp151
F638.0
aF350.0
aa(lp152
F637.0
aF350.0
aa(lp153
F636.0
aF350.5
aa(lp154
F635.0
aF351.0
aa(lp155
F634.0
aF351.0
aa(lp156
F633.0
aF351.0
aa(lp157
F632.0
aF351.0
aa(lp158
F631.0
aF351.0
aasS'end'
p159
I1
sS'weight'
p160
F0.1
sasS'nid'
p161
I4
sS'rf'
p162
I0
sS'tp'
p163
S'inhibitory'
p164
sS'super_type'
p165
S'neuron'
p166
sS'freq'
p167
NsS'rect'
p168
cpygame
__rect_constructor
p169
(I748
I266
I73
I76
tp170
Rp171
sba(i__main__
pickledNeuron
p172
(dp173
g3
(lp174
sg161
I0
sg162
I0
sg163
S'excitatory'
p175
sg165
g166
sg167
Nsg168
g169
(I602
I476
I60
I96
tp176
Rp177
sba(i__main__
pickledNeuron
p178
(dp179
g3
(lp180
(dp181
g6
I2
sg7
(lp182
(lp183
F505.0
aF305.0
aa(lp184
F506.0
aF305.5
aa(lp185
F507.0
aF306.0
aa(lp186
F507.6666666666667
aF306.6666666666667
aa(lp187
F508.3333333333333
aF307.3333333333333
aa(lp188
F509.0
aF308.0
aa(lp189
F509.6666666666667
aF308.6666666666667
aa(lp190
F510.3333333333333
aF309.3333333333333
aa(lp191
F511.0
aF310.0
aa(lp192
F512.0
aF310.3333333333333
aa(lp193
F513.0
aF310.6666666666667
aa(lp194
F514.0
aF311.0
aa(lp195
F514.75
aF311.5
aa(lp196
F515.5
aF312.0
aa(lp197
F516.25
aF312.5
aa(lp198
F517.0
aF313.0
aa(lp199
F518.0
aF313.5
aa(lp200
F519.0
aF314.0
aa(lp201
F519.75
aF314.5
aa(lp202
F520.5
aF315.0
aa(lp203
F521.25
aF315.5
aa(lp204
F522.0
aF316.0
aa(lp205
F523.0
aF316.5
aa(lp206
F524.0
aF317.0
aa(lp207
F524.5
aF318.0
aa(lp208
F525.0
aF319.0
aa(lp209
F526.0
aF319.5
aa(lp210
F527.0
aF320.0
aa(lp211
F527.6666666666666
aF320.6666666666667
aa(lp212
F528.3333333333334
aF321.3333333333333
aa(lp213
F529.0
aF322.0
aa(lp214
F530.0
aF322.0
aa(lp215
F531.0
aF322.0
aa(lp216
F531.5
aF323.0
aa(lp217
F532.0
aF324.0
aa(lp218
F533.0
aF324.3333333333333
aa(lp219
F534.0
aF324.6666666666667
aa(lp220
F535.0
aF325.0
aa(lp221
F536.0
aF326.0
aa(lp222
F537.0
aF326.5
aa(lp223
F538.0
aF327.0
aa(lp224
F539.0
aF328.0
aa(lp225
F540.0
aF328.5
aa(lp226
F541.0
aF329.0
aa(lp227
F542.0
aF330.0
aa(lp228
F543.0
aF331.0
aa(lp229
F544.0
aF332.0
aa(lp230
F545.0
aF332.5
aa(lp231
F546.0
aF333.0
aa(lp232
F547.0
aF334.0
aa(lp233
F548.0
aF335.0
aa(lp234
F549.0
aF336.0
aa(lp235
F550.0
aF336.0
aa(lp236
F550.0
aF337.0
aa(lp237
F551.0
aF338.0
aa(lp238
F552.0
aF338.0
aa(lp239
F552.0
aF339.0
aa(lp240
F552.6666666666666
aF339.6666666666667
aa(lp241
F553.3333333333334
aF340.3333333333333
aa(lp242
F554.0
aF341.0
aa(lp243
F555.0
aF341.0
aa(lp244
F556.0
aF342.0
aa(lp245
F557.0
aF343.0
aa(lp246
F558.0
aF343.0
aa(lp247
F559.0
aF344.0
aa(lp248
F560.0
aF345.0
aa(lp249
F561.0
aF346.0
aa(lp250
F562.0
aF346.0
aa(lp251
F563.0
aF347.0
aa(lp252
F564.0
aF348.0
aa(lp253
F565.0
aF348.0
aa(lp254
F566.0
aF348.0
aa(lp255
F566.5
aF349.0
aa(lp256
F567.0
aF350.0
aa(lp257
F568.0
aF350.0
aa(lp258
F569.0
aF351.0
aa(lp259
F570.0
aF352.0
aa(lp260
F571.0
aF352.0
aa(lp261
F572.0
aF352.0
aa(lp262
F572.5
aF353.0
aa(lp263
F573.0
aF354.0
aa(lp264
F574.0
aF354.0
aa(lp265
F575.0
aF354.5
aa(lp266
F576.0
aF355.0
aa(lp267
F576.0
aF356.0
aa(lp268
F577.0
aF356.0
aa(lp269
F578.0
aF356.5
aa(lp270
F579.0
aF357.0
aa(lp271
F580.0
aF358.0
aa(lp272
F581.0
aF359.0
aa(lp273
F582.0
aF359.5
aa(lp274
F583.0
aF360.0
aa(lp275
F584.0
aF360.0
aa(lp276
F584.6666666666666
aF360.6666666666667
aa(lp277
F585.3333333333334
aF361.3333333333333
aa(lp278
F586.0
aF362.0
aa(lp279
F587.0
aF362.0
aa(lp280
F588.0
aF362.0
aa(lp281
F588.5
aF363.0
aa(lp282
F589.0
aF364.0
aa(lp283
F590.0
aF365.0
aa(lp284
F591.0
aF365.5
aa(lp285
F592.0
aF366.0
aa(lp286
F593.0
aF366.0
aa(lp287
F594.0
aF366.0
aa(lp288
F595.0
aF366.5
aa(lp289
F596.0
aF367.0
aa(lp290
F596.0
aF368.0
aa(lp291
F596.0
aF369.0
aa(lp292
F597.0
aF369.5
aa(lp293
F598.0
aF370.0
aa(lp294
F599.0
aF370.5
aa(lp295
F600.0
aF371.0
aa(lp296
F601.0
aF372.0
aa(lp297
F602.0
aF373.0
aa(lp298
F603.0
aF373.0
aa(lp299
F604.0
aF374.0
aa(lp300
F605.0
aF375.0
aa(lp301
F606.0
aF375.0
aa(lp302
F607.0
aF376.0
aa(lp303
F608.0
aF377.0
aa(lp304
F609.0
aF377.0
aa(lp305
F610.0
aF377.0
aa(lp306
F611.0
aF377.5
aa(lp307
F612.0
aF378.0
aa(lp308
F612.0
aF379.0
aa(lp309
F613.0
aF379.0
aa(lp310
F614.0
aF379.0
aa(lp311
F614.0
aF380.0
aa(lp312
F615.0
aF381.0
aa(lp313
F616.0
aF381.0
aa(lp314
F616.0
aF382.0
aa(lp315
F617.0
aF382.0
aa(lp316
F618.0
aF382.0
aa(lp317
F618.0
aF383.0
aasg159
I1
sg160
F0.1
sasg161
I2
sg162
I0
sg163
g175
sg165
g166
sg167
Nsg168
g169
(I478
I219
I60
I96
tp318
Rp319
sba(i__main__
pickledNeuron
p320
(dp321
g3
(lp322
(dp323
g6
I6
sg7
(lp324
(lp325
F876.0
aF271.0
aa(lp326
F875.0
aF271.0
aa(lp327
F874.0
aF271.5
aa(lp328
F873.0
aF272.0
aa(lp329
F872.0
aF272.5
aa(lp330
F871.0
aF273.0
aa(lp331
F870.3333333333334
aF273.6666666666667
aa(lp332
F869.6666666666666
aF274.3333333333333
aa(lp333
F869.0
aF275.0
aa(lp334
F868.0
aF275.3333333333333
aa(lp335
F867.0
aF275.6666666666667
aa(lp336
F866.0
aF276.0
aa(lp337
F865.0
aF276.3333333333333
aa(lp338
F864.0
aF276.6666666666667
aa(lp339
F863.0
aF277.0
aa(lp340
F862.0
aF277.5
aa(lp341
F861.0
aF278.0
aa(lp342
F860.0
aF278.3333333333333
aa(lp343
F859.0
aF278.6666666666667
aa(lp344
F858.0
aF279.0
aa(lp345
F857.0
aF279.0
aa(lp346
F856.0
aF279.0
aa(lp347
F855.0
aF280.0
aa(lp348
F854.0
aF280.0
aa(lp349
F853.0
aF280.0
aa(lp350
F852.0
aF281.0
aa(lp351
F851.0
aF281.0
aa(lp352
F850.0
aF281.0
aa(lp353
F849.0
aF282.0
aa(lp354
F848.0
aF282.0
aa(lp355
F847.0
aF282.0
aa(lp356
F846.0
aF283.0
aa(lp357
F845.0
aF283.0
aa(lp358
F844.0
aF283.0
aa(lp359
F843.0
aF283.5
aa(lp360
F842.0
aF284.0
aa(lp361
F841.0
aF285.0
aa(lp362
F840.0
aF285.0
aa(lp363
F839.0
aF285.0
aa(lp364
F838.0
aF285.0
aa(lp365
F837.3333333333334
aF285.6666666666667
aa(lp366
F836.6666666666666
aF286.3333333333333
aa(lp367
F836.0
aF287.0
aa(lp368
F835.0
aF287.0
aa(lp369
F834.0
aF287.0
aa(lp370
F833.0
aF287.0
aa(lp371
F832.0
aF287.5
aa(lp372
F831.0
aF288.0
aa(lp373
F830.0
aF288.3333333333333
aa(lp374
F829.0
aF288.6666666666667
aa(lp375
F828.0
aF289.0
aa(lp376
F827.0
aF289.0
aa(lp377
F826.0
aF289.0
aa(lp378
F825.0
aF289.3333333333333
aa(lp379
F824.0
aF289.6666666666667
aa(lp380
F823.0
aF290.0
aa(lp381
F822.0
aF290.0
aa(lp382
F821.0
aF290.0
aa(lp383
F820.0
aF290.0
aa(lp384
F819.0
aF290.0
aa(lp385
F818.0
aF290.0
aa(lp386
F817.0
aF290.0
aa(lp387
F816.0
aF290.0
aa(lp388
F815.0
aF290.0
aa(lp389
F814.0
aF290.5
aa(lp390
F813.0
aF291.0
aa(lp391
F812.0
aF291.0
aa(lp392
F811.0
aF291.0
aa(lp393
F810.0
aF291.0
aa(lp394
F809.0
aF291.0
aa(lp395
F808.0
aF291.0
aa(lp396
F807.0
aF291.0
aa(lp397
F806.0
aF291.0
aa(lp398
F805.0
aF291.0
aa(lp399
F804.0
aF291.0
aa(lp400
F803.0
aF291.0
aa(lp401
F802.0
aF291.0
aa(lp402
F801.0
aF291.0
aa(lp403
F800.0
aF291.0
aa(lp404
F799.0
aF291.0
aasg159
I4
sg160
F0.1
sa(dp405
g6
I6
sg7
(lp406
(lp407
F882.0
aF313.0
aa(lp408
F882.0
aF314.0
aa(lp409
F882.0
aF315.0
aa(lp410
F882.0
aF316.0
aa(lp411
F882.0
aF317.0
aa(lp412
F882.0
aF318.0
aa(lp413
F881.6666666666666
aF319.0
aa(lp414
F881.3333333333334
aF320.0
aa(lp415
F881.0
aF321.0
aa(lp416
F881.0
aF322.0
aa(lp417
F881.0
aF323.0
aa(lp418
F881.0
aF324.0
aa(lp419
F881.0
aF325.0
aa(lp420
F881.0
aF326.0
aa(lp421
F881.0
aF327.0
aa(lp422
F881.0
aF328.0
aa(lp423
F880.5
aF329.0
aa(lp424
F880.0
aF330.0
aa(lp425
F880.0
aF331.0
aa(lp426
F880.0
aF332.0
aa(lp427
F880.0
aF333.0
aa(lp428
F880.0
aF334.0
aa(lp429
F880.0
aF335.0
aa(lp430
F880.0
aF336.0
aa(lp431
F880.0
aF337.0
aa(lp432
F880.0
aF338.0
aa(lp433
F880.0
aF339.0
aa(lp434
F880.0
aF340.0
aa(lp435
F880.0
aF341.0
aa(lp436
F879.0
aF342.0
aa(lp437
F879.0
aF343.0
aa(lp438
F879.0
aF344.0
aa(lp439
F879.0
aF345.0
aa(lp440
F879.0
aF346.0
aa(lp441
F879.0
aF347.0
aa(lp442
F878.5
aF348.0
aa(lp443
F878.0
aF349.0
aa(lp444
F878.0
aF350.0
aa(lp445
F878.0
aF351.0
aa(lp446
F878.0
aF352.0
aa(lp447
F877.5
aF353.0
aa(lp448
F877.0
aF354.0
aa(lp449
F877.0
aF355.0
aa(lp450
F877.0
aF356.0
aa(lp451
F877.0
aF357.0
aa(lp452
F877.0
aF358.0
aa(lp453
F877.0
aF359.0
aa(lp454
F876.6666666666666
aF360.0
aa(lp455
F876.3333333333334
aF361.0
aa(lp456
F876.0
aF362.0
aa(lp457
F875.5
aF363.0
aa(lp458
F875.0
aF364.0
aa(lp459
F875.0
aF365.0
aa(lp460
F874.5
aF366.0
aa(lp461
F874.0
aF367.0
aa(lp462
F873.5
aF368.0
aa(lp463
F873.0
aF369.0
aa(lp464
F873.0
aF370.0
aa(lp465
F873.0
aF371.0
aa(lp466
F872.5
aF372.0
aa(lp467
F872.0
aF373.0
aa(lp468
F871.3333333333334
aF373.6666666666667
aa(lp469
F870.6666666666666
aF374.3333333333333
aa(lp470
F870.0
aF375.0
aa(lp471
F870.0
aF376.0
aa(lp472
F870.0
aF377.0
aa(lp473
F869.5
aF378.0
aa(lp474
F869.0
aF379.0
aa(lp475
F868.3333333333334
aF379.6666666666667
aa(lp476
F867.6666666666666
aF380.3333333333333
aa(lp477
F867.0
aF381.0
aa(lp478
F866.0
aF381.5
aa(lp479
F865.0
aF382.0
aa(lp480
F864.0
aF382.5
aa(lp481
F863.0
aF383.0
aa(lp482
F862.3333333333334
aF383.6666666666667
aa(lp483
F861.6666666666666
aF384.3333333333333
aa(lp484
F861.0
aF385.0
aa(lp485
F860.0
aF386.0
aa(lp486
F859.0
aF386.3333333333333
aa(lp487
F858.0
aF386.6666666666667
aa(lp488
F857.0
aF387.0
aa(lp489
F856.0
aF388.0
aa(lp490
F855.3333333333334
aF388.6666666666667
aa(lp491
F854.6666666666666
aF389.3333333333333
aa(lp492
F854.0
aF390.0
aa(lp493
F853.0
aF390.0
aa(lp494
F852.0
aF390.0
aa(lp495
F851.3333333333334
aF390.6666666666667
aa(lp496
F850.6666666666666
aF391.3333333333333
aa(lp497
F850.0
aF392.0
aa(lp498
F849.0
aF392.0
aa(lp499
F848.0
aF392.0
aa(lp500
F847.0
aF392.0
aa(lp501
F846.0
aF392.5
aa(lp502
F845.0
aF393.0
aa(lp503
F844.0
aF393.3333333333333
aa(lp504
F843.0
aF393.6666666666667
aa(lp505
F842.0
aF394.0
aa(lp506
F841.0
aF394.5
aa(lp507
F840.0
aF395.0
aa(lp508
F839.0
aF395.0
aa(lp509
F838.0
aF395.0
aa(lp510
F837.0
aF395.0
aa(lp511
F836.0
aF395.0
aa(lp512
F835.0
aF395.5
aa(lp513
F834.0
aF396.0
aa(lp514
F833.0
aF396.0
aa(lp515
F832.0
aF396.0
aa(lp516
F831.0
aF396.0
aa(lp517
F830.0
aF396.0
aa(lp518
F829.0
aF396.0
aa(lp519
F828.0
aF396.0
aa(lp520
F827.0
aF396.0
aa(lp521
F826.0
aF396.0
aa(lp522
F825.0
aF396.0
aa(lp523
F824.0
aF396.3333333333333
aa(lp524
F823.0
aF396.6666666666667
aa(lp525
F822.0
aF397.0
aa(lp526
F821.0
aF397.0
aa(lp527
F820.0
aF397.0
aa(lp528
F819.0
aF397.0
aa(lp529
F818.0
aF397.0
aa(lp530
F817.0
aF397.0
aa(lp531
F816.0
aF397.0
aa(lp532
F815.0
aF397.0
aa(lp533
F814.0
aF397.0
aa(lp534
F813.0
aF397.0
aa(lp535
F812.0
aF397.0
aa(lp536
F811.0
aF397.0
aa(lp537
F810.0
aF397.0
aa(lp538
F809.0
aF397.0
aa(lp539
F808.0
aF397.0
aa(lp540
F807.0
aF396.75
aa(lp541
F806.0
aF396.5
aa(lp542
F805.0
aF396.25
aa(lp543
F804.0
aF396.0
aa(lp544
F803.0
aF396.0
aa(lp545
F802.0
aF396.0
aa(lp546
F801.0
aF396.0
aa(lp547
F800.0
aF396.0
aa(lp548
F799.0
aF396.0
aa(lp549
F798.0
aF396.0
aa(lp550
F797.0
aF396.0
aa(lp551
F796.0
aF396.0
aa(lp552
F795.0
aF396.0
aa(lp553
F794.0
aF396.0
aa(lp554
F793.0
aF396.0
aa(lp555
F792.0
aF395.75
aa(lp556
F791.0
aF395.5
aa(lp557
F790.0
aF395.25
aa(lp558
F789.0
aF395.0
aa(lp559
F788.0
aF394.8
aa(lp560
F787.0
aF394.6
aa(lp561
F786.0
aF394.4
aa(lp562
F785.0
aF394.2
aa(lp563
F784.0
aF394.0
aa(lp564
F783.0
aF394.0
aa(lp565
F782.0
aF394.0
aa(lp566
F781.0
aF394.0
aa(lp567
F780.0
aF394.0
aa(lp568
F779.0
aF394.0
aa(lp569
F778.0
aF394.0
aa(lp570
F777.0
aF393.6
aa(lp571
F776.0
aF393.2
aa(lp572
F775.0
aF392.8
aa(lp573
F774.0
aF392.4
aa(lp574
F773.0
aF392.0
aa(lp575
F772.0
aF391.8
aa(lp576
F771.0
aF391.6
aa(lp577
F770.0
aF391.4
aa(lp578
F769.0
aF391.2
aa(lp579
F768.0
aF391.0
aa(lp580
F767.0
aF390.6666666666667
aa(lp581
F766.0
aF390.3333333333333
aa(lp582
F765.0
aF390.0
aa(lp583
F764.0
aF389.6666666666667
aa(lp584
F763.0
aF389.3333333333333
aa(lp585
F762.0
aF389.0
aa(lp586
F761.0
aF388.8
aa(lp587
F760.0
aF388.6
aa(lp588
F759.0
aF388.4
aa(lp589
F758.0
aF388.2
aa(lp590
F757.0
aF388.0
aa(lp591
F756.0
aF387.6
aa(lp592
F755.0
aF387.2
aa(lp593
F754.0
aF386.8
aa(lp594
F753.0
aF386.4
aa(lp595
F752.0
aF386.0
aa(lp596
F751.0
aF385.8333333333333
aa(lp597
F750.0
aF385.6666666666667
aa(lp598
F749.0
aF385.5
aa(lp599
F748.0
aF385.3333333333333
aa(lp600
F747.0
aF385.1666666666667
aa(lp601
F746.0
aF385.0
aa(lp602
F745.0
aF384.5
aa(lp603
F744.0
aF384.0
aa(lp604
F743.0
aF383.5
aa(lp605
F742.0
aF383.0
aa(lp606
F741.0
aF382.5
aa(lp607
F740.0
aF382.0
aa(lp608
F739.0
aF381.5
aa(lp609
F738.0
aF381.0
aa(lp610
F737.0
aF380.0
aa(lp611
F736.0
aF379.5
aa(lp612
F735.0
aF379.0
aa(lp613
F734.0
aF379.0
aa(lp614
F733.0
aF378.0
aa(lp615
F732.0
aF378.0
aa(lp616
F731.0
aF378.0
aa(lp617
F730.0
aF378.0
aa(lp618
F729.0
aF377.5
aa(lp619
F728.0
aF377.0
aa(lp620
F727.0
aF377.0
aa(lp621
F726.0
aF377.0
aa(lp622
F725.0
aF377.0
aa(lp623
F725.0
aF378.0
aa(lp624
F724.0
aF378.0
aa(lp625
F723.0
aF378.0
aa(lp626
F722.0
aF378.5
aa(lp627
F721.0
aF379.0
aa(lp628
F720.0
aF380.0
aa(lp629
F719.0
aF381.0
aa(lp630
F718.0
aF382.0
aa(lp631
F717.0
aF382.5
aa(lp632
F716.0
aF383.0
aa(lp633
F715.0
aF384.0
aa(lp634
F715.0
aF385.0
aa(lp635
F715.0
aF386.0
aa(lp636
F714.3333333333334
aF386.6666666666667
aa(lp637
F713.6666666666666
aF387.3333333333333
aa(lp638
F713.0
aF388.0
aa(lp639
F713.0
aF389.0
aa(lp640
F712.3333333333334
aF389.6666666666667
aa(lp641
F711.6666666666666
aF390.3333333333333
aa(lp642
F711.0
aF391.0
aa(lp643
F711.0
aF392.0
aa(lp644
F710.5
aF393.0
aa(lp645
F710.0
aF394.0
aa(lp646
F709.0
aF395.0
aa(lp647
F709.0
aF396.0
aa(lp648
F709.0
aF397.0
aa(lp649
F708.0
aF398.0
aa(lp650
F707.5
aF399.0
aa(lp651
F707.0
aF400.0
aa(lp652
F707.0
aF401.0
aa(lp653
F706.5
aF402.0
aa(lp654
F706.0
aF403.0
aa(lp655
F705.5
aF404.0
aa(lp656
F705.0
aF405.0
aa(lp657
F704.5
aF406.0
aa(lp658
F704.0
aF407.0
aa(lp659
F703.0
aF408.0
aa(lp660
F702.5
aF409.0
aa(lp661
F702.0
aF410.0
aa(lp662
F701.0
aF410.5
aa(lp663
F700.0
aF411.0
aa(lp664
F699.0
aF412.0
aa(lp665
F698.0
aF412.5
aa(lp666
F697.0
aF413.0
aa(lp667
F696.5
aF414.0
aa(lp668
F696.0
aF415.0
aa(lp669
F695.0
aF415.5
aa(lp670
F694.0
aF416.0
aa(lp671
F694.0
aF417.0
aa(lp672
F693.0
aF417.5
aa(lp673
F692.0
aF418.0
aa(lp674
F691.0
aF418.5
aa(lp675
F690.0
aF419.0
aa(lp676
F689.0
aF419.0
aa(lp677
F688.0
aF420.0
aa(lp678
F687.0
aF420.0
aa(lp679
F686.0
aF420.5
aa(lp680
F685.0
aF421.0
aa(lp681
F684.0
aF421.0
aa(lp682
F683.0
aF421.0
aa(lp683
F682.0
aF421.0
aa(lp684
F681.0
aF421.0
aa(lp685
F680.0
aF421.0
aa(lp686
F679.0
aF421.0
aa(lp687
F678.0
aF421.0
aa(lp688
F677.0
aF421.0
aa(lp689
F676.0
aF421.0
aa(lp690
F675.0
aF421.0
aa(lp691
F674.0
aF421.0
aa(lp692
F673.0
aF421.0
aa(lp693
F672.0
aF421.0
aa(lp694
F671.0
aF421.0
aa(lp695
F670.0
aF420.0
aa(lp696
F669.0
aF419.5
aa(lp697
F668.0
aF419.0
aa(lp698
F667.0
aF418.0
aa(lp699
F666.0
aF418.0
aa(lp700
F665.0
aF418.0
aa(lp701
F664.0
aF417.0
aa(lp702
F663.0
aF416.5
aa(lp703
F662.0
aF416.0
aa(lp704
F661.0
aF415.0
aa(lp705
F660.0
aF414.5
aa(lp706
F659.0
aF414.0
aa(lp707
F658.0
aF413.0
aa(lp708
F657.0
aF412.5
aa(lp709
F656.0
aF412.0
aa(lp710
F655.0
aF411.5
aa(lp711
F654.0
aF411.0
aa(lp712
F653.0
aF410.0
aa(lp713
F652.0
aF409.0
aa(lp714
F651.0
aF409.0
aa(lp715
F650.0
aF409.0
aa(lp716
F649.0
aF408.0
aa(lp717
F648.0
aF407.0
aa(lp718
F647.0
aF407.0
aa(lp719
F646.0
aF406.0
aa(lp720
F645.0
aF406.0
aa(lp721
F644.0
aF405.0
aa(lp722
F643.0
aF404.0
aa(lp723
F642.0
aF404.0
aa(lp724
F641.0
aF404.0
aa(lp725
F640.0
aF403.0
aa(lp726
F639.0
aF402.5
aa(lp727
F638.0
aF402.0
aa(lp728
F637.0
aF401.0
aa(lp729
F636.0
aF400.0
aa(lp730
F635.0
aF400.0
aa(lp731
F635.0
aF399.0
aa(lp732
F634.0
aF399.0
aa(lp733
F633.0
aF399.0
aa(lp734
F633.0
aF398.0
aa(lp735
F632.0
aF398.0
aa(lp736
F632.0
aF397.0
aasg159
I1
sg160
F0.05
sasg161
I6
sg162
I0
sg163
S'auditory'
p737
sg165
S'sensor'
p738
sg167
I440
sg168
g169
(I852
I225
I60
I96
tp739
Rp740
sba(i__main__
pickledNeuron
p741
(dp742
g3
(lp743
(dp744
g6
I1
sg7
(lp745
(lp746
F620.0
aF391.0
aa(lp747
F620.0
aF392.0
aa(lp748
F620.0
aF393.0
aa(lp749
F620.0
aF394.0
aa(lp750
F620.0
aF395.0
aa(lp751
F620.0
aF396.0
aa(lp752
F620.0
aF397.0
aa(lp753
F620.0
aF398.0
aa(lp754
F620.0
aF399.0
aa(lp755
F620.0
aF400.0
aa(lp756
F620.0
aF401.0
aa(lp757
F620.0
aF402.0
aa(lp758
F620.0
aF403.0
aa(lp759
F620.0
aF404.0
aa(lp760
F620.0
aF405.0
aa(lp761
F620.5
aF406.0
aa(lp762
F621.0
aF407.0
aa(lp763
F621.0
aF408.0
aa(lp764
F621.0
aF409.0
aa(lp765
F621.0
aF410.0
aa(lp766
F621.0
aF411.0
aa(lp767
F621.0
aF412.0
aa(lp768
F621.0
aF413.0
aa(lp769
F621.3333333333334
aF414.0
aa(lp770
F621.6666666666666
aF415.0
aa(lp771
F622.0
aF416.0
aa(lp772
F622.5
aF417.0
aa(lp773
F623.0
aF418.0
aa(lp774
F623.0
aF419.0
aa(lp775
F623.0
aF420.0
aa(lp776
F623.0
aF421.0
aa(lp777
F623.0
aF422.0
aa(lp778
F623.0
aF423.0
aa(lp779
F623.5
aF424.0
aa(lp780
F624.0
aF425.0
aa(lp781
F624.0
aF426.0
aa(lp782
F624.0
aF427.0
aa(lp783
F624.0
aF428.0
aa(lp784
F624.5
aF429.0
aa(lp785
F625.0
aF430.0
aa(lp786
F625.0
aF431.0
aa(lp787
F625.0
aF432.0
aa(lp788
F625.0
aF433.0
aa(lp789
F625.0
aF434.0
aa(lp790
F625.0
aF435.0
aa(lp791
F625.0
aF436.0
aa(lp792
F625.0
aF437.0
aa(lp793
F625.5
aF438.0
aa(lp794
F626.0
aF439.0
aa(lp795
F626.0
aF440.0
aa(lp796
F626.0
aF441.0
aa(lp797
F626.0
aF442.0
aa(lp798
F626.0
aF443.0
aa(lp799
F626.0
aF444.0
aa(lp800
F626.0
aF445.0
aa(lp801
F626.0
aF446.0
aa(lp802
F626.0
aF447.0
aa(lp803
F626.5
aF448.0
aa(lp804
F627.0
aF449.0
aa(lp805
F627.0
aF450.0
aa(lp806
F627.0
aF451.0
aa(lp807
F627.0
aF452.0
aa(lp808
F627.0
aF453.0
aa(lp809
F627.0
aF454.0
aa(lp810
F627.0
aF455.0
aa(lp811
F627.5
aF456.0
aa(lp812
F628.0
aF457.0
aa(lp813
F628.0
aF458.0
aa(lp814
F628.0
aF459.0
aa(lp815
F628.0
aF460.0
aa(lp816
F628.0
aF461.0
aa(lp817
F628.5
aF462.0
aa(lp818
F629.0
aF463.0
aa(lp819
F629.0
aF464.0
aa(lp820
F629.0
aF465.0
aa(lp821
F629.0
aF466.0
aa(lp822
F629.0
aF467.0
aa(lp823
F629.0
aF468.0
aa(lp824
F629.0
aF469.0
aa(lp825
F629.0
aF470.0
aa(lp826
F629.0
aF471.0
aa(lp827
F629.0
aF472.0
aa(lp828
F629.0
aF473.0
aa(lp829
F629.0
aF474.0
aa(lp830
F629.0
aF475.0
aa(lp831
F629.0
aF476.0
aa(lp832
F629.0
aF477.0
aa(lp833
F629.0
aF478.0
aa(lp834
F629.0
aF479.0
aa(lp835
F629.0
aF480.0
aa(lp836
F629.0
aF481.0
aa(lp837
F629.0
aF482.0
aa(lp838
F629.0
aF483.0
aa(lp839
F629.0
aF484.0
aa(lp840
F629.0
aF485.0
aa(lp841
F629.0
aF486.0
aa(lp842
F629.0
aF487.0
aa(lp843
F629.0
aF488.0
aa(lp844
F629.0
aF489.0
aa(lp845
F629.0
aF490.0
aa(lp846
F629.0
aF491.0
aa(lp847
F629.0
aF492.0
aa(lp848
F629.0
aF493.0
aa(lp849
F629.0
aF494.0
aa(lp850
F629.0
aF495.0
aa(lp851
F629.0
aF496.0
aa(lp852
F629.0
aF497.0
aa(lp853
F629.0
aF498.0
aa(lp854
F629.0
aF499.0
aa(lp855
F629.0
aF500.0
aa(lp856
F629.0
aF501.0
aa(lp857
F629.0
aF502.0
aa(lp858
F629.0
aF503.0
aa(lp859
F629.0
aF504.0
aa(lp860
F629.0
aF505.0
aa(lp861
F629.0
aF506.0
aa(lp862
F629.0
aF507.0
aa(lp863
F629.0
aF508.0
aa(lp864
F629.0
aF509.0
aa(lp865
F629.0
aF510.0
aa(lp866
F629.0
aF511.0
aa(lp867
F629.0
aF512.0
aa(lp868
F628.0
aF513.0
aa(lp869
F628.0
aF514.0
aa(lp870
F628.0
aF515.0
aa(lp871
F628.0
aF516.0
aa(lp872
F628.0
aF517.0
aa(lp873
F628.0
aF518.0
aa(lp874
F628.0
aF519.0
aa(lp875
F628.0
aF520.0
aa(lp876
F628.0
aF521.0
aa(lp877
F628.0
aF522.0
aasg159
I0
sg160
F0.1
sasg161
I1
sg162
I0
sg163
g175
sg165
g166
sg167
Nsg168
g169
(I600
I313
I60
I96
tp878
Rp879
sba.