(lp0
(i__main__
pickledNeuron
p1
(dp2
S'axons'
p3
(lp4
(dp5
S'start'
p6
I0
sS'points'
p7
(lp8
(lp9
F525.0
aF385.0
aa(lp10
F525.0
aF386.0
aa(lp11
F526.0
aF386.0
aa(lp12
F526.5
aF387.0
aa(lp13
F527.0
aF388.0
aa(lp14
F527.0
aF389.0
aa(lp15
F527.3333333333334
aF390.0
aa(lp16
F527.6666666666666
aF391.0
aa(lp17
F528.0
aF392.0
aa(lp18
F528.0
aF393.0
aa(lp19
F528.0
aF394.0
aa(lp20
F528.3333333333334
aF395.0
aa(lp21
F528.6666666666666
aF396.0
aa(lp22
F529.0
aF397.0
aa(lp23
F529.0
aF398.0
aa(lp24
F529.0
aF399.0
aa(lp25
F529.3333333333334
aF400.0
aa(lp26
F529.6666666666666
aF401.0
aa(lp27
F530.0
aF402.0
aa(lp28
F530.0
aF403.0
aa(lp29
F530.0
aF404.0
aa(lp30
F530.0
aF405.0
aa(lp31
F530.5
aF406.0
aa(lp32
F531.0
aF407.0
aa(lp33
F531.0
aF408.0
aa(lp34
F531.0
aF409.0
aa(lp35
F531.0
aF410.0
aa(lp36
F531.0
aF411.0
aa(lp37
F531.0
aF412.0
aa(lp38
F531.0
aF413.0
aa(lp39
F531.3333333333334
aF414.0
aa(lp40
F531.6666666666666
aF415.0
aa(lp41
F532.0
aF416.0
aa(lp42
F532.0
aF417.0
aa(lp43
F532.0
aF418.0
aa(lp44
F532.5
aF419.0
aa(lp45
F533.0
aF420.0
aa(lp46
F533.0
aF421.0
aa(lp47
F533.0
aF422.0
aa(lp48
F533.0
aF423.0
aa(lp49
F533.0
aF424.0
aa(lp50
F533.0
aF425.0
aa(lp51
F533.0
aF426.0
aa(lp52
F533.0
aF427.0
aa(lp53
F533.5
aF428.0
aa(lp54
F534.0
aF429.0
aa(lp55
F534.0
aF430.0
aa(lp56
F534.0
aF431.0
aa(lp57
F534.0
aF432.0
aa(lp58
F534.0
aF433.0
aa(lp59
F534.0
aF434.0
aa(lp60
F534.0
aF435.0
aa(lp61
F534.0
aF436.0
aa(lp62
F534.0
aF437.0
aa(lp63
F534.0
aF438.0
aa(lp64
F534.0
aF439.0
aa(lp65
F534.0
aF440.0
aa(lp66
F534.0
aF441.0
aa(lp67
F534.0
aF442.0
aa(lp68
F534.0
aF443.0
aa(lp69
F533.5
aF444.0
aa(lp70
F533.0
aF445.0
aa(lp71
F533.0
aF446.0
aa(lp72
F533.0
aF447.0
aa(lp73
F533.0
aF448.0
aa(lp74
F532.5
aF449.0
aa(lp75
F532.0
aF450.0
aa(lp76
F531.5
aF451.0
aa(lp77
F531.0
aF452.0
aa(lp78
F531.0
aF453.0
aa(lp79
F531.0
aF454.0
aa(lp80
F531.0
aF455.0
aa(lp81
F531.0
aF456.0
aa(lp82
F531.0
aF457.0
aa(lp83
F531.0
aF458.0
aa(lp84
F531.0
aF459.0
aa(lp85
F530.5
aF460.0
aa(lp86
F530.0
aF461.0
aa(lp87
F530.0
aF462.0
aa(lp88
F530.0
aF463.0
aa(lp89
F529.6666666666666
aF464.0
aa(lp90
F529.3333333333334
aF465.0
aa(lp91
F529.0
aF466.0
aa(lp92
F529.0
aF467.0
aa(lp93
F529.0
aF468.0
aa(lp94
F528.6666666666666
aF469.0
aa(lp95
F528.3333333333334
aF470.0
aa(lp96
F528.0
aF471.0
aa(lp97
F527.6666666666666
aF472.0
aa(lp98
F527.3333333333334
aF473.0
aa(lp99
F527.0
aF474.0
aa(lp100
F527.0
aF475.0
aa(lp101
F527.0
aF476.0
aa(lp102
F527.0
aF477.0
aa(lp103
F527.0
aF478.0
aa(lp104
F527.0
aF479.0
aa(lp105
F527.0
aF480.0
aa(lp106
F526.5
aF481.0
aa(lp107
F526.0
aF482.0
aa(lp108
F526.0
aF483.0
aa(lp109
F526.0
aF484.0
aa(lp110
F526.0
aF485.0
aa(lp111
F526.0
aF486.0
aa(lp112
F526.0
aF487.0
aa(lp113
F526.0
aF488.0
aa(lp114
F526.0
aF489.0
aa(lp115
F525.0
aF490.0
aa(lp116
F525.0
aF491.0
aa(lp117
F525.0
aF492.0
aa(lp118
F525.0
aF493.0
aa(lp119
F525.0
aF494.0
aa(lp120
F525.0
aF495.0
aa(lp121
F524.0
aF496.0
aa(lp122
F524.0
aF497.0
aa(lp123
F523.0
aF498.0
aa(lp124
F522.0
aF499.0
aa(lp125
F522.0
aF500.0
aa(lp126
F521.0
aF501.0
aa(lp127
F520.0
aF502.0
aa(lp128
F520.0
aF503.0
aa(lp129
F519.0
aF503.0
aa(lp130
F518.0
aF503.0
aa(lp131
F517.0
aF503.5
aa(lp132
F516.0
aF504.0
aa(lp133
F515.0
aF504.0
aa(lp134
F514.0
aF504.0
aa(lp135
F513.0
aF504.0
aa(lp136
F512.0
aF504.0
aa(lp137
F511.0
aF504.0
aa(lp138
F510.0
aF504.0
aa(lp139
F509.0
aF504.0
aa(lp140
F508.0
aF504.0
aa(lp141
F507.0
aF504.0
aa(lp142
F506.0
aF504.0
aa(lp143
F505.0
aF504.0
aa(lp144
F504.0
aF504.0
aa(lp145
F503.0
aF504.0
aa(lp146
F502.0
aF504.0
aa(lp147
F501.0
aF504.0
aa(lp148
F500.0
aF503.5
aa(lp149
F499.0
aF503.0
aa(lp150
F498.0
aF503.0
aa(lp151
F498.0
aF502.0
aa(lp152
F497.0
aF502.0
aa(lp153
F496.0
aF502.0
aa(lp154
F496.0
aF501.0
aa(lp155
F495.0
aF500.0
aa(lp156
F495.0
aF499.0
aa(lp157
F495.0
aF498.0
aa(lp158
F494.0
aF497.0
aa(lp159
F494.0
aF496.0
aa(lp160
F494.0
aF495.0
aa(lp161
F494.0
aF494.0
aa(lp162
F494.0
aF493.0
aa(lp163
F494.0
aF492.0
aa(lp164
F494.0
aF491.0
aa(lp165
F495.0
aF490.0
aa(lp166
F495.0
aF489.0
aa(lp167
F495.0
aF488.0
aa(lp168
F496.0
aF487.0
aa(lp169
F496.0
aF486.0
aa(lp170
F497.0
aF485.0
aa(lp171
F497.0
aF484.0
aa(lp172
F498.0
aF484.0
aa(lp173
F498.0
aF483.0
aa(lp174
F498.0
aF482.0
aa(lp175
F499.0
aF481.0
aa(lp176
F499.0
aF480.0
aa(lp177
F500.0
aF479.0
aa(lp178
F500.0
aF478.0
aa(lp179
F501.0
aF478.0
aa(lp180
F501.0
aF477.0
aa(lp181
F502.0
aF477.0
aa(lp182
F502.0
aF476.0
aa(lp183
F503.0
aF476.0
aa(lp184
F503.0
aF475.0
aa(lp185
F504.0
aF475.0
aa(lp186
F504.0
aF474.0
aa(lp187
F505.0
aF474.0
aa(lp188
F505.0
aF473.0
aa(lp189
F506.0
aF473.0
aa(lp190
F507.0
aF473.0
aa(lp191
F508.0
aF473.0
aa(lp192
F508.0
aF472.0
aa(lp193
F509.0
aF472.0
aa(lp194
F510.0
aF472.0
aa(lp195
F511.0
aF472.0
aa(lp196
F512.0
aF472.0
aa(lp197
F513.0
aF472.0
aa(lp198
F514.0
aF472.5
aa(lp199
F515.0
aF473.0
aa(lp200
F516.0
aF474.0
aa(lp201
F517.0
aF474.5
aa(lp202
F518.0
aF475.0
aa(lp203
F518.0
aF476.0
aa(lp204
F519.0
aF476.5
aa(lp205
F520.0
aF477.0
aa(lp206
F521.0
aF478.0
aa(lp207
F522.0
aF478.5
aa(lp208
F523.0
aF479.0
aa(lp209
F524.0
aF480.0
aa(lp210
F524.0
aF481.0
aa(lp211
F525.0
aF482.0
aa(lp212
F525.0
aF483.0
aa(lp213
F526.0
aF484.0
aa(lp214
F527.0
aF485.0
aa(lp215
F527.0
aF486.0
aa(lp216
F528.0
aF487.0
aa(lp217
F528.0
aF488.0
aa(lp218
F528.0
aF489.0
aa(lp219
F529.0
aF490.0
aa(lp220
F529.5
aF491.0
aa(lp221
F530.0
aF492.0
aa(lp222
F530.0
aF493.0
aa(lp223
F530.0
aF494.0
aa(lp224
F530.5
aF495.0
aa(lp225
F531.0
aF496.0
aa(lp226
F531.0
aF497.0
aa(lp227
F531.5
aF498.0
aa(lp228
F532.0
aF499.0
aa(lp229
F532.0
aF500.0
aa(lp230
F532.0
aF501.0
aa(lp231
F532.5
aF502.0
aa(lp232
F533.0
aF503.0
aa(lp233
F533.0
aF504.0
aa(lp234
F533.0
aF505.0
aa(lp235
F533.0
aF506.0
aa(lp236
F533.0
aF507.0
aa(lp237
F534.0
aF508.0
aa(lp238
F534.0
aF509.0
aa(lp239
F534.0
aF510.0
aa(lp240
F534.0
aF511.0
aa(lp241
F534.0
aF512.0
aa(lp242
F534.0
aF513.0
aa(lp243
F534.0
aF514.0
aa(lp244
F534.0
aF515.0
aa(lp245
F534.3333333333334
aF516.0
aa(lp246
F534.6666666666666
aF517.0
aa(lp247
F535.0
aF518.0
aa(lp248
F535.0
aF519.0
aa(lp249
F535.0
aF520.0
aa(lp250
F535.0
aF521.0
aa(lp251
F535.0
aF522.0
aa(lp252
F535.0
aF523.0
aa(lp253
F535.0
aF524.0
aa(lp254
F535.0
aF525.0
aa(lp255
F535.0
aF526.0
aa(lp256
F535.0
aF527.0
aa(lp257
F535.0
aF528.0
aa(lp258
F535.0
aF529.0
aa(lp259
F535.0
aF530.0
aa(lp260
F535.0
aF531.0
aa(lp261
F535.0
aF532.0
aa(lp262
F535.0
aF533.0
aa(lp263
F535.0
aF534.0
aa(lp264
F535.0
aF535.0
aa(lp265
F535.0
aF536.0
aa(lp266
F535.0
aF537.0
aa(lp267
F535.0
aF538.0
aa(lp268
F535.0
aF539.0
aa(lp269
F535.0
aF540.0
aa(lp270
F535.0
aF541.0
aa(lp271
F534.0
aF542.0
aa(lp272
F534.0
aF543.0
aa(lp273
F534.0
aF544.0
aa(lp274
F534.0
aF545.0
aa(lp275
F533.5
aF546.0
aa(lp276
F533.0
aF547.0
aa(lp277
F533.0
aF548.0
aa(lp278
F533.0
aF549.0
aa(lp279
F532.0
aF550.0
aa(lp280
F531.0
aF551.0
aa(lp281
F531.0
aF552.0
aa(lp282
F531.0
aF553.0
aa(lp283
F530.0
aF554.0
aa(lp284
F530.0
aF555.0
aa(lp285
F530.0
aF556.0
aa(lp286
F529.0
aF557.0
aa(lp287
F529.0
aF558.0
aa(lp288
F528.0
aF559.0
aa(lp289
F527.0
aF560.0
aa(lp290
F527.0
aF561.0
aa(lp291
F526.5
aF562.0
aa(lp292
F526.0
aF563.0
aa(lp293
F526.0
aF564.0
aa(lp294
F525.0
aF565.0
aa(lp295
F524.5
aF566.0
aa(lp296
F524.0
aF567.0
aa(lp297
F524.0
aF568.0
aa(lp298
F523.5
aF569.0
aa(lp299
F523.0
aF570.0
aa(lp300
F523.0
aF571.0
aa(lp301
F522.0
aF572.0
aa(lp302
F521.0
aF573.0
aa(lp303
F520.0
aF573.0
aa(lp304
F520.0
aF574.0
aa(lp305
F520.0
aF575.0
aa(lp306
F519.0
aF576.0
aa(lp307
F519.0
aF577.0
aa(lp308
F518.5
aF578.0
aa(lp309
F518.0
aF579.0
aa(lp310
F518.0
aF580.0
aa(lp311
F517.0
aF581.0
aa(lp312
F516.0
aF582.0
aa(lp313
F516.0
aF583.0
aa(lp314
F515.0
aF583.0
aa(lp315
F515.0
aF584.0
aa(lp316
F515.0
aF585.0
aa(lp317
F514.0
aF586.0
aa(lp318
F513.0
aF587.0
aa(lp319
F513.0
aF588.0
aa(lp320
F513.0
aF589.0
aa(lp321
F512.0
aF590.0
aa(lp322
F512.0
aF591.0
aa(lp323
F511.0
aF592.0
aa(lp324
F511.0
aF593.0
aa(lp325
F511.0
aF594.0
aa(lp326
F510.0
aF594.0
aasS'end'
p327
I7
sS'weight'
p328
F0.1
sasS'nid'
p329
I0
sS'rf'
p330
(lp331
(I4
I3
tp332
a(I4
I4
tp333
a(I4
I5
tp334
a(I4
I6
tp335
a(I4
I7
tp336
a(I4
I8
tp337
a(I4
I9
tp338
a(I4
I10
tp339
a(I4
I11
tp340
a(I4
I12
tp341
a(I4
I13
tp342
asS'tp'
p343
S'visual'
p344
sS'super_type'
p345
S'sensor'
p346
sS'rect'
p347
cpygame
__rect_constructor
p348
(I503
I297
I60
I96
tp349
Rp350
sba(i__main__
pickledNeuron
p351
(dp352
g3
(lp353
(dp354
g6
I2
sg7
(lp355
(lp356
F588.0
aF381.0
aa(lp357
F588.0
aF382.0
aa(lp358
F588.0
aF383.0
aa(lp359
F588.0
aF384.0
aa(lp360
F588.0
aF385.0
aa(lp361
F588.0
aF386.0
aa(lp362
F588.0
aF387.0
aa(lp363
F589.0
aF388.0
aa(lp364
F589.5
aF389.0
aa(lp365
F590.0
aF390.0
aa(lp366
F590.0
aF391.0
aa(lp367
F590.0
aF392.0
aa(lp368
F590.5
aF393.0
aa(lp369
F591.0
aF394.0
aa(lp370
F591.0
aF395.0
aa(lp371
F591.0
aF396.0
aa(lp372
F591.5
aF397.0
aa(lp373
F592.0
aF398.0
aa(lp374
F592.0
aF399.0
aa(lp375
F592.0
aF400.0
aa(lp376
F592.0
aF401.0
aa(lp377
F592.0
aF402.0
aa(lp378
F592.0
aF403.0
aa(lp379
F592.0
aF404.0
aa(lp380
F592.0
aF405.0
aa(lp381
F592.5
aF406.0
aa(lp382
F593.0
aF407.0
aa(lp383
F593.0
aF408.0
aa(lp384
F593.0
aF409.0
aa(lp385
F593.0
aF410.0
aa(lp386
F593.0
aF411.0
aa(lp387
F593.0
aF412.0
aa(lp388
F593.0
aF413.0
aa(lp389
F593.0
aF414.0
aa(lp390
F593.0
aF415.0
aa(lp391
F593.0
aF416.0
aa(lp392
F593.0
aF417.0
aa(lp393
F593.0
aF418.0
aa(lp394
F593.0
aF419.0
aa(lp395
F593.0
aF420.0
aa(lp396
F593.0
aF421.0
aa(lp397
F593.0
aF422.0
aa(lp398
F593.0
aF423.0
aa(lp399
F593.0
aF424.0
aa(lp400
F593.0
aF425.0
aa(lp401
F593.0
aF426.0
aa(lp402
F593.0
aF427.0
aa(lp403
F593.0
aF428.0
aa(lp404
F593.0
aF429.0
aa(lp405
F593.0
aF430.0
aa(lp406
F593.0
aF431.0
aa(lp407
F593.0
aF432.0
aa(lp408
F593.0
aF433.0
aa(lp409
F593.0
aF434.0
aa(lp410
F593.0
aF435.0
aa(lp411
F593.0
aF436.0
aa(lp412
F593.0
aF437.0
aa(lp413
F593.0
aF438.0
aa(lp414
F593.0
aF439.0
aa(lp415
F593.0
aF440.0
aa(lp416
F593.0
aF441.0
aa(lp417
F593.0
aF442.0
aa(lp418
F593.0
aF443.0
aa(lp419
F593.0
aF444.0
aa(lp420
F592.5
aF445.0
aa(lp421
F592.0
aF446.0
aa(lp422
F592.0
aF447.0
aa(lp423
F592.0
aF448.0
aa(lp424
F591.5
aF449.0
aa(lp425
F591.0
aF450.0
aa(lp426
F591.0
aF451.0
aa(lp427
F591.0
aF452.0
aa(lp428
F591.0
aF453.0
aa(lp429
F591.0
aF454.0
aa(lp430
F590.0
aF455.0
aa(lp431
F590.0
aF456.0
aa(lp432
F590.0
aF457.0
aa(lp433
F590.0
aF458.0
aa(lp434
F589.5
aF459.0
aa(lp435
F589.0
aF460.0
aa(lp436
F589.0
aF461.0
aa(lp437
F589.0
aF462.0
aa(lp438
F589.0
aF463.0
aa(lp439
F588.5
aF464.0
aa(lp440
F588.0
aF465.0
aa(lp441
F588.0
aF466.0
aa(lp442
F588.0
aF467.0
aa(lp443
F587.5
aF468.0
aa(lp444
F587.0
aF469.0
aa(lp445
F587.0
aF470.0
aa(lp446
F586.5
aF471.0
aa(lp447
F586.0
aF472.0
aa(lp448
F586.0
aF473.0
aa(lp449
F585.0
aF474.0
aa(lp450
F585.0
aF475.0
aa(lp451
F585.0
aF476.0
aa(lp452
F584.0
aF477.0
aa(lp453
F583.0
aF478.0
aa(lp454
F583.0
aF479.0
aa(lp455
F582.0
aF480.0
aa(lp456
F582.0
aF481.0
aa(lp457
F581.0
aF482.0
aa(lp458
F581.0
aF483.0
aasg327
I4
sg328
F0.5
sasg329
I2
sg330
(lp459
(I5
I3
tp460
a(I5
I4
tp461
a(I5
I5
tp462
a(I5
I6
tp463
a(I5
I7
tp464
a(I5
I8
tp465
a(I5
I9
tp466
a(I5
I10
tp467
a(I5
I11
tp468
a(I5
I12
tp469
a(I5
I13
tp470
asg343
g344
sg345
g346
sg347
g348
(I564
I293
I60
I96
tp471
Rp472
sba(i__main__
pickledNeuron
p473
(dp474
g3
(lp475
(dp476
g6
I5
sg7
(lp477
(lp478
F456.0
aF485.0
aa(lp479
F456.0
aF486.0
aa(lp480
F456.0
aF487.0
aa(lp481
F456.5
aF488.0
aa(lp482
F457.0
aF489.0
aa(lp483
F457.5
aF490.0
aa(lp484
F458.0
aF491.0
aa(lp485
F459.0
aF492.0
aa(lp486
F459.5
aF493.0
aa(lp487
F460.0
aF494.0
aa(lp488
F460.3333333333333
aF495.0
aa(lp489
F460.6666666666667
aF496.0
aa(lp490
F461.0
aF497.0
aa(lp491
F461.6666666666667
aF497.6666666666667
aa(lp492
F462.3333333333333
aF498.3333333333333
aa(lp493
F463.0
aF499.0
aa(lp494
F463.3333333333333
aF500.0
aa(lp495
F463.6666666666667
aF501.0
aa(lp496
F464.0
aF502.0
aa(lp497
F464.3333333333333
aF503.0
aa(lp498
F464.6666666666667
aF504.0
aa(lp499
F465.0
aF505.0
aa(lp500
F465.5
aF505.75
aa(lp501
F466.0
aF506.5
aa(lp502
F466.5
aF507.25
aa(lp503
F467.0
aF508.0
aa(lp504
F467.0
aF509.0
aa(lp505
F467.3333333333333
aF510.0
aa(lp506
F467.6666666666667
aF511.0
aa(lp507
F468.0
aF512.0
aa(lp508
F469.0
aF513.0
aa(lp509
F469.0
aF514.0
aa(lp510
F469.0
aF515.0
aa(lp511
F470.0
aF516.0
aa(lp512
F470.5
aF517.0
aa(lp513
F471.0
aF518.0
aa(lp514
F471.5
aF519.0
aa(lp515
F472.0
aF520.0
aa(lp516
F472.0
aF521.0
aa(lp517
F473.0
aF522.0
aa(lp518
F473.5
aF523.0
aa(lp519
F474.0
aF524.0
aa(lp520
F474.0
aF525.0
aa(lp521
F475.0
aF526.0
aa(lp522
F475.0
aF527.0
aa(lp523
F476.0
aF528.0
aa(lp524
F476.0
aF529.0
aa(lp525
F476.5
aF530.0
aa(lp526
F477.0
aF531.0
aa(lp527
F478.0
aF532.0
aa(lp528
F479.0
aF533.0
aa(lp529
F479.5
aF534.0
aa(lp530
F480.0
aF535.0
aa(lp531
F481.0
aF536.0
aa(lp532
F482.0
aF537.0
aa(lp533
F482.0
aF538.0
aa(lp534
F482.0
aF539.0
aa(lp535
F483.0
aF539.0
aa(lp536
F483.0
aF540.0
aa(lp537
F483.0
aF541.0
aa(lp538
F484.0
aF542.0
aa(lp539
F484.0
aF543.0
aa(lp540
F484.0
aF544.0
aa(lp541
F485.0
aF544.0
aa(lp542
F485.0
aF545.0
aa(lp543
F485.5
aF546.0
aa(lp544
F486.0
aF547.0
aa(lp545
F487.0
aF547.0
aa(lp546
F488.0
aF548.0
aa(lp547
F488.5
aF549.0
aa(lp548
F489.0
aF550.0
aa(lp549
F489.0
aF551.0
aa(lp550
F489.0
aF552.0
aa(lp551
F490.0
aF553.0
aa(lp552
F490.0
aF554.0
aa(lp553
F491.0
aF554.0
aa(lp554
F491.0
aF555.0
aa(lp555
F491.0
aF556.0
aa(lp556
F492.0
aF557.0
aa(lp557
F492.0
aF558.0
aa(lp558
F493.0
aF558.0
aa(lp559
F493.5
aF559.0
aa(lp560
F494.0
aF560.0
aa(lp561
F495.0
aF561.0
aa(lp562
F496.0
aF562.0
aa(lp563
F496.0
aF563.0
aa(lp564
F496.0
aF564.0
aa(lp565
F497.0
aF565.0
aa(lp566
F498.0
aF566.0
aa(lp567
F498.0
aF567.0
aa(lp568
F499.0
aF567.0
aa(lp569
F499.0
aF568.0
aa(lp570
F500.0
aF568.0
aa(lp571
F500.0
aF569.0
aa(lp572
F500.0
aF570.0
aa(lp573
F501.0
aF570.0
aa(lp574
F501.0
aF571.0
aa(lp575
F502.0
aF571.0
aa(lp576
F502.0
aF572.0
aa(lp577
F502.0
aF573.0
aasg327
I7
sg328
F0.5
sasg329
I5
sg330
I0
sg343
S'inhibitory'
p578
sg345
S'neuron'
p579
sg347
g348
(I416
I433
I73
I76
tp580
Rp581
sba(i__main__
pickledNeuron
p582
(dp583
g3
(lp584
sg329
I7
sg330
I0
sg343
S'excitatory'
p585
sg345
g579
sg347
g348
(I483
I560
I60
I96
tp586
Rp587
sba(i__main__
pickledNeuron
p588
(dp589
g3
(lp590
(dp591
g6
I4
sg7
(lp592
(lp593
F583.0
aF488.0
aa(lp594
F582.5
aF489.0
aa(lp595
F582.0
aF490.0
aa(lp596
F582.0
aF491.0
aa(lp597
F581.0
aF492.0
aa(lp598
F580.0
aF493.0
aa(lp599
F580.0
aF494.0
aa(lp600
F580.0
aF495.0
aa(lp601
F579.0
aF496.0
aa(lp602
F578.0
aF497.0
aa(lp603
F578.0
aF498.0
aa(lp604
F578.0
aF499.0
aa(lp605
F577.0
aF499.5
aa(lp606
F576.0
aF500.0
aa(lp607
F576.0
aF501.0
aa(lp608
F576.0
aF502.0
aa(lp609
F575.0
aF503.0
aa(lp610
F574.0
aF504.0
aa(lp611
F574.0
aF505.0
aa(lp612
F574.0
aF506.0
aa(lp613
F574.0
aF507.0
aa(lp614
F573.0
aF508.0
aa(lp615
F572.0
aF509.0
aa(lp616
F571.5
aF510.0
aa(lp617
F571.0
aF511.0
aa(lp618
F571.0
aF512.0
aa(lp619
F571.0
aF513.0
aa(lp620
F570.5
aF514.0
aa(lp621
F570.0
aF515.0
aa(lp622
F569.5
aF516.0
aa(lp623
F569.0
aF517.0
aa(lp624
F568.3333333333334
aF517.6666666666666
aa(lp625
F567.6666666666666
aF518.3333333333334
aa(lp626
F567.0
aF519.0
aa(lp627
F567.0
aF520.0
aa(lp628
F566.5
aF521.0
aa(lp629
F566.0
aF522.0
aa(lp630
F565.5
aF523.0
aa(lp631
F565.0
aF524.0
aa(lp632
F564.0
aF524.5
aa(lp633
F563.0
aF525.0
aa(lp634
F563.0
aF526.0
aa(lp635
F563.0
aF527.0
aa(lp636
F562.0
aF528.0
aa(lp637
F562.0
aF529.0
aa(lp638
F562.0
aF530.0
aa(lp639
F561.5
aF531.0
aa(lp640
F561.0
aF532.0
aa(lp641
F560.0
aF533.0
aa(lp642
F560.0
aF534.0
aa(lp643
F560.0
aF535.0
aa(lp644
F559.0
aF536.0
aa(lp645
F558.0
aF537.0
aa(lp646
F558.0
aF538.0
aa(lp647
F558.0
aF539.0
aa(lp648
F557.0
aF540.0
aa(lp649
F556.5
aF541.0
aa(lp650
F556.0
aF542.0
aa(lp651
F556.0
aF543.0
aa(lp652
F556.0
aF544.0
aa(lp653
F555.0
aF544.5
aa(lp654
F554.0
aF545.0
aa(lp655
F553.5
aF546.0
aa(lp656
F553.0
aF547.0
aa(lp657
F552.5
aF548.0
aa(lp658
F552.0
aF549.0
aa(lp659
F551.0
aF550.0
aa(lp660
F550.5
aF551.0
aa(lp661
F550.0
aF552.0
aa(lp662
F549.0
aF553.0
aa(lp663
F549.0
aF554.0
aa(lp664
F549.0
aF555.0
aa(lp665
F549.0
aF556.0
aa(lp666
F548.0
aF557.0
aa(lp667
F547.0
aF558.0
aa(lp668
F546.0
aF559.0
aa(lp669
F545.0
aF560.0
aa(lp670
F545.0
aF561.0
aa(lp671
F545.0
aF562.0
aa(lp672
F544.0
aF563.0
aa(lp673
F543.5
aF564.0
aa(lp674
F543.0
aF565.0
aa(lp675
F542.5
aF566.0
aa(lp676
F542.0
aF567.0
aa(lp677
F541.0
aF568.0
aa(lp678
F540.3333333333334
aF568.6666666666666
aa(lp679
F539.6666666666666
aF569.3333333333334
aa(lp680
F539.0
aF570.0
aa(lp681
F539.0
aF571.0
aa(lp682
F538.0
aF572.0
aa(lp683
F538.0
aF573.0
aa(lp684
F537.0
aF573.5
aa(lp685
F536.0
aF574.0
aa(lp686
F536.0
aF575.0
aa(lp687
F535.0
aF576.0
aa(lp688
F534.0
aF577.0
aa(lp689
F534.0
aF578.0
aa(lp690
F533.0
aF579.0
aa(lp691
F532.0
aF579.0
aa(lp692
F531.0
aF579.5
aa(lp693
F530.0
aF580.0
aa(lp694
F529.0
aF581.0
aa(lp695
F528.0
aF581.0
aasg327
I7
sg328
F0.5
sasg329
I4
sg330
I0
sg343
g578
sg345
g579
sg347
g348
(I550
I441
I73
I76
tp696
Rp697
sba(i__main__
pickledNeuron
p698
(dp699
g3
(lp700
(dp701
g6
I1
sg7
(lp702
(lp703
F451.0
aF378.0
aa(lp704
F451.0
aF379.0
aa(lp705
F451.0
aF380.0
aa(lp706
F451.0
aF381.0
aa(lp707
F451.0
aF382.0
aa(lp708
F451.0
aF383.0
aa(lp709
F451.0
aF384.0
aa(lp710
F451.0
aF385.0
aa(lp711
F451.0
aF386.0
aa(lp712
F451.0
aF387.0
aa(lp713
F451.0
aF388.0
aa(lp714
F451.0
aF389.0
aa(lp715
F451.0
aF390.0
aa(lp716
F450.5
aF391.0
aa(lp717
F450.0
aF392.0
aa(lp718
F450.0
aF393.0
aa(lp719
F450.0
aF394.0
aa(lp720
F450.0
aF395.0
aa(lp721
F450.0
aF396.0
aa(lp722
F450.0
aF397.0
aa(lp723
F450.0
aF398.0
aa(lp724
F450.0
aF399.0
aa(lp725
F450.0
aF400.0
aa(lp726
F450.0
aF401.0
aa(lp727
F450.0
aF402.0
aa(lp728
F450.0
aF403.0
aa(lp729
F449.5
aF404.0
aa(lp730
F449.0
aF405.0
aa(lp731
F449.0
aF406.0
aa(lp732
F449.0
aF407.0
aa(lp733
F449.0
aF408.0
aa(lp734
F448.5
aF409.0
aa(lp735
F448.0
aF410.0
aa(lp736
F448.0
aF411.0
aa(lp737
F448.0
aF412.0
aa(lp738
F448.0
aF413.0
aa(lp739
F448.0
aF414.0
aa(lp740
F447.0
aF415.0
aa(lp741
F447.0
aF416.0
aa(lp742
F447.0
aF417.0
aa(lp743
F447.0
aF418.0
aa(lp744
F447.0
aF419.0
aa(lp745
F447.0
aF420.0
aa(lp746
F447.0
aF421.0
aa(lp747
F447.0
aF422.0
aa(lp748
F447.0
aF423.0
aa(lp749
F447.0
aF424.0
aa(lp750
F447.0
aF425.0
aa(lp751
F447.0
aF426.0
aa(lp752
F447.0
aF427.0
aa(lp753
F447.0
aF428.0
aa(lp754
F447.0
aF429.0
aa(lp755
F447.0
aF430.0
aa(lp756
F447.0
aF431.0
aa(lp757
F447.0
aF432.0
aa(lp758
F447.0
aF433.0
aa(lp759
F447.0
aF434.0
aa(lp760
F447.0
aF435.0
aa(lp761
F447.0
aF436.0
aa(lp762
F447.0
aF437.0
aa(lp763
F447.0
aF438.0
aa(lp764
F447.0
aF439.0
aa(lp765
F447.0
aF440.0
aa(lp766
F447.0
aF441.0
aa(lp767
F447.0
aF442.0
aa(lp768
F447.0
aF443.0
aa(lp769
F447.0
aF444.0
aa(lp770
F447.0
aF445.0
aa(lp771
F447.0
aF446.0
aa(lp772
F447.0
aF447.0
aa(lp773
F447.0
aF448.0
aa(lp774
F447.0
aF449.0
aa(lp775
F447.0
aF450.0
aa(lp776
F447.0
aF451.0
aa(lp777
F447.0
aF452.0
aa(lp778
F447.0
aF453.0
aa(lp779
F448.0
aF454.0
aa(lp780
F448.0
aF455.0
aa(lp781
F448.0
aF456.0
aa(lp782
F448.0
aF457.0
aa(lp783
F448.0
aF458.0
aa(lp784
F448.0
aF459.0
aa(lp785
F448.0
aF460.0
aa(lp786
F448.0
aF461.0
aa(lp787
F448.0
aF462.0
aa(lp788
F448.0
aF463.0
aa(lp789
F448.0
aF464.0
aa(lp790
F448.0
aF465.0
aa(lp791
F448.0
aF466.0
aa(lp792
F449.0
aF467.0
aa(lp793
F449.0
aF468.0
aa(lp794
F449.0
aF469.0
aa(lp795
F449.0
aF470.0
aasg327
I5
sg328
F0.5
sasg329
I1
sg330
(lp796
(I3
I3
tp797
a(I3
I4
tp798
a(I3
I5
tp799
a(I3
I6
tp800
a(I3
I7
tp801
a(I3
I8
tp802
a(I3
I9
tp803
a(I3
I10
tp804
a(I3
I11
tp805
a(I3
I12
tp806
a(I3
I13
tp807
asg343
g344
sg345
g346
sg347
g348
(I425
I290
I60
I96
tp808
Rp809
sba.