(lp0
(i__main__
pickledNeuron
p1
(dp2
S'nid'
p3
I1
sS'axons'
p4
(lp5
(dp6
S'start'
p7
I1
sS'points'
p8
(lp9
(lp10
F819.0
aF331.0
aa(lp11
F818.0
aF331.25
aa(lp12
F817.0
aF331.5
aa(lp13
F816.0
aF331.75
aa(lp14
F815.0
aF332.0
aa(lp15
F814.0
aF332.25
aa(lp16
F813.0
aF332.5
aa(lp17
F812.0
aF332.75
aa(lp18
F811.0
aF333.0
aa(lp19
F810.0
aF333.25
aa(lp20
F809.0
aF333.5
aa(lp21
F808.0
aF333.75
aa(lp22
F807.0
aF334.0
aa(lp23
F806.0
aF334.2
aa(lp24
F805.0
aF334.4
aa(lp25
F804.0
aF334.6
aa(lp26
F803.0
aF334.8
aa(lp27
F802.0
aF335.0
aa(lp28
F801.0
aF335.2
aa(lp29
F800.0
aF335.4
aa(lp30
F799.0
aF335.6
aa(lp31
F798.0
aF335.8
aa(lp32
F797.0
aF336.0
aa(lp33
F796.0
aF336.0
aa(lp34
F795.0
aF336.0
aa(lp35
F794.0
aF336.0
aa(lp36
F793.0
aF336.0
aa(lp37
F792.0
aF336.0
aa(lp38
F791.0
aF336.0
aa(lp39
F790.0
aF336.0
aa(lp40
F789.0
aF336.0
aa(lp41
F788.0
aF336.0
aa(lp42
F787.0
aF336.0
aa(lp43
F786.0
aF336.0
aa(lp44
F785.0
aF336.15384615384613
aa(lp45
F784.0
aF336.3076923076923
aa(lp46
F783.0
aF336.46153846153845
aa(lp47
F782.0
aF336.61538461538464
aa(lp48
F781.0
aF336.7692307692308
aa(lp49
F780.0
aF336.9230769230769
aa(lp50
F779.0
aF337.0769230769231
aa(lp51
F778.0
aF337.2307692307692
aa(lp52
F777.0
aF337.38461538461536
aa(lp53
F776.0
aF337.53846153846155
aa(lp54
F775.0
aF337.6923076923077
aa(lp55
F774.0
aF337.84615384615387
aa(lp56
F773.0
aF338.0
aa(lp57
F772.0
aF338.0
aa(lp58
F771.0
aF338.0
aa(lp59
F770.0
aF338.0
aa(lp60
F769.0
aF338.0
aa(lp61
F768.0
aF338.0
aa(lp62
F767.0
aF338.0
aa(lp63
F766.0
aF338.0
aa(lp64
F765.0
aF338.0
aa(lp65
F764.0
aF338.0
aa(lp66
F763.0
aF338.0
aa(lp67
F762.0
aF338.0
aa(lp68
F761.0
aF338.0
aa(lp69
F760.0
aF338.0
aa(lp70
F759.0
aF338.0
aa(lp71
F758.0
aF338.0
aa(lp72
F757.0
aF338.0
aa(lp73
F756.0
aF338.0
aa(lp74
F755.0
aF338.0
aa(lp75
F754.0
aF338.0
aa(lp76
F753.0
aF338.0
aa(lp77
F752.0
aF338.0
aa(lp78
F751.0
aF338.0
aa(lp79
F750.0
aF338.0
aa(lp80
F749.0
aF338.0
aa(lp81
F748.0
aF338.0
aa(lp82
F747.0
aF338.0
aa(lp83
F746.0
aF338.0
aa(lp84
F745.0
aF338.0
aa(lp85
F744.0
aF338.0
aa(lp86
F743.0
aF338.0
aa(lp87
F742.0
aF338.0
aa(lp88
F741.0
aF338.0
aa(lp89
F740.0
aF338.0
aa(lp90
F739.0
aF338.0
aa(lp91
F738.0
aF338.0
aa(lp92
F737.0
aF338.0
aa(lp93
F736.0
aF338.0
aa(lp94
F735.0
aF338.0
aa(lp95
F734.0
aF338.0
aa(lp96
F733.0
aF338.0
aa(lp97
F732.0
aF338.0
aa(lp98
F731.0
aF338.0
aa(lp99
F730.0
aF338.0
aa(lp100
F729.0
aF338.0
aa(lp101
F728.0
aF338.0
aa(lp102
F727.0
aF338.0
aa(lp103
F726.0
aF338.0
aa(lp104
F725.0
aF338.0
aa(lp105
F724.0
aF338.0
aa(lp106
F723.0
aF338.0
aa(lp107
F722.0
aF338.0
aa(lp108
F721.0
aF338.0
aa(lp109
F720.0
aF338.0
aa(lp110
F719.0
aF338.0
aa(lp111
F718.0
aF338.0
aa(lp112
F717.0
aF338.0
aa(lp113
F716.0
aF338.0
aa(lp114
F715.0
aF338.0
aa(lp115
F714.0
aF338.0
aa(lp116
F713.0
aF338.0
aa(lp117
F712.0
aF338.0
aa(lp118
F711.0
aF338.0
aa(lp119
F710.0
aF338.0
aa(lp120
F709.0
aF338.0
aa(lp121
F708.0
aF338.0
aa(lp122
F707.0
aF338.0
aa(lp123
F706.0
aF338.0
aa(lp124
F705.0
aF338.0
aa(lp125
F704.0
aF338.0
aa(lp126
F703.0
aF338.0
aa(lp127
F702.0
aF338.0
aa(lp128
F701.0
aF338.0
aa(lp129
F700.0
aF337.8181818181818
aa(lp130
F699.0
aF337.6363636363636
aa(lp131
F698.0
aF337.45454545454544
aa(lp132
F697.0
aF337.27272727272725
aa(lp133
F696.0
aF337.09090909090907
aa(lp134
F695.0
aF336.90909090909093
aa(lp135
F694.0
aF336.72727272727275
aa(lp136
F693.0
aF336.54545454545456
aa(lp137
F692.0
aF336.3636363636364
aa(lp138
F691.0
aF336.1818181818182
aa(lp139
F690.0
aF336.0
aa(lp140
F689.0
aF335.8
aa(lp141
F688.0
aF335.6
aa(lp142
F687.0
aF335.4
aa(lp143
F686.0
aF335.2
aa(lp144
F685.0
aF335.0
aa(lp145
F684.0
aF334.8
aa(lp146
F683.0
aF334.6
aa(lp147
F682.0
aF334.4
aa(lp148
F681.0
aF334.2
aa(lp149
F680.0
aF334.0
aa(lp150
F679.0
aF333.84615384615387
aa(lp151
F678.0
aF333.6923076923077
aa(lp152
F677.0
aF333.53846153846155
aa(lp153
F676.0
aF333.38461538461536
aa(lp154
F675.0
aF333.2307692307692
aa(lp155
F674.0
aF333.0769230769231
aa(lp156
F673.0
aF332.9230769230769
aa(lp157
F672.0
aF332.7692307692308
aa(lp158
F671.0
aF332.61538461538464
aa(lp159
F670.0
aF332.46153846153845
aa(lp160
F669.0
aF332.3076923076923
aa(lp161
F668.0
aF332.15384615384613
aa(lp162
F667.0
aF332.0
aa(lp163
F666.0
aF331.84615384615387
aa(lp164
F665.0
aF331.6923076923077
aa(lp165
F664.0
aF331.53846153846155
aa(lp166
F663.0
aF331.38461538461536
aa(lp167
F662.0
aF331.2307692307692
aa(lp168
F661.0
aF331.0769230769231
aa(lp169
F660.0
aF330.9230769230769
aa(lp170
F659.0
aF330.7692307692308
aa(lp171
F658.0
aF330.61538461538464
aa(lp172
F657.0
aF330.46153846153845
aa(lp173
F656.0
aF330.3076923076923
aa(lp174
F655.0
aF330.15384615384613
aa(lp175
F654.0
aF330.0
aa(lp176
F653.0
aF329.84615384615387
aa(lp177
F652.0
aF329.6923076923077
aa(lp178
F651.0
aF329.53846153846155
aa(lp179
F650.0
aF329.38461538461536
aa(lp180
F649.0
aF329.2307692307692
aa(lp181
F648.0
aF329.0769230769231
aa(lp182
F647.0
aF328.9230769230769
aa(lp183
F646.0
aF328.7692307692308
aa(lp184
F645.0
aF328.61538461538464
aa(lp185
F644.0
aF328.46153846153845
aa(lp186
F643.0
aF328.3076923076923
aa(lp187
F642.0
aF328.15384615384613
aa(lp188
F641.0
aF328.0
aa(lp189
F640.0
aF327.85714285714283
aa(lp190
F639.0
aF327.7142857142857
aa(lp191
F638.0
aF327.57142857142856
aa(lp192
F637.0
aF327.42857142857144
aa(lp193
F636.0
aF327.2857142857143
aa(lp194
F635.0
aF327.14285714285717
aa(lp195
F634.0
aF327.0
aa(lp196
F633.0
aF326.85714285714283
aa(lp197
F632.0
aF326.7142857142857
aa(lp198
F631.0
aF326.57142857142856
aa(lp199
F630.0
aF326.42857142857144
aa(lp200
F629.0
aF326.2857142857143
aa(lp201
F628.0
aF326.14285714285717
aa(lp202
F627.0
aF326.0
aa(lp203
F626.0
aF325.8
aa(lp204
F625.0
aF325.6
aa(lp205
F624.0
aF325.4
aa(lp206
F623.0
aF325.2
aa(lp207
F622.0
aF325.0
aa(lp208
F621.0
aF324.8
aa(lp209
F620.0
aF324.6
aa(lp210
F619.0
aF324.4
aa(lp211
F618.0
aF324.2
aa(lp212
F617.0
aF324.0
aa(lp213
F616.0
aF323.8
aa(lp214
F615.0
aF323.6
aa(lp215
F614.0
aF323.4
aa(lp216
F613.0
aF323.2
aa(lp217
F612.0
aF323.0
aa(lp218
F611.0
aF322.8666666666667
aa(lp219
F610.0
aF322.73333333333335
aa(lp220
F609.0
aF322.6
aa(lp221
F608.0
aF322.46666666666664
aa(lp222
F607.0
aF322.3333333333333
aa(lp223
F606.0
aF322.2
aa(lp224
F605.0
aF322.06666666666666
aa(lp225
F604.0
aF321.93333333333334
aa(lp226
F603.0
aF321.8
aa(lp227
F602.0
aF321.6666666666667
aa(lp228
F601.0
aF321.53333333333336
aa(lp229
F600.0
aF321.4
aa(lp230
F599.0
aF321.26666666666665
aa(lp231
F598.0
aF321.1333333333333
aa(lp232
F597.0
aF321.0
aa(lp233
F596.0
aF320.8666666666667
aa(lp234
F595.0
aF320.73333333333335
aa(lp235
F594.0
aF320.6
aa(lp236
F593.0
aF320.46666666666664
aa(lp237
F592.0
aF320.3333333333333
aa(lp238
F591.0
aF320.2
aa(lp239
F590.0
aF320.06666666666666
aa(lp240
F589.0
aF319.93333333333334
aa(lp241
F588.0
aF319.8
aa(lp242
F587.0
aF319.6666666666667
aa(lp243
F586.0
aF319.53333333333336
aa(lp244
F585.0
aF319.4
aa(lp245
F584.0
aF319.26666666666665
aa(lp246
F583.0
aF319.1333333333333
aa(lp247
F582.0
aF319.0
aa(lp248
F581.0
aF319.0
aa(lp249
F580.0
aF319.0
aa(lp250
F579.0
aF319.0
aa(lp251
F578.0
aF319.0
aa(lp252
F577.0
aF319.0
aa(lp253
F576.0
aF319.0
aa(lp254
F575.0
aF319.0
aa(lp255
F574.0
aF319.0
aa(lp256
F573.0
aF319.0
aa(lp257
F572.0
aF319.0
aa(lp258
F571.0
aF319.0
aa(lp259
F570.0
aF319.0
aa(lp260
F569.0
aF319.0
aa(lp261
F568.0
aF319.0
aa(lp262
F567.0
aF319.0
aa(lp263
F566.0
aF319.0
aa(lp264
F565.0
aF319.0
aa(lp265
F564.0
aF319.0
aa(lp266
F563.0
aF319.0
aa(lp267
F562.0
aF319.0
aa(lp268
F561.0
aF319.0
aa(lp269
F560.0
aF319.0
aa(lp270
F559.0
aF318.77777777777777
aa(lp271
F558.0
aF318.55555555555554
aa(lp272
F557.0
aF318.3333333333333
aa(lp273
F556.0
aF318.1111111111111
aa(lp274
F555.0
aF317.8888888888889
aa(lp275
F554.0
aF317.6666666666667
aa(lp276
F553.0
aF317.44444444444446
aa(lp277
F552.0
aF317.22222222222223
aa(lp278
F551.0
aF317.0
aa(lp279
F550.0
aF317.0
aa(lp280
F549.0
aF317.0
aa(lp281
F548.0
aF317.0
aa(lp282
F547.0
aF317.0
aa(lp283
F546.0
aF317.0
aa(lp284
F545.0
aF317.0
aa(lp285
F544.0
aF317.0
aa(lp286
F543.0
aF317.0
aa(lp287
F542.0
aF317.0
aa(lp288
F541.0
aF317.0
aa(lp289
F540.0
aF317.0
aa(lp290
F539.0
aF317.0
aa(lp291
F538.0
aF317.0
aa(lp292
F537.0
aF317.0
aa(lp293
F538.0
aF318.0
aasS'end'
p294
I0
sS'weight'
p295
F0.1
sasS'super_type'
p296
S'neuron'
p297
sS'tp'
p298
S'excitatory'
p299
sS'rect'
p300
cpygame
__rect_constructor
p301
(I784
I253
I60
I96
tp302
Rp303
sba(i__main__
pickledNeuron
p304
(dp305
g3
I0
sg4
(lp306
(dp307
g7
I0
sg8
(lp308
(lp309
F538.0
aF328.0
aa(lp310
F539.0
aF329.0
aa(lp311
F539.5
aF329.75
aa(lp312
F540.0
aF330.5
aa(lp313
F540.5
aF331.25
aa(lp314
F541.0
aF332.0
aa(lp315
F541.6
aF332.8
aa(lp316
F542.2
aF333.6
aa(lp317
F542.8
aF334.4
aa(lp318
F543.4
aF335.2
aa(lp319
F544.0
aF336.0
aa(lp320
F544.5714285714286
aF336.85714285714283
aa(lp321
F545.1428571428571
aF337.7142857142857
aa(lp322
F545.7142857142857
aF338.57142857142856
aa(lp323
F546.2857142857143
aF339.42857142857144
aa(lp324
F546.8571428571429
aF340.2857142857143
aa(lp325
F547.4285714285714
aF341.14285714285717
aa(lp326
F548.0
aF342.0
aa(lp327
F548.75
aF342.75
aa(lp328
F549.5
aF343.5
aa(lp329
F550.25
aF344.25
aa(lp330
F551.0
aF345.0
aa(lp331
F551.75
aF345.75
aa(lp332
F552.5
aF346.5
aa(lp333
F553.25
aF347.25
aa(lp334
F554.0
aF348.0
aa(lp335
F554.75
aF348.625
aa(lp336
F555.5
aF349.25
aa(lp337
F556.25
aF349.875
aa(lp338
F557.0
aF350.5
aa(lp339
F557.75
aF351.125
aa(lp340
F558.5
aF351.75
aa(lp341
F559.25
aF352.375
aa(lp342
F560.0
aF353.0
aa(lp343
F560.75
aF353.75
aa(lp344
F561.5
aF354.5
aa(lp345
F562.25
aF355.25
aa(lp346
F563.0
aF356.0
aa(lp347
F563.75
aF356.75
aa(lp348
F564.5
aF357.5
aa(lp349
F565.25
aF358.25
aa(lp350
F566.0
aF359.0
aa(lp351
F566.7777777777778
aF359.6666666666667
aa(lp352
F567.5555555555555
aF360.3333333333333
aa(lp353
F568.3333333333334
aF361.0
aa(lp354
F569.1111111111111
aF361.6666666666667
aa(lp355
F569.8888888888889
aF362.3333333333333
aa(lp356
F570.6666666666666
aF363.0
aa(lp357
F571.4444444444445
aF363.6666666666667
aa(lp358
F572.2222222222222
aF364.3333333333333
aa(lp359
F573.0
aF365.0
aa(lp360
F573.7272727272727
aF365.72727272727275
aa(lp361
F574.4545454545455
aF366.45454545454544
aa(lp362
F575.1818181818181
aF367.1818181818182
aa(lp363
F575.9090909090909
aF367.90909090909093
aa(lp364
F576.6363636363636
aF368.6363636363636
aa(lp365
F577.3636363636364
aF369.3636363636364
aa(lp366
F578.0909090909091
aF370.09090909090907
aa(lp367
F578.8181818181819
aF370.8181818181818
aa(lp368
F579.5454545454545
aF371.54545454545456
aa(lp369
F580.2727272727273
aF372.27272727272725
aa(lp370
F581.0
aF373.0
aa(lp371
F581.7272727272727
aF373.72727272727275
aa(lp372
F582.4545454545455
aF374.45454545454544
aa(lp373
F583.1818181818181
aF375.1818181818182
aa(lp374
F583.9090909090909
aF375.90909090909093
aa(lp375
F584.6363636363636
aF376.6363636363636
aa(lp376
F585.3636363636364
aF377.3636363636364
aa(lp377
F586.0909090909091
aF378.09090909090907
aa(lp378
F586.8181818181819
aF378.8181818181818
aa(lp379
F587.5454545454545
aF379.54545454545456
aa(lp380
F588.2727272727273
aF380.27272727272725
aa(lp381
F589.0
aF381.0
aa(lp382
F589.7272727272727
aF381.72727272727275
aa(lp383
F590.4545454545455
aF382.45454545454544
aa(lp384
F591.1818181818181
aF383.1818181818182
aa(lp385
F591.9090909090909
aF383.90909090909093
aa(lp386
F592.6363636363636
aF384.6363636363636
aa(lp387
F593.3636363636364
aF385.3636363636364
aa(lp388
F594.0909090909091
aF386.09090909090907
aa(lp389
F594.8181818181819
aF386.8181818181818
aa(lp390
F595.5454545454545
aF387.54545454545456
aa(lp391
F596.2727272727273
aF388.27272727272725
aa(lp392
F597.0
aF389.0
aa(lp393
F597.7272727272727
aF389.72727272727275
aa(lp394
F598.4545454545455
aF390.45454545454544
aa(lp395
F599.1818181818181
aF391.1818181818182
aa(lp396
F599.9090909090909
aF391.90909090909093
aa(lp397
F600.6363636363636
aF392.6363636363636
aa(lp398
F601.3636363636364
aF393.3636363636364
aa(lp399
F602.0909090909091
aF394.09090909090907
aa(lp400
F602.8181818181819
aF394.8181818181818
aa(lp401
F603.5454545454545
aF395.54545454545456
aa(lp402
F604.2727272727273
aF396.27272727272725
aa(lp403
F605.0
aF397.0
aa(lp404
F605.6363636363636
aF397.72727272727275
aa(lp405
F606.2727272727273
aF398.45454545454544
aa(lp406
F606.9090909090909
aF399.1818181818182
aa(lp407
F607.5454545454545
aF399.90909090909093
aa(lp408
F608.1818181818181
aF400.6363636363636
aa(lp409
F608.8181818181819
aF401.3636363636364
aa(lp410
F609.4545454545455
aF402.09090909090907
aa(lp411
F610.0909090909091
aF402.8181818181818
aa(lp412
F610.7272727272727
aF403.54545454545456
aa(lp413
F611.3636363636364
aF404.27272727272725
aa(lp414
F612.0
aF405.0
aa(lp415
F612.5
aF405.875
aa(lp416
F613.0
aF406.75
aa(lp417
F613.5
aF407.625
aa(lp418
F614.0
aF408.5
aa(lp419
F614.5
aF409.375
aa(lp420
F615.0
aF410.25
aa(lp421
F615.5
aF411.125
aa(lp422
F616.0
aF412.0
aa(lp423
F616.8333333333334
aF412.6666666666667
aa(lp424
F617.6666666666666
aF413.3333333333333
aa(lp425
F618.5
aF414.0
aa(lp426
F619.3333333333334
aF414.6666666666667
aa(lp427
F620.1666666666666
aF415.3333333333333
aa(lp428
F621.0
aF416.0
aa(lp429
F622.0
aF416.5
aa(lp430
F623.0
aF417.0
aa(lp431
F624.0
aF417.5
aa(lp432
F625.0
aF418.0
aa(lp433
F626.0
aF418.3333333333333
aa(lp434
F627.0
aF418.6666666666667
aa(lp435
F628.0
aF419.0
aa(lp436
F628.5
aF420.0
aa(lp437
F629.0
aF421.0
aa(lp438
F630.0
aF422.0
aa(lp439
F631.0
aF422.3333333333333
aa(lp440
F632.0
aF422.6666666666667
aa(lp441
F633.0
aF423.0
aa(lp442
F633.5
aF423.75
aa(lp443
F634.0
aF424.5
aa(lp444
F634.5
aF425.25
aa(lp445
F635.0
aF426.0
aa(lp446
F636.0
aF426.5
aa(lp447
F637.0
aF427.0
aa(lp448
F638.0
aF428.0
aa(lp449
F638.5
aF429.0
aa(lp450
F639.0
aF430.0
aa(lp451
F640.0
aF430.5
aa(lp452
F641.0
aF431.0
aa(lp453
F642.0
aF432.0
aa(lp454
F643.0
aF432.5
aa(lp455
F644.0
aF433.0
aa(lp456
F645.0
aF433.5
aa(lp457
F646.0
aF434.0
aa(lp458
F647.0
aF434.5
aa(lp459
F648.0
aF435.0
aa(lp460
F649.0
aF435.3333333333333
aa(lp461
F650.0
aF435.6666666666667
aa(lp462
F651.0
aF436.0
aa(lp463
F652.0
aF436.5
aa(lp464
F653.0
aF437.0
aa(lp465
F654.0
aF437.3333333333333
aa(lp466
F655.0
aF437.6666666666667
aa(lp467
F656.0
aF438.0
aa(lp468
F657.0
aF438.3333333333333
aa(lp469
F658.0
aF438.6666666666667
aa(lp470
F659.0
aF439.0
aa(lp471
F659.75
aF439.5
aa(lp472
F660.5
aF440.0
aa(lp473
F661.25
aF440.5
aa(lp474
F662.0
aF441.0
aa(lp475
F663.0
aF441.3333333333333
aa(lp476
F664.0
aF441.6666666666667
aa(lp477
F665.0
aF442.0
aa(lp478
F666.0
aF442.5
aa(lp479
F667.0
aF443.0
aa(lp480
F668.0
aF443.5
aa(lp481
F669.0
aF444.0
aa(lp482
F670.0
aF444.0
aa(lp483
F671.0
aF444.0
aa(lp484
F672.0
aF444.5
aa(lp485
F673.0
aF445.0
aa(lp486
F674.0
aF446.0
aa(lp487
F675.0
aF446.0
aa(lp488
F676.0
aF447.0
aa(lp489
F677.0
aF448.0
aa(lp490
F678.0
aF448.0
aa(lp491
F679.0
aF448.0
aa(lp492
F679.0
aF449.0
aa(lp493
F680.0
aF449.0
aa(lp494
F681.0
aF449.0
aa(lp495
F682.0
aF450.0
aa(lp496
F683.0
aF451.0
aa(lp497
F684.0
aF451.0
aa(lp498
F685.0
aF451.0
aa(lp499
F686.0
aF452.0
aa(lp500
F687.0
aF453.0
aa(lp501
F688.0
aF454.0
aa(lp502
F689.0
aF454.0
aasg294
I2
sg295
F0.1
sasg296
g297
sg298
g299
sg300
g301
(I516
I241
I60
I96
tp503
Rp504
sba(i__main__
pickledNeuron
p505
(dp506
g3
I2
sg4
(lp507
(dp508
g7
I2
sg8
(lp509
(lp510
F690.0
aF454.0
aa(lp511
F691.0
aF454.0
aa(lp512
F692.0
aF454.0
aa(lp513
F692.75
aF453.5
aa(lp514
F693.5
aF453.0
aa(lp515
F694.25
aF452.5
aa(lp516
F695.0
aF452.0
aa(lp517
F696.0
aF451.5
aa(lp518
F697.0
aF451.0
aa(lp519
F698.0
aF450.5
aa(lp520
F699.0
aF450.0
aa(lp521
F699.875
aF449.625
aa(lp522
F700.75
aF449.25
aa(lp523
F701.625
aF448.875
aa(lp524
F702.5
aF448.5
aa(lp525
F703.375
aF448.125
aa(lp526
F704.25
aF447.75
aa(lp527
F705.125
aF447.375
aa(lp528
F706.0
aF447.0
aa(lp529
F706.9
aF446.6
aa(lp530
F707.8
aF446.2
aa(lp531
F708.7
aF445.8
aa(lp532
F709.6
aF445.4
aa(lp533
F710.5
aF445.0
aa(lp534
F711.4
aF444.6
aa(lp535
F712.3
aF444.2
aa(lp536
F713.2
aF443.8
aa(lp537
F714.1
aF443.4
aa(lp538
F715.0
aF443.0
aa(lp539
F716.0
aF442.7
aa(lp540
F717.0
aF442.4
aa(lp541
F718.0
aF442.1
aa(lp542
F719.0
aF441.8
aa(lp543
F720.0
aF441.5
aa(lp544
F721.0
aF441.2
aa(lp545
F722.0
aF440.9
aa(lp546
F723.0
aF440.6
aa(lp547
F724.0
aF440.3
aa(lp548
F725.0
aF440.0
aa(lp549
F725.9090909090909
aF439.54545454545456
aa(lp550
F726.8181818181819
aF439.09090909090907
aa(lp551
F727.7272727272727
aF438.6363636363636
aa(lp552
F728.6363636363636
aF438.1818181818182
aa(lp553
F729.5454545454545
aF437.72727272727275
aa(lp554
F730.4545454545455
aF437.27272727272725
aa(lp555
F731.3636363636364
aF436.8181818181818
aa(lp556
F732.2727272727273
aF436.3636363636364
aa(lp557
F733.1818181818181
aF435.90909090909093
aa(lp558
F734.0909090909091
aF435.45454545454544
aa(lp559
F735.0
aF435.0
aa(lp560
F735.9090909090909
aF434.6363636363636
aa(lp561
F736.8181818181819
aF434.27272727272725
aa(lp562
F737.7272727272727
aF433.90909090909093
aa(lp563
F738.6363636363636
aF433.54545454545456
aa(lp564
F739.5454545454545
aF433.1818181818182
aa(lp565
F740.4545454545455
aF432.8181818181818
aa(lp566
F741.3636363636364
aF432.45454545454544
aa(lp567
F742.2727272727273
aF432.09090909090907
aa(lp568
F743.1818181818181
aF431.72727272727275
aa(lp569
F744.0909090909091
aF431.3636363636364
aa(lp570
F745.0
aF431.0
aa(lp571
F745.8888888888889
aF430.44444444444446
aa(lp572
F746.7777777777778
aF429.8888888888889
aa(lp573
F747.6666666666666
aF429.3333333333333
aa(lp574
F748.5555555555555
aF428.77777777777777
aa(lp575
F749.4444444444445
aF428.22222222222223
aa(lp576
F750.3333333333334
aF427.6666666666667
aa(lp577
F751.2222222222222
aF427.1111111111111
aa(lp578
F752.1111111111111
aF426.55555555555554
aa(lp579
F753.0
aF426.0
aa(lp580
F753.8571428571429
aF425.42857142857144
aa(lp581
F754.7142857142857
aF424.85714285714283
aa(lp582
F755.5714285714286
aF424.2857142857143
aa(lp583
F756.4285714285714
aF423.7142857142857
aa(lp584
F757.2857142857143
aF423.14285714285717
aa(lp585
F758.1428571428571
aF422.57142857142856
aa(lp586
F759.0
aF422.0
aa(lp587
F759.75
aF421.375
aa(lp588
F760.5
aF420.75
aa(lp589
F761.25
aF420.125
aa(lp590
F762.0
aF419.5
aa(lp591
F762.75
aF418.875
aa(lp592
F763.5
aF418.25
aa(lp593
F764.25
aF417.625
aa(lp594
F765.0
aF417.0
aa(lp595
F765.875
aF416.5
aa(lp596
F766.75
aF416.0
aa(lp597
F767.625
aF415.5
aa(lp598
F768.5
aF415.0
aa(lp599
F769.375
aF414.5
aa(lp600
F770.25
aF414.0
aa(lp601
F771.125
aF413.5
aa(lp602
F772.0
aF413.0
aa(lp603
F772.6666666666666
aF412.1666666666667
aa(lp604
F773.3333333333334
aF411.3333333333333
aa(lp605
F774.0
aF410.5
aa(lp606
F774.6666666666666
aF409.6666666666667
aa(lp607
F775.3333333333334
aF408.8333333333333
aa(lp608
F776.0
aF408.0
aa(lp609
F776.5
aF407.0
aa(lp610
F777.0
aF406.0
aa(lp611
F777.5
aF405.0
aa(lp612
F778.0
aF404.0
aa(lp613
F778.6
aF403.2
aa(lp614
F779.2
aF402.4
aa(lp615
F779.8
aF401.6
aa(lp616
F780.4
aF400.8
aa(lp617
F781.0
aF400.0
aa(lp618
F781.4
aF399.0
aa(lp619
F781.8
aF398.0
aa(lp620
F782.2
aF397.0
aa(lp621
F782.6
aF396.0
aa(lp622
F783.0
aF395.0
aa(lp623
F783.6
aF394.2
aa(lp624
F784.2
aF393.4
aa(lp625
F784.8
aF392.6
aa(lp626
F785.4
aF391.8
aa(lp627
F786.0
aF391.0
aa(lp628
F786.6666666666666
aF390.3333333333333
aa(lp629
F787.3333333333334
aF389.6666666666667
aa(lp630
F788.0
aF389.0
aa(lp631
F788.6666666666666
aF388.3333333333333
aa(lp632
F789.3333333333334
aF387.6666666666667
aa(lp633
F790.0
aF387.0
aa(lp634
F790.6666666666666
aF386.1666666666667
aa(lp635
F791.3333333333334
aF385.3333333333333
aa(lp636
F792.0
aF384.5
aa(lp637
F792.6666666666666
aF383.6666666666667
aa(lp638
F793.3333333333334
aF382.8333333333333
aa(lp639
F794.0
aF382.0
aa(lp640
F794.6666666666666
aF381.3333333333333
aa(lp641
F795.3333333333334
aF380.6666666666667
aa(lp642
F796.0
aF380.0
aa(lp643
F796.6666666666666
aF379.3333333333333
aa(lp644
F797.3333333333334
aF378.6666666666667
aa(lp645
F798.0
aF378.0
aa(lp646
F798.6666666666666
aF377.3333333333333
aa(lp647
F799.3333333333334
aF376.6666666666667
aa(lp648
F800.0
aF376.0
aa(lp649
F800.6666666666666
aF375.3333333333333
aa(lp650
F801.3333333333334
aF374.6666666666667
aa(lp651
F802.0
aF374.0
aa(lp652
F803.0
aF373.75
aa(lp653
F804.0
aF373.5
aa(lp654
F805.0
aF373.25
aa(lp655
F806.0
aF373.0
aa(lp656
F806.8
aF372.4
aa(lp657
F807.6
aF371.8
aa(lp658
F808.4
aF371.2
aa(lp659
F809.2
aF370.6
aa(lp660
F810.0
aF370.0
aa(lp661
F811.0
aF369.75
aa(lp662
F812.0
aF369.5
aa(lp663
F813.0
aF369.25
aa(lp664
F814.0
aF369.0
aa(lp665
F815.0
aF368.5
aa(lp666
F816.0
aF368.0
aa(lp667
F817.0
aF367.5
aa(lp668
F818.0
aF367.0
aa(lp669
F818.5
aF366.0
aa(lp670
F819.0
aF365.0
aa(lp671
F820.0
aF365.0
aa(lp672
F821.0
aF364.5
aa(lp673
F822.0
aF364.0
aa(lp674
F822.0
aF363.0
aa(lp675
F823.0
aF363.0
aa(lp676
F824.0
aF362.0
aa(lp677
F825.0
aF361.0
aa(lp678
F826.0
aF360.0
aa(lp679
F827.0
aF360.0
aa(lp680
F828.0
aF359.5
aa(lp681
F829.0
aF359.0
aa(lp682
F829.0
aF358.0
aa(lp683
F830.0
aF357.0
aa(lp684
F831.0
aF356.0
aa(lp685
F832.0
aF355.0
aa(lp686
F832.0
aF354.0
aa(lp687
F832.0
aF353.0
aa(lp688
F833.0
aF352.0
aa(lp689
F833.0
aF351.0
aa(lp690
F833.5
aF350.0
aa(lp691
F834.0
aF349.0
aa(lp692
F834.0
aF348.0
aa(lp693
F834.0
aF347.0
aa(lp694
F835.0
aF346.0
aa(lp695
F835.0
aF345.0
aa(lp696
F835.0
aF344.0
aa(lp697
F835.0
aF343.0
aa(lp698
F835.0
aF342.0
aa(lp699
F835.0
aF341.0
aa(lp700
F835.0
aF340.0
aa(lp701
F835.0
aF339.0
aa(lp702
F835.0
aF338.0
aa(lp703
F834.0
aF337.5
aa(lp704
F833.0
aF337.0
aa(lp705
F832.0
aF336.0
aa(lp706
F831.0
aF336.0
aa(lp707
F830.0
aF335.0
aa(lp708
F829.0
aF334.0
aa(lp709
F828.0
aF334.0
aa(lp710
F827.0
aF333.0
aa(lp711
F826.0
aF332.5
aa(lp712
F825.0
aF332.0
aa(lp713
F824.0
aF331.0
aa(lp714
F823.0
aF331.0
aa(lp715
F822.0
aF331.0
aa(lp716
F821.0
aF330.0
aasg294
I1
sg295
F0.1
sasg296
g297
sg298
g299
sg300
g301
(I665
I378
I60
I96
tp717
Rp718
sba.