(lp0
(i__main__
pickledNeuron
p1
(dp2
S'axons'
p3
(lp4
sS'nid'
p5
I5
sS'rf'
p6
I0
sS'tp'
p7
S'rightbackward'
p8
sS'super_type'
p9
S'motor'
p10
sS'freq'
p11
NsS'rect'
p12
cpygame
__rect_constructor
p13
(I767
I368
I80
I51
tp14
Rp15
sba(i__main__
pickledNeuron
p16
(dp17
g3
(lp18
sg5
I6
sg6
I0
sg7
S'leftbackward'
p19
sg9
g10
sg11
Nsg12
g13
(I630
I370
I80
I52
tp20
Rp21
sba(i__main__
pickledNeuron
p22
(dp23
g3
(lp24
sg5
I2
sg6
I0
sg7
S'rightforward'
p25
sg9
g10
sg11
Nsg12
g13
(I422
I372
I80
I51
tp26
Rp27
sba(i__main__
pickledNeuron
p28
(dp29
g3
(lp30
(dp31
S'start'
p32
I1
sS'points'
p33
(lp34
(lp35
F729.0
aF328.0
aa(lp36
F729.6666666666666
aF328.6666666666667
aa(lp37
F730.3333333333334
aF329.3333333333333
aa(lp38
F731.0
aF330.0
aa(lp39
F731.6
aF330.8
aa(lp40
F732.2
aF331.6
aa(lp41
F732.8
aF332.4
aa(lp42
F733.4
aF333.2
aa(lp43
F734.0
aF334.0
aa(lp44
F735.0
aF334.5
aa(lp45
F736.0
aF335.0
aa(lp46
F736.6666666666666
aF335.6666666666667
aa(lp47
F737.3333333333334
aF336.3333333333333
aa(lp48
F738.0
aF337.0
aa(lp49
F738.6666666666666
aF337.6666666666667
aa(lp50
F739.3333333333334
aF338.3333333333333
aa(lp51
F740.0
aF339.0
aa(lp52
F740.6666666666666
aF339.6666666666667
aa(lp53
F741.3333333333334
aF340.3333333333333
aa(lp54
F742.0
aF341.0
aa(lp55
F742.6666666666666
aF341.6666666666667
aa(lp56
F743.3333333333334
aF342.3333333333333
aa(lp57
F744.0
aF343.0
aa(lp58
F744.6666666666666
aF343.6666666666667
aa(lp59
F745.3333333333334
aF344.3333333333333
aa(lp60
F746.0
aF345.0
aa(lp61
F747.0
aF345.5
aa(lp62
F748.0
aF346.0
aa(lp63
F749.0
aF346.5
aa(lp64
F750.0
aF347.0
aa(lp65
F751.0
aF347.5
aa(lp66
F752.0
aF348.0
aa(lp67
F752.5
aF348.75
aa(lp68
F753.0
aF349.5
aa(lp69
F753.5
aF350.25
aa(lp70
F754.0
aF351.0
aa(lp71
F754.6666666666666
aF351.6666666666667
aa(lp72
F755.3333333333334
aF352.3333333333333
aa(lp73
F756.0
aF353.0
aa(lp74
F756.6666666666666
aF353.6666666666667
aa(lp75
F757.3333333333334
aF354.3333333333333
aa(lp76
F758.0
aF355.0
aa(lp77
F758.75
aF355.5
aa(lp78
F759.5
aF356.0
aa(lp79
F760.25
aF356.5
aa(lp80
F761.0
aF357.0
aa(lp81
F761.6
aF357.8
aa(lp82
F762.2
aF358.6
aa(lp83
F762.8
aF359.4
aa(lp84
F763.4
aF360.2
aa(lp85
F764.0
aF361.0
aa(lp86
F764.6666666666666
aF361.6666666666667
aa(lp87
F765.3333333333334
aF362.3333333333333
aa(lp88
F766.0
aF363.0
aa(lp89
F766.6666666666666
aF363.6666666666667
aa(lp90
F767.3333333333334
aF364.3333333333333
aa(lp91
F768.0
aF365.0
aa(lp92
F768.6666666666666
aF365.6666666666667
aa(lp93
F769.3333333333334
aF366.3333333333333
aa(lp94
F770.0
aF367.0
aa(lp95
F770.6
aF367.8
aa(lp96
F771.2
aF368.6
aa(lp97
F771.8
aF369.4
aa(lp98
F772.4
aF370.2
aa(lp99
F773.0
aF371.0
aa(lp100
F774.0
aF371.25
aa(lp101
F775.0
aF371.5
aa(lp102
F776.0
aF371.75
aa(lp103
F777.0
aF372.0
aa(lp104
F777.6666666666666
aF372.6666666666667
aa(lp105
F778.3333333333334
aF373.3333333333333
aa(lp106
F779.0
aF374.0
aa(lp107
F779.75
aF374.5
aa(lp108
F780.5
aF375.0
aa(lp109
F781.25
aF375.5
aa(lp110
F782.0
aF376.0
aa(lp111
F782.75
aF376.75
aa(lp112
F783.5
aF377.5
aa(lp113
F784.25
aF378.25
aa(lp114
F785.0
aF379.0
aa(lp115
F785.6666666666666
aF379.6666666666667
aa(lp116
F786.3333333333334
aF380.3333333333333
aa(lp117
F787.0
aF381.0
aa(lp118
F788.0
aF382.0
aa(lp119
F789.0
aF382.0
aa(lp120
F789.6666666666666
aF382.6666666666667
aa(lp121
F790.3333333333334
aF383.3333333333333
aa(lp122
F791.0
aF384.0
aa(lp123
F792.0
aF385.0
aa(lp124
F792.75
aF385.75
aa(lp125
F793.5
aF386.5
aa(lp126
F794.25
aF387.25
aa(lp127
F795.0
aF388.0
aa(lp128
F796.0
aF388.5
aa(lp129
F797.0
aF389.0
aasS'end'
p130
I5
sS'weight'
p131
F0.5
sa(dp132
g32
I1
sg33
(lp133
(lp134
F726.0
aF333.0
aa(lp135
F725.0
aF334.0
aa(lp136
F724.5
aF335.0
aa(lp137
F724.0
aF336.0
aa(lp138
F723.2
aF336.6
aa(lp139
F722.4
aF337.2
aa(lp140
F721.6
aF337.8
aa(lp141
F720.8
aF338.4
aa(lp142
F720.0
aF339.0
aa(lp143
F719.0
aF339.5
aa(lp144
F718.0
aF340.0
aa(lp145
F717.4
aF340.8
aa(lp146
F716.8
aF341.6
aa(lp147
F716.2
aF342.4
aa(lp148
F715.6
aF343.2
aa(lp149
F715.0
aF344.0
aa(lp150
F714.25
aF344.75
aa(lp151
F713.5
aF345.5
aa(lp152
F712.75
aF346.25
aa(lp153
F712.0
aF347.0
aa(lp154
F711.25
aF347.5
aa(lp155
F710.5
aF348.0
aa(lp156
F709.75
aF348.5
aa(lp157
F709.0
aF349.0
aa(lp158
F708.5
aF350.0
aa(lp159
F708.0
aF351.0
aa(lp160
F707.5
aF352.0
aa(lp161
F707.0
aF353.0
aa(lp162
F706.5
aF353.75
aa(lp163
F706.0
aF354.5
aa(lp164
F705.5
aF355.25
aa(lp165
F705.0
aF356.0
aa(lp166
F704.5
aF357.0
aa(lp167
F704.0
aF358.0
aa(lp168
F703.5
aF359.0
aa(lp169
F703.0
aF360.0
aa(lp170
F702.25
aF360.5
aa(lp171
F701.5
aF361.0
aa(lp172
F700.75
aF361.5
aa(lp173
F700.0
aF362.0
aa(lp174
F699.25
aF362.75
aa(lp175
F698.5
aF363.5
aa(lp176
F697.75
aF364.25
aa(lp177
F697.0
aF365.0
aa(lp178
F696.3333333333334
aF365.6666666666667
aa(lp179
F695.6666666666666
aF366.3333333333333
aa(lp180
F695.0
aF367.0
aa(lp181
F694.5
aF368.0
aa(lp182
F694.0
aF369.0
aa(lp183
F693.0
aF369.5
aa(lp184
F692.0
aF370.0
aa(lp185
F691.0
aF370.5
aa(lp186
F690.0
aF371.0
aa(lp187
F689.3333333333334
aF371.6666666666667
aa(lp188
F688.6666666666666
aF372.3333333333333
aa(lp189
F688.0
aF373.0
aa(lp190
F687.0
aF374.0
aa(lp191
F686.3333333333334
aF374.6666666666667
aa(lp192
F685.6666666666666
aF375.3333333333333
aa(lp193
F685.0
aF376.0
aa(lp194
F684.5
aF377.0
aa(lp195
F684.0
aF378.0
aa(lp196
F683.0
aF379.0
aa(lp197
F682.0
aF380.0
aa(lp198
F681.0
aF381.0
aa(lp199
F680.0
aF382.0
aa(lp200
F679.5
aF383.0
aa(lp201
F679.0
aF384.0
aa(lp202
F678.0
aF385.0
aa(lp203
F677.5
aF386.0
aa(lp204
F677.0
aF387.0
aa(lp205
F676.0
aF387.5
aa(lp206
F675.0
aF388.0
aa(lp207
F674.0
aF389.0
aasg130
I6
sg131
F0.5
sasg5
I1
sg6
I0
sg7
S'auditory'
p208
sg9
S'sensor'
p209
sg11
I1169
sg12
g13
(I703
I244
I60
I96
tp210
Rp211
sba(i__main__
pickledNeuron
p212
(dp213
g3
(lp214
(dp215
g32
I0
sg33
(lp216
(lp217
F377.0
aF322.0
aa(lp218
F377.8
aF322.6
aa(lp219
F378.6
aF323.2
aa(lp220
F379.4
aF323.8
aa(lp221
F380.2
aF324.4
aa(lp222
F381.0
aF325.0
aa(lp223
F381.77777777777777
aF325.6666666666667
aa(lp224
F382.55555555555554
aF326.3333333333333
aa(lp225
F383.3333333333333
aF327.0
aa(lp226
F384.1111111111111
aF327.6666666666667
aa(lp227
F384.8888888888889
aF328.3333333333333
aa(lp228
F385.6666666666667
aF329.0
aa(lp229
F386.44444444444446
aF329.6666666666667
aa(lp230
F387.22222222222223
aF330.3333333333333
aa(lp231
F388.0
aF331.0
aa(lp232
F388.77777777777777
aF331.6666666666667
aa(lp233
F389.55555555555554
aF332.3333333333333
aa(lp234
F390.3333333333333
aF333.0
aa(lp235
F391.1111111111111
aF333.6666666666667
aa(lp236
F391.8888888888889
aF334.3333333333333
aa(lp237
F392.6666666666667
aF335.0
aa(lp238
F393.44444444444446
aF335.6666666666667
aa(lp239
F394.22222222222223
aF336.3333333333333
aa(lp240
F395.0
aF337.0
aa(lp241
F395.77777777777777
aF337.55555555555554
aa(lp242
F396.55555555555554
aF338.1111111111111
aa(lp243
F397.3333333333333
aF338.6666666666667
aa(lp244
F398.1111111111111
aF339.22222222222223
aa(lp245
F398.8888888888889
aF339.77777777777777
aa(lp246
F399.6666666666667
aF340.3333333333333
aa(lp247
F400.44444444444446
aF340.8888888888889
aa(lp248
F401.22222222222223
aF341.44444444444446
aa(lp249
F402.0
aF342.0
aa(lp250
F402.75
aF342.625
aa(lp251
F403.5
aF343.25
aa(lp252
F404.25
aF343.875
aa(lp253
F405.0
aF344.5
aa(lp254
F405.75
aF345.125
aa(lp255
F406.5
aF345.75
aa(lp256
F407.25
aF346.375
aa(lp257
F408.0
aF347.0
aa(lp258
F408.75
aF347.75
aa(lp259
F409.5
aF348.5
aa(lp260
F410.25
aF349.25
aa(lp261
F411.0
aF350.0
aa(lp262
F411.85714285714283
aF350.57142857142856
aa(lp263
F412.7142857142857
aF351.14285714285717
aa(lp264
F413.57142857142856
aF351.7142857142857
aa(lp265
F414.42857142857144
aF352.2857142857143
aa(lp266
F415.2857142857143
aF352.85714285714283
aa(lp267
F416.14285714285717
aF353.42857142857144
aa(lp268
F417.0
aF354.0
aa(lp269
F417.8333333333333
aF354.6666666666667
aa(lp270
F418.6666666666667
aF355.3333333333333
aa(lp271
F419.5
aF356.0
aa(lp272
F420.3333333333333
aF356.6666666666667
aa(lp273
F421.1666666666667
aF357.3333333333333
aa(lp274
F422.0
aF358.0
aa(lp275
F423.0
aF359.0
aa(lp276
F423.75
aF359.5
aa(lp277
F424.5
aF360.0
aa(lp278
F425.25
aF360.5
aa(lp279
F426.0
aF361.0
aa(lp280
F426.75
aF361.5
aa(lp281
F427.5
aF362.0
aa(lp282
F428.25
aF362.5
aa(lp283
F429.0
aF363.0
aa(lp284
F430.0
aF363.3333333333333
aa(lp285
F431.0
aF363.6666666666667
aa(lp286
F432.0
aF364.0
aa(lp287
F433.0
aF365.0
aa(lp288
F433.75
aF365.75
aa(lp289
F434.5
aF366.5
aa(lp290
F435.25
aF367.25
aa(lp291
F436.0
aF368.0
aa(lp292
F437.0
aF369.0
aa(lp293
F437.6666666666667
aF369.6666666666667
aa(lp294
F438.3333333333333
aF370.3333333333333
aa(lp295
F439.0
aF371.0
aa(lp296
F439.6666666666667
aF371.6666666666667
aa(lp297
F440.3333333333333
aF372.3333333333333
aa(lp298
F441.0
aF373.0
aa(lp299
F442.0
aF374.0
aa(lp300
F442.6666666666667
aF374.6666666666667
aa(lp301
F443.3333333333333
aF375.3333333333333
aa(lp302
F444.0
aF376.0
aa(lp303
F444.0
aF377.0
aa(lp304
F444.6666666666667
aF377.6666666666667
aa(lp305
F445.3333333333333
aF378.3333333333333
aa(lp306
F446.0
aF379.0
aa(lp307
F447.0
aF379.5
aa(lp308
F448.0
aF380.0
aa(lp309
F448.5
aF380.75
aa(lp310
F449.0
aF381.5
aa(lp311
F449.5
aF382.25
aa(lp312
F450.0
aF383.0
aa(lp313
F450.5
aF383.75
aa(lp314
F451.0
aF384.5
aa(lp315
F451.5
aF385.25
aa(lp316
F452.0
aF386.0
aa(lp317
F453.0
aF387.0
aasg130
I2
sg131
F0.5
sa(dp318
g32
I0
sg33
(lp319
(lp320
F377.0
aF323.0
aa(lp321
F376.0
aF324.0
aa(lp322
F375.1666666666667
aF324.5
aa(lp323
F374.3333333333333
aF325.0
aa(lp324
F373.5
aF325.5
aa(lp325
F372.6666666666667
aF326.0
aa(lp326
F371.8333333333333
aF326.5
aa(lp327
F371.0
aF327.0
aa(lp328
F370.3333333333333
aF327.6666666666667
aa(lp329
F369.6666666666667
aF328.3333333333333
aa(lp330
F369.0
aF329.0
aa(lp331
F368.3333333333333
aF329.6666666666667
aa(lp332
F367.6666666666667
aF330.3333333333333
aa(lp333
F367.0
aF331.0
aa(lp334
F366.14285714285717
aF331.42857142857144
aa(lp335
F365.2857142857143
aF331.85714285714283
aa(lp336
F364.42857142857144
aF332.2857142857143
aa(lp337
F363.57142857142856
aF332.7142857142857
aa(lp338
F362.7142857142857
aF333.14285714285717
aa(lp339
F361.85714285714283
aF333.57142857142856
aa(lp340
F361.0
aF334.0
aa(lp341
F360.25
aF334.75
aa(lp342
F359.5
aF335.5
aa(lp343
F358.75
aF336.25
aa(lp344
F358.0
aF337.0
aa(lp345
F357.4
aF337.8
aa(lp346
F356.8
aF338.6
aa(lp347
F356.2
aF339.4
aa(lp348
F355.6
aF340.2
aa(lp349
F355.0
aF341.0
aa(lp350
F354.25
aF341.5
aa(lp351
F353.5
aF342.0
aa(lp352
F352.75
aF342.5
aa(lp353
F352.0
aF343.0
aa(lp354
F351.0
aF343.5
aa(lp355
F350.0
aF344.0
aa(lp356
F349.0
aF344.5
aa(lp357
F348.0
aF345.0
aa(lp358
F347.0
aF345.5
aa(lp359
F346.0
aF346.0
aa(lp360
F345.0
aF347.0
aa(lp361
F344.5
aF347.75
aa(lp362
F344.0
aF348.5
aa(lp363
F343.5
aF349.25
aa(lp364
F343.0
aF350.0
aa(lp365
F342.25
aF350.5
aa(lp366
F341.5
aF351.0
aa(lp367
F340.75
aF351.5
aa(lp368
F340.0
aF352.0
aa(lp369
F339.2
aF352.6
aa(lp370
F338.4
aF353.2
aa(lp371
F337.6
aF353.8
aa(lp372
F336.8
aF354.4
aa(lp373
F336.0
aF355.0
aa(lp374
F335.5
aF355.75
aa(lp375
F335.0
aF356.5
aa(lp376
F334.5
aF357.25
aa(lp377
F334.0
aF358.0
aa(lp378
F333.0
aF358.0
aa(lp379
F332.0
aF359.0
aa(lp380
F331.0
aF360.0
aa(lp381
F331.0
aF361.0
aa(lp382
F330.2
aF361.6
aa(lp383
F329.4
aF362.2
aa(lp384
F328.6
aF362.8
aa(lp385
F327.8
aF363.4
aa(lp386
F327.0
aF364.0
aa(lp387
F326.0
aF365.0
aa(lp388
F326.0
aF366.0
aa(lp389
F326.0
aF367.0
aa(lp390
F325.5
aF368.0
aa(lp391
F325.0
aF369.0
aa(lp392
F324.5
aF370.0
aa(lp393
F324.0
aF371.0
aa(lp394
F324.0
aF372.0
aa(lp395
F324.0
aF373.0
aa(lp396
F324.0
aF374.0
aa(lp397
F324.0
aF375.0
aa(lp398
F324.0
aF376.0
aasg130
I4
sg131
F0.5
sasg5
I0
sg6
I0
sg7
g208
sg9
g209
sg11
I530
sg12
g13
(I355
I236
I60
I96
tp399
Rp400
sba(i__main__
pickledNeuron
p401
(dp402
g3
(lp403
sg5
I4
sg6
I0
sg7
S'leftforward'
p404
sg9
g10
sg11
Nsg12
g13
(I278
I364
I80
I49
tp405
Rp406
sba.