(lp0
(i__main__
pickledNeuron
p1
(dp2
S'axons'
p3
(lp4
sS'nid'
p5
I2
sS'rf'
p6
I0
sS'tp'
p7
S'rightforward'
p8
sS'super_type'
p9
S'motor'
p10
sS'rect'
p11
cpygame
__rect_constructor
p12
(I423
I174
I80
I51
tp13
Rp14
sba(i__main__
pickledNeuron
p15
(dp16
g3
(lp17
sg5
I5
sg6
I0
sg7
S'leftforward'
p18
sg9
g10
sg11
g12
(I518
I372
I80
I49
tp19
Rp20
sba(i__main__
pickledNeuron
p21
(dp22
g3
(lp23
(dp24
S'start'
p25
I7
sS'points'
p26
(lp27
(lp28
F530.0
aF289.0
aa(lp29
F529.6666666666666
aF288.0
aa(lp30
F529.3333333333334
aF287.0
aa(lp31
F529.0
aF286.0
aa(lp32
F528.0
aF285.5
aa(lp33
F527.0
aF285.0
aa(lp34
F526.0
aF284.5
aa(lp35
F525.0
aF284.0
aa(lp36
F524.0
aF283.0
aa(lp37
F523.5
aF282.0
aa(lp38
F523.0
aF281.0
aa(lp39
F522.0
aF281.0
aa(lp40
F521.0
aF281.0
aa(lp41
F521.0
aF280.0
aa(lp42
F521.0
aF279.0
aa(lp43
F520.3333333333334
aF278.3333333333333
aa(lp44
F519.6666666666666
aF277.6666666666667
aa(lp45
F519.0
aF277.0
aa(lp46
F518.0
aF276.5
aa(lp47
F517.0
aF276.0
aa(lp48
F516.0
aF275.0
aa(lp49
F515.5
aF274.0
aa(lp50
F515.0
aF273.0
aa(lp51
F514.0
aF272.0
aa(lp52
F513.0
aF271.0
aa(lp53
F512.0
aF270.5
aa(lp54
F511.0
aF270.0
aa(lp55
F510.5
aF269.0
aa(lp56
F510.0
aF268.0
aa(lp57
F509.0
aF267.0
aa(lp58
F508.0
aF266.5
aa(lp59
F507.0
aF266.0
aa(lp60
F506.0
aF265.0
aa(lp61
F505.5
aF264.0
aa(lp62
F505.0
aF263.0
aa(lp63
F504.0
aF262.0
aa(lp64
F503.3333333333333
aF261.3333333333333
aa(lp65
F502.6666666666667
aF260.6666666666667
aa(lp66
F502.0
aF260.0
aa(lp67
F501.0
aF259.0
aa(lp68
F500.0
aF258.0
aa(lp69
F499.0
aF257.0
aa(lp70
F498.5
aF256.0
aa(lp71
F498.0
aF255.0
aa(lp72
F497.0
aF254.0
aa(lp73
F496.0
aF253.5
aa(lp74
F495.0
aF253.0
aa(lp75
F494.5
aF252.0
aa(lp76
F494.0
aF251.0
aa(lp77
F493.0
aF251.0
aa(lp78
F492.0
aF250.0
aa(lp79
F492.0
aF249.0
aa(lp80
F491.0
aF248.0
aa(lp81
F490.0
aF247.0
aa(lp82
F489.0
aF246.0
aa(lp83
F488.0
aF245.0
aa(lp84
F487.0
aF244.0
aa(lp85
F487.0
aF243.0
aa(lp86
F486.0
aF242.0
aa(lp87
F485.0
aF241.0
aa(lp88
F485.0
aF240.0
aa(lp89
F484.0
aF239.5
aa(lp90
F483.0
aF239.0
aa(lp91
F483.0
aF238.0
aa(lp92
F482.5
aF237.0
aa(lp93
F482.0
aF236.0
aa(lp94
F481.0
aF235.0
aa(lp95
F480.0
aF234.0
aa(lp96
F480.0
aF233.0
aa(lp97
F479.0
aF232.0
aa(lp98
F478.0
aF231.0
aa(lp99
F478.0
aF230.0
aa(lp100
F477.0
aF229.0
aa(lp101
F476.0
aF228.0
aa(lp102
F475.0
aF227.0
aa(lp103
F474.0
aF226.0
aa(lp104
F474.0
aF225.0
aa(lp105
F473.0
aF224.0
aa(lp106
F472.0
aF223.0
aa(lp107
F472.0
aF222.0
aa(lp108
F471.0
aF221.0
aa(lp109
F470.0
aF220.0
aa(lp110
F470.0
aF219.0
aa(lp111
F470.0
aF218.0
aa(lp112
F469.0
aF217.0
aa(lp113
F468.0
aF216.0
aa(lp114
F468.0
aF215.0
aa(lp115
F467.0
aF214.0
aa(lp116
F467.0
aF213.0
aa(lp117
F466.0
aF212.0
aa(lp118
F465.0
aF211.0
aa(lp119
F465.0
aF210.0
aa(lp120
F465.0
aF209.0
aa(lp121
F464.0
aF209.0
aa(lp122
F464.0
aF208.0
aa(lp123
F464.0
aF207.0
aa(lp124
F464.0
aF206.0
aa(lp125
F463.0
aF205.5
aa(lp126
F462.0
aF205.0
aa(lp127
F462.0
aF204.0
aa(lp128
F462.0
aF203.0
aa(lp129
F461.0
aF202.0
aa(lp130
F461.0
aF201.0
aa(lp131
F460.0
aF201.0
aasS'end'
p132
I2
sS'weight'
p133
F0.5
sa(dp134
g25
I7
sg26
(lp135
(lp136
F534.0
aF294.0
aa(lp137
F534.0
aF295.0
aa(lp138
F533.0
aF295.5
aa(lp139
F532.0
aF296.0
aa(lp140
F531.0
aF297.0
aa(lp141
F530.0
aF297.5
aa(lp142
F529.0
aF298.0
aa(lp143
F528.0
aF299.0
aa(lp144
F527.0
aF300.0
aa(lp145
F526.0
aF300.5
aa(lp146
F525.0
aF301.0
aa(lp147
F524.0
aF302.0
aa(lp148
F523.0
aF302.0
aa(lp149
F522.0
aF303.0
aa(lp150
F522.0
aF304.0
aa(lp151
F521.0
aF304.5
aa(lp152
F520.0
aF305.0
aa(lp153
F520.0
aF306.0
aa(lp154
F519.0
aF306.0
aa(lp155
F518.0
aF306.0
aa(lp156
F518.0
aF307.0
aa(lp157
F518.0
aF308.0
aa(lp158
F517.5
aF309.0
aa(lp159
F517.0
aF310.0
aa(lp160
F516.0
aF310.5
aa(lp161
F515.0
aF311.0
aa(lp162
F514.5
aF312.0
aa(lp163
F514.0
aF313.0
aa(lp164
F513.5
aF314.0
aa(lp165
F513.0
aF315.0
aa(lp166
F512.0
aF316.0
aa(lp167
F511.0
aF317.0
aa(lp168
F510.0
aF318.0
aa(lp169
F509.5
aF319.0
aa(lp170
F509.0
aF320.0
aa(lp171
F508.0
aF321.0
aa(lp172
F507.0
aF322.0
aa(lp173
F506.0
aF323.0
aa(lp174
F506.0
aF324.0
aa(lp175
F505.0
aF325.0
aa(lp176
F505.0
aF326.0
aa(lp177
F504.0
aF326.5
aa(lp178
F503.0
aF327.0
aa(lp179
F503.0
aF328.0
aa(lp180
F503.0
aF329.0
aa(lp181
F502.0
aF330.0
aa(lp182
F501.5
aF331.0
aa(lp183
F501.0
aF332.0
aa(lp184
F500.0
aF333.0
aa(lp185
F499.5
aF334.0
aa(lp186
F499.0
aF335.0
aa(lp187
F498.0
aF335.5
aa(lp188
F497.0
aF336.0
aa(lp189
F497.0
aF337.0
aa(lp190
F497.0
aF338.0
aa(lp191
F497.0
aF339.0
aa(lp192
F496.0
aF339.5
aa(lp193
F495.0
aF340.0
aa(lp194
F495.0
aF341.0
aa(lp195
F494.0
aF342.0
aa(lp196
F494.0
aF343.0
aa(lp197
F493.0
aF344.0
aa(lp198
F492.0
aF344.0
aa(lp199
F492.0
aF345.0
aa(lp200
F491.0
aF346.0
aa(lp201
F491.0
aF347.0
aa(lp202
F490.0
aF348.0
aa(lp203
F489.0
aF349.0
aa(lp204
F488.0
aF350.0
aa(lp205
F487.5
aF351.0
aa(lp206
F487.0
aF352.0
aa(lp207
F486.0
aF353.0
aa(lp208
F485.0
aF354.0
aa(lp209
F484.0
aF355.0
aa(lp210
F483.0
aF356.0
aa(lp211
F483.0
aF357.0
aa(lp212
F482.0
aF358.0
aa(lp213
F481.0
aF359.0
aa(lp214
F481.0
aF360.0
aa(lp215
F480.0
aF361.0
aa(lp216
F479.0
aF362.0
aa(lp217
F479.0
aF363.0
aa(lp218
F479.0
aF364.0
aa(lp219
F478.0
aF365.0
aa(lp220
F478.0
aF366.0
aa(lp221
F478.0
aF367.0
aa(lp222
F477.0
aF368.0
aa(lp223
F476.0
aF369.0
aa(lp224
F476.0
aF370.0
aa(lp225
F475.0
aF370.0
aa(lp226
F475.0
aF371.0
aa(lp227
F474.0
aF372.0
aa(lp228
F473.0
aF373.0
aa(lp229
F473.0
aF374.0
aa(lp230
F473.0
aF375.0
aa(lp231
F472.0
aF375.0
aa(lp232
F472.0
aF376.0
aa(lp233
F471.0
aF377.0
aa(lp234
F471.0
aF378.0
aa(lp235
F470.0
aF379.0
aa(lp236
F470.0
aF380.0
aa(lp237
F470.0
aF381.0
aa(lp238
F469.0
aF382.0
aa(lp239
F468.0
aF383.0
aa(lp240
F468.0
aF384.0
aa(lp241
F468.0
aF385.0
aa(lp242
F467.0
aF386.0
aa(lp243
F467.0
aF387.0
aa(lp244
F467.0
aF388.0
aa(lp245
F466.0
aF388.0
aa(lp246
F466.0
aF389.0
aa(lp247
F465.0
aF390.0
aa(lp248
F465.0
aF391.0
aa(lp249
F465.0
aF392.0
aasg132
I3
sg133
F0.5
sasg5
I7
sg6
I0
sg7
S'inhibitory'
p250
sg9
S'neuron'
p251
sg11
g12
(I505
I252
I73
I76
tp252
Rp253
sba(i__main__
pickledNeuron
p254
(dp255
g3
(lp256
(dp257
g25
I0
sg26
(lp258
(lp259
F382.0
aF277.0
aa(lp260
F383.0
aF277.0
aa(lp261
F384.0
aF276.0
aa(lp262
F385.0
aF275.5
aa(lp263
F386.0
aF275.0
aa(lp264
F387.0
aF274.5
aa(lp265
F388.0
aF274.0
aa(lp266
F389.0
aF273.0
aa(lp267
F390.0
aF272.5
aa(lp268
F391.0
aF272.0
aa(lp269
F392.0
aF271.5
aa(lp270
F393.0
aF271.0
aa(lp271
F394.0
aF270.0
aa(lp272
F395.0
aF269.5
aa(lp273
F396.0
aF269.0
aa(lp274
F397.0
aF269.0
aa(lp275
F398.0
aF269.0
aa(lp276
F399.0
aF268.0
aa(lp277
F400.0
aF267.0
aa(lp278
F401.0
aF266.0
aa(lp279
F402.0
aF266.0
aa(lp280
F403.0
aF266.0
aa(lp281
F403.0
aF265.0
aa(lp282
F404.0
aF265.0
aa(lp283
F404.0
aF264.0
aa(lp284
F405.0
aF263.5
aa(lp285
F406.0
aF263.0
aa(lp286
F407.0
aF262.5
aa(lp287
F408.0
aF262.0
aa(lp288
F409.0
aF261.0
aa(lp289
F410.0
aF261.0
aa(lp290
F411.0
aF261.0
aa(lp291
F411.0
aF260.0
aa(lp292
F412.0
aF259.0
aa(lp293
F413.0
aF258.0
aa(lp294
F414.0
aF258.0
aa(lp295
F415.0
aF257.0
aa(lp296
F416.0
aF257.0
aa(lp297
F416.5
aF256.0
aa(lp298
F417.0
aF255.0
aa(lp299
F418.0
aF255.0
aa(lp300
F419.0
aF254.0
aa(lp301
F420.0
aF254.0
aa(lp302
F421.0
aF253.0
aa(lp303
F422.0
aF253.0
aa(lp304
F423.0
aF253.0
aa(lp305
F423.0
aF252.0
aa(lp306
F424.0
aF251.0
aa(lp307
F425.0
aF251.0
aa(lp308
F426.0
aF250.0
aa(lp309
F426.0
aF249.0
aa(lp310
F427.0
aF249.0
aa(lp311
F428.0
aF248.0
aa(lp312
F428.0
aF247.0
aa(lp313
F429.0
aF246.0
aa(lp314
F430.0
aF245.0
aa(lp315
F431.0
aF244.0
aa(lp316
F431.0
aF243.0
aa(lp317
F432.0
aF242.0
aa(lp318
F433.0
aF241.0
aa(lp319
F434.0
aF240.0
aa(lp320
F435.0
aF239.0
aa(lp321
F435.0
aF238.0
aa(lp322
F436.0
aF237.0
aa(lp323
F437.0
aF236.0
aa(lp324
F437.5
aF235.0
aa(lp325
F438.0
aF234.0
aa(lp326
F439.0
aF233.0
aa(lp327
F440.0
aF232.0
aa(lp328
F440.0
aF231.0
aa(lp329
F441.0
aF231.0
aa(lp330
F441.0
aF230.0
aa(lp331
F442.0
aF229.0
aa(lp332
F443.0
aF228.0
aa(lp333
F443.0
aF227.0
aa(lp334
F444.0
aF226.0
aa(lp335
F445.0
aF225.0
aa(lp336
F446.0
aF224.0
aa(lp337
F447.0
aF223.0
aa(lp338
F447.0
aF222.0
aa(lp339
F448.0
aF221.0
aa(lp340
F448.0
aF220.0
aa(lp341
F449.0
aF219.0
aa(lp342
F450.0
aF218.0
aa(lp343
F450.0
aF217.0
aa(lp344
F451.0
aF216.0
aa(lp345
F451.0
aF215.0
aa(lp346
F452.0
aF214.0
aa(lp347
F453.0
aF214.0
aa(lp348
F453.0
aF213.0
aa(lp349
F454.0
aF212.0
aa(lp350
F455.0
aF211.0
aa(lp351
F455.0
aF210.0
aa(lp352
F456.0
aF209.0
aa(lp353
F456.0
aF208.0
aa(lp354
F456.0
aF207.0
aa(lp355
F457.0
aF207.0
aa(lp356
F457.0
aF206.0
aa(lp357
F457.0
aF205.0
aa(lp358
F457.0
aF204.0
aa(lp359
F458.0
aF204.0
aa(lp360
F458.0
aF203.0
aa(lp361
F458.0
aF202.0
aa(lp362
F458.0
aF201.0
aasg132
I2
sg133
F0.5
sa(dp363
g25
I0
sg26
(lp364
(lp365
F384.0
aF285.0
aa(lp366
F384.0
aF286.0
aa(lp367
F384.5
aF287.0
aa(lp368
F385.0
aF288.0
aa(lp369
F385.5
aF289.0
aa(lp370
F386.0
aF290.0
aa(lp371
F386.0
aF291.0
aa(lp372
F386.0
aF292.0
aa(lp373
F387.0
aF293.0
aa(lp374
F387.0
aF294.0
aa(lp375
F388.0
aF295.0
aa(lp376
F388.0
aF296.0
aa(lp377
F389.0
aF296.0
aa(lp378
F389.0
aF297.0
aa(lp379
F389.5
aF298.0
aa(lp380
F390.0
aF299.0
aa(lp381
F391.0
aF299.0
aa(lp382
F391.0
aF300.0
aa(lp383
F391.5
aF301.0
aa(lp384
F392.0
aF302.0
aa(lp385
F393.0
aF303.0
aa(lp386
F393.0
aF304.0
aa(lp387
F394.0
aF305.0
aa(lp388
F394.5
aF306.0
aa(lp389
F395.0
aF307.0
aa(lp390
F395.0
aF308.0
aa(lp391
F396.0
aF309.0
aa(lp392
F396.0
aF310.0
aa(lp393
F397.0
aF311.0
aa(lp394
F398.0
aF311.0
aa(lp395
F398.0
aF312.0
aa(lp396
F398.0
aF313.0
aa(lp397
F399.0
aF314.0
aa(lp398
F400.0
aF315.0
aa(lp399
F401.0
aF316.0
aa(lp400
F401.0
aF317.0
aa(lp401
F402.0
aF318.0
aa(lp402
F403.0
aF319.0
aa(lp403
F404.0
aF320.0
aa(lp404
F405.0
aF321.0
aa(lp405
F405.0
aF322.0
aa(lp406
F406.0
aF323.0
aa(lp407
F407.0
aF324.0
aa(lp408
F407.0
aF325.0
aa(lp409
F407.0
aF326.0
aa(lp410
F408.0
aF327.0
aa(lp411
F409.0
aF328.0
aa(lp412
F409.0
aF329.0
aa(lp413
F410.0
aF330.0
aa(lp414
F411.0
aF331.0
aa(lp415
F411.0
aF332.0
aa(lp416
F411.0
aF333.0
aa(lp417
F412.0
aF334.0
aa(lp418
F413.0
aF334.0
aa(lp419
F413.0
aF335.0
aa(lp420
F413.5
aF336.0
aa(lp421
F414.0
aF337.0
aa(lp422
F415.0
aF338.0
aa(lp423
F415.5
aF339.0
aa(lp424
F416.0
aF340.0
aa(lp425
F416.0
aF341.0
aa(lp426
F417.0
aF342.0
aa(lp427
F418.0
aF343.0
aa(lp428
F418.0
aF344.0
aa(lp429
F419.0
aF345.0
aa(lp430
F420.0
aF346.0
aa(lp431
F420.0
aF347.0
aa(lp432
F421.0
aF348.0
aa(lp433
F421.0
aF349.0
aa(lp434
F422.0
aF349.0
aa(lp435
F423.0
aF350.0
aa(lp436
F423.0
aF351.0
aa(lp437
F424.0
aF352.0
aa(lp438
F425.0
aF353.0
aa(lp439
F425.0
aF354.0
aa(lp440
F426.0
aF355.0
aa(lp441
F427.0
aF356.0
aa(lp442
F427.0
aF357.0
aa(lp443
F428.0
aF358.0
aa(lp444
F429.0
aF359.0
aa(lp445
F430.0
aF360.0
aa(lp446
F430.0
aF361.0
aa(lp447
F431.0
aF362.0
aa(lp448
F432.0
aF363.0
aa(lp449
F433.0
aF364.0
aa(lp450
F434.0
aF365.0
aa(lp451
F435.0
aF366.0
aa(lp452
F436.0
aF367.0
aa(lp453
F437.0
aF368.0
aa(lp454
F438.0
aF369.0
aa(lp455
F438.0
aF370.0
aa(lp456
F439.0
aF371.0
aa(lp457
F440.0
aF371.0
aa(lp458
F440.0
aF372.0
aa(lp459
F441.0
aF373.0
aa(lp460
F442.0
aF374.0
aa(lp461
F442.0
aF375.0
aa(lp462
F443.0
aF376.0
aa(lp463
F443.0
aF377.0
aa(lp464
F444.0
aF377.0
aa(lp465
F445.0
aF377.0
aa(lp466
F445.0
aF378.0
aa(lp467
F446.0
aF378.0
aa(lp468
F446.0
aF379.0
aa(lp469
F447.0
aF379.0
aa(lp470
F447.0
aF380.0
aa(lp471
F448.0
aF381.0
aa(lp472
F449.0
aF381.0
aa(lp473
F450.0
aF381.0
aa(lp474
F450.0
aF382.0
aa(lp475
F450.0
aF383.0
aa(lp476
F451.0
aF383.0
aa(lp477
F451.0
aF384.0
aa(lp478
F452.0
aF385.0
aa(lp479
F453.0
aF385.0
aa(lp480
F453.0
aF386.0
aa(lp481
F453.0
aF387.0
aa(lp482
F454.0
aF387.0
aa(lp483
F455.0
aF388.0
aa(lp484
F456.0
aF389.0
aa(lp485
F457.0
aF389.0
aa(lp486
F458.0
aF389.0
aa(lp487
F459.0
aF389.0
aa(lp488
F459.0
aF390.0
aasg132
I3
sg133
F0.5
sa(dp489
g25
I0
sg26
(lp490
(lp491
F383.0
aF284.0
aa(lp492
F384.0
aF284.0
aa(lp493
F385.0
aF285.0
aa(lp494
F386.0
aF285.0
aa(lp495
F387.0
aF285.0
aa(lp496
F388.0
aF285.0
aa(lp497
F389.0
aF286.0
aa(lp498
F390.0
aF286.0
aa(lp499
F391.0
aF286.0
aa(lp500
F392.0
aF286.0
aa(lp501
F393.0
aF286.0
aa(lp502
F394.0
aF286.0
aa(lp503
F395.0
aF286.0
aa(lp504
F396.0
aF286.0
aa(lp505
F397.0
aF286.0
aa(lp506
F398.0
aF286.0
aa(lp507
F399.0
aF286.0
aa(lp508
F400.0
aF286.0
aa(lp509
F401.0
aF286.0
aa(lp510
F402.0
aF286.5
aa(lp511
F403.0
aF287.0
aa(lp512
F404.0
aF287.0
aa(lp513
F405.0
aF287.0
aa(lp514
F406.0
aF287.0
aa(lp515
F407.0
aF287.0
aa(lp516
F408.0
aF287.0
aa(lp517
F409.0
aF287.0
aa(lp518
F410.0
aF287.0
aa(lp519
F411.0
aF287.0
aa(lp520
F412.0
aF287.0
aa(lp521
F413.0
aF287.0
aa(lp522
F414.0
aF287.0
aa(lp523
F415.0
aF287.0
aa(lp524
F416.0
aF287.0
aa(lp525
F417.0
aF287.0
aa(lp526
F418.0
aF287.0
aa(lp527
F419.0
aF287.5
aa(lp528
F420.0
aF288.0
aa(lp529
F421.0
aF288.0
aa(lp530
F422.0
aF288.0
aa(lp531
F423.0
aF288.0
aa(lp532
F424.0
aF288.0
aa(lp533
F425.0
aF288.0
aa(lp534
F426.0
aF288.0
aa(lp535
F427.0
aF288.0
aa(lp536
F428.0
aF288.0
aa(lp537
F429.0
aF288.0
aa(lp538
F430.0
aF288.0
aa(lp539
F431.0
aF288.0
aa(lp540
F432.0
aF288.0
aa(lp541
F433.0
aF288.0
aa(lp542
F433.0
aF289.0
aa(lp543
F434.0
aF289.0
aa(lp544
F435.0
aF289.0
aa(lp545
F436.0
aF289.0
aa(lp546
F437.0
aF289.0
aa(lp547
F438.0
aF289.0
aa(lp548
F439.0
aF289.0
aa(lp549
F440.0
aF289.0
aa(lp550
F441.0
aF289.0
aa(lp551
F442.0
aF289.0
aa(lp552
F443.0
aF290.0
aa(lp553
F444.0
aF290.0
aa(lp554
F445.0
aF290.0
aa(lp555
F446.0
aF290.0
aa(lp556
F447.0
aF290.0
aa(lp557
F448.0
aF290.0
aa(lp558
F449.0
aF290.0
aa(lp559
F450.0
aF290.0
aa(lp560
F451.0
aF290.0
aa(lp561
F452.0
aF291.0
aa(lp562
F453.0
aF291.0
aa(lp563
F454.0
aF291.0
aa(lp564
F455.0
aF291.0
aasg132
I6
sg133
F0.5
sasg5
I0
sg6
(lp565
(I0
I0
tp566
a(I0
I1
tp567
a(I0
I3
tp568
a(I0
I2
tp569
a(I0
I4
tp570
a(I0
I5
tp571
a(I0
I6
tp572
a(I0
I7
tp573
a(I0
I8
tp574
a(I0
I9
tp575
a(I0
I10
tp576
a(I0
I11
tp577
a(I0
I12
tp578
a(I0
I14
tp579
a(I0
I13
tp580
a(I0
I15
tp581
a(I0
I16
tp582
a(I0
I17
tp583
a(I0
I19
tp584
a(I0
I20
tp585
a(I0
I21
tp586
a(I0
I22
tp587
a(I0
I23
tp588
a(I0
I18
tp589
a(I1
I0
tp590
a(I1
I1
tp591
a(I1
I2
tp592
a(I1
I3
tp593
a(I1
I4
tp594
a(I1
I5
tp595
a(I1
I6
tp596
a(I1
I7
tp597
a(I1
I8
tp598
a(I1
I9
tp599
a(I1
I10
tp600
a(I1
I11
tp601
a(I1
I12
tp602
a(I1
I13
tp603
a(I1
I14
tp604
a(I1
I16
tp605
a(I1
I15
tp606
a(I1
I17
tp607
a(I1
I18
tp608
a(I1
I19
tp609
a(I1
I20
tp610
a(I1
I21
tp611
a(I1
I22
tp612
a(I1
I23
tp613
a(I2
I23
tp614
a(I2
I22
tp615
a(I2
I21
tp616
a(I2
I20
tp617
a(I2
I19
tp618
a(I2
I18
tp619
a(I2
I17
tp620
a(I2
I16
tp621
a(I2
I15
tp622
a(I2
I14
tp623
a(I2
I13
tp624
a(I2
I12
tp625
a(I2
I11
tp626
a(I2
I10
tp627
a(I2
I9
tp628
a(I2
I8
tp629
a(I2
I7
tp630
a(I2
I6
tp631
a(I2
I5
tp632
a(I2
I4
tp633
a(I2
I3
tp634
a(I2
I2
tp635
a(I2
I1
tp636
a(I2
I0
tp637
a(I3
I0
tp638
a(I3
I1
tp639
a(I3
I2
tp640
a(I3
I3
tp641
a(I3
I4
tp642
a(I3
I5
tp643
a(I3
I6
tp644
a(I3
I7
tp645
a(I3
I8
tp646
a(I3
I9
tp647
a(I3
I10
tp648
a(I3
I11
tp649
a(I3
I12
tp650
a(I3
I13
tp651
a(I3
I14
tp652
a(I3
I15
tp653
a(I3
I17
tp654
a(I3
I16
tp655
a(I3
I18
tp656
a(I3
I19
tp657
a(I3
I20
tp658
a(I3
I21
tp659
a(I3
I22
tp660
a(I3
I23
tp661
asg7
S'visual'
p662
sg9
S'sensor'
p663
sg11
g12
(I355
I236
I60
I96
tp664
Rp665
sba(i__main__
pickledNeuron
p666
(dp667
g3
(lp668
sg5
I3
sg6
I0
sg7
S'leftbackward'
p669
sg9
g10
sg11
g12
(I419
I375
I80
I52
tp670
Rp671
sba(i__main__
pickledNeuron
p672
(dp673
g3
(lp674
(dp675
g25
I1
sg26
(lp676
(lp677
F623.0
aF293.0
aa(lp678
F622.0
aF293.0
aa(lp679
F622.0
aF292.0
aa(lp680
F621.0
aF291.5
aa(lp681
F620.0
aF291.0
aa(lp682
F619.0
aF290.0
aa(lp683
F618.0
aF289.5
aa(lp684
F617.0
aF289.0
aa(lp685
F616.5
aF288.0
aa(lp686
F616.0
aF287.0
aa(lp687
F615.5
aF286.0
aa(lp688
F615.0
aF285.0
aa(lp689
F614.0
aF284.5
aa(lp690
F613.0
aF284.0
aa(lp691
F612.0
aF283.5
aa(lp692
F611.0
aF283.0
aa(lp693
F610.5
aF282.0
aa(lp694
F610.0
aF281.0
aa(lp695
F609.0
aF280.5
aa(lp696
F608.0
aF280.0
aa(lp697
F607.0
aF279.0
aa(lp698
F606.0
aF278.0
aa(lp699
F605.0
aF277.0
aa(lp700
F604.3333333333334
aF276.3333333333333
aa(lp701
F603.6666666666666
aF275.6666666666667
aa(lp702
F603.0
aF275.0
aa(lp703
F602.0
aF275.0
aa(lp704
F601.0
aF274.0
aa(lp705
F600.0
aF273.0
aa(lp706
F599.0
aF272.0
aa(lp707
F598.0
aF271.0
aa(lp708
F597.0
aF271.0
aa(lp709
F596.0
aF270.0
aa(lp710
F595.0
aF269.0
aa(lp711
F594.0
aF268.0
aa(lp712
F593.0
aF267.5
aa(lp713
F592.0
aF267.0
aa(lp714
F591.0
aF266.0
aa(lp715
F590.0
aF265.0
aa(lp716
F589.0
aF264.0
aa(lp717
F588.0
aF263.5
aa(lp718
F587.0
aF263.0
aa(lp719
F586.0
aF262.0
aa(lp720
F585.0
aF261.0
aa(lp721
F584.0
aF261.0
aa(lp722
F583.0
aF260.0
aa(lp723
F583.0
aF259.0
aa(lp724
F582.0
aF259.0
aa(lp725
F582.0
aF258.0
aa(lp726
F581.0
aF258.0
aa(lp727
F580.0
aF257.0
aa(lp728
F580.0
aF256.0
aa(lp729
F580.0
aF255.0
aa(lp730
F579.0
aF255.0
aa(lp731
F578.0
aF255.0
aa(lp732
F578.0
aF254.0
aa(lp733
F577.0
aF254.0
aa(lp734
F576.5
aF253.0
aa(lp735
F576.0
aF252.0
aa(lp736
F575.0
aF251.0
aa(lp737
F575.0
aF250.0
aa(lp738
F574.0
aF249.0
aa(lp739
F573.0
aF248.0
aa(lp740
F572.5
aF247.0
aa(lp741
F572.0
aF246.0
aa(lp742
F572.0
aF245.0
aa(lp743
F571.0
aF244.0
aa(lp744
F571.0
aF243.0
aa(lp745
F570.0
aF242.0
aa(lp746
F569.0
aF241.0
aa(lp747
F569.0
aF240.0
aa(lp748
F568.0
aF239.0
aa(lp749
F568.0
aF238.0
aa(lp750
F567.0
aF237.0
aa(lp751
F566.0
aF237.0
aa(lp752
F566.0
aF236.0
aa(lp753
F565.0
aF235.0
aa(lp754
F565.0
aF234.0
aa(lp755
F564.0
aF233.0
aa(lp756
F564.0
aF232.0
aa(lp757
F563.0
aF231.0
aa(lp758
F563.0
aF230.0
aa(lp759
F562.0
aF229.0
aa(lp760
F562.0
aF228.0
aa(lp761
F561.0
aF228.0
aa(lp762
F561.0
aF227.0
aa(lp763
F561.0
aF226.0
aa(lp764
F560.0
aF225.0
aa(lp765
F559.0
aF224.0
aa(lp766
F559.0
aF223.0
aa(lp767
F559.0
aF222.0
aa(lp768
F558.0
aF221.0
aa(lp769
F558.0
aF220.0
aa(lp770
F557.0
aF219.0
aa(lp771
F557.0
aF218.0
aa(lp772
F557.0
aF217.0
aa(lp773
F556.0
aF216.0
aa(lp774
F555.0
aF215.0
aa(lp775
F555.0
aF214.0
aa(lp776
F555.0
aF213.0
aa(lp777
F554.0
aF212.0
aa(lp778
F554.0
aF211.0
aa(lp779
F554.0
aF210.0
aa(lp780
F553.0
aF209.0
aa(lp781
F552.0
aF208.0
aa(lp782
F552.0
aF207.0
aa(lp783
F552.0
aF206.0
aa(lp784
F551.0
aF205.0
aa(lp785
F551.0
aF204.0
aa(lp786
F550.0
aF203.0
aa(lp787
F549.0
aF202.0
aa(lp788
F549.0
aF201.0
aa(lp789
F549.0
aF200.0
aa(lp790
F549.0
aF199.0
aa(lp791
F548.0
aF198.0
aa(lp792
F548.0
aF197.0
aa(lp793
F547.0
aF196.5
aa(lp794
F546.0
aF196.0
aa(lp795
F546.0
aF195.0
aa(lp796
F546.0
aF194.0
aa(lp797
F545.0
aF193.0
aa(lp798
F545.0
aF192.0
aa(lp799
F544.0
aF191.0
aa(lp800
F544.0
aF190.0
aa(lp801
F543.0
aF190.0
aasg132
I4
sg133
F0.5
sa(dp802
g25
I1
sg26
(lp803
(lp804
F622.0
aF292.0
aa(lp805
F621.0
aF292.0
aa(lp806
F620.0
aF293.0
aa(lp807
F619.0
aF293.0
aa(lp808
F618.0
aF293.5
aa(lp809
F617.0
aF294.0
aa(lp810
F616.0
aF294.0
aa(lp811
F615.3333333333334
aF294.6666666666667
aa(lp812
F614.6666666666666
aF295.3333333333333
aa(lp813
F614.0
aF296.0
aa(lp814
F613.0
aF297.0
aa(lp815
F612.0
aF298.0
aa(lp816
F611.0
aF299.0
aa(lp817
F610.0
aF299.0
aa(lp818
F609.0
aF299.0
aa(lp819
F608.0
aF300.0
aa(lp820
F607.0
aF300.5
aa(lp821
F606.0
aF301.0
aa(lp822
F605.0
aF302.0
aa(lp823
F605.0
aF303.0
aa(lp824
F604.3333333333334
aF303.6666666666667
aa(lp825
F603.6666666666666
aF304.3333333333333
aa(lp826
F603.0
aF305.0
aa(lp827
F602.0
aF305.5
aa(lp828
F601.0
aF306.0
aa(lp829
F601.0
aF307.0
aa(lp830
F600.5
aF308.0
aa(lp831
F600.0
aF309.0
aa(lp832
F599.0
aF310.0
aa(lp833
F598.5
aF311.0
aa(lp834
F598.0
aF312.0
aa(lp835
F597.0
aF313.0
aa(lp836
F596.0
aF314.0
aa(lp837
F595.3333333333334
aF314.6666666666667
aa(lp838
F594.6666666666666
aF315.3333333333333
aa(lp839
F594.0
aF316.0
aa(lp840
F594.0
aF317.0
aa(lp841
F594.0
aF318.0
aa(lp842
F593.0
aF319.0
aa(lp843
F592.0
aF320.0
aa(lp844
F592.0
aF321.0
aa(lp845
F592.0
aF322.0
aa(lp846
F591.0
aF323.0
aa(lp847
F590.0
aF324.0
aa(lp848
F589.0
aF325.0
aa(lp849
F589.0
aF326.0
aa(lp850
F588.0
aF327.0
aa(lp851
F587.5
aF328.0
aa(lp852
F587.0
aF329.0
aa(lp853
F586.0
aF329.0
aa(lp854
F586.0
aF330.0
aa(lp855
F586.0
aF331.0
aa(lp856
F585.0
aF332.0
aa(lp857
F584.0
aF333.0
aa(lp858
F584.0
aF334.0
aa(lp859
F583.0
aF335.0
aa(lp860
F583.0
aF336.0
aa(lp861
F582.0
aF337.0
aa(lp862
F581.0
aF338.0
aa(lp863
F581.0
aF339.0
aa(lp864
F581.0
aF340.0
aa(lp865
F580.5
aF341.0
aa(lp866
F580.0
aF342.0
aa(lp867
F579.0
aF343.0
aa(lp868
F578.0
aF344.0
aa(lp869
F578.0
aF345.0
aa(lp870
F578.0
aF346.0
aa(lp871
F577.0
aF346.0
aa(lp872
F577.0
aF347.0
aa(lp873
F577.0
aF348.0
aa(lp874
F576.0
aF349.0
aa(lp875
F576.0
aF350.0
aa(lp876
F576.0
aF351.0
aa(lp877
F575.0
aF352.0
aa(lp878
F574.0
aF353.0
aa(lp879
F574.0
aF354.0
aa(lp880
F573.0
aF355.0
aa(lp881
F573.0
aF356.0
aa(lp882
F572.0
aF357.0
aa(lp883
F572.0
aF358.0
aa(lp884
F572.0
aF359.0
aa(lp885
F571.0
aF359.0
aa(lp886
F571.0
aF360.0
aa(lp887
F571.0
aF361.0
aa(lp888
F571.0
aF362.0
aa(lp889
F570.0
aF363.0
aa(lp890
F569.0
aF364.0
aa(lp891
F568.0
aF364.0
aa(lp892
F568.0
aF365.0
aa(lp893
F568.0
aF366.0
aa(lp894
F567.0
aF367.0
aa(lp895
F566.0
aF367.0
aa(lp896
F566.0
aF368.0
aa(lp897
F566.0
aF369.0
aa(lp898
F565.0
aF370.0
aa(lp899
F565.0
aF371.0
aa(lp900
F564.0
aF372.0
aa(lp901
F563.0
aF373.0
aa(lp902
F562.0
aF374.0
aa(lp903
F562.0
aF375.0
aa(lp904
F562.0
aF376.0
aa(lp905
F561.0
aF376.0
aa(lp906
F561.0
aF377.0
aa(lp907
F560.0
aF378.0
aa(lp908
F560.0
aF379.0
aa(lp909
F559.0
aF379.0
aa(lp910
F559.0
aF380.0
aa(lp911
F559.0
aF381.0
aa(lp912
F559.0
aF382.0
aa(lp913
F558.0
aF383.0
aa(lp914
F557.0
aF384.0
aa(lp915
F556.0
aF385.0
aa(lp916
F556.0
aF386.0
aa(lp917
F555.0
aF387.0
aa(lp918
F555.0
aF388.0
aa(lp919
F554.0
aF388.0
aasg132
I5
sg133
F0.5
sa(dp920
g25
I1
sg26
(lp921
(lp922
F620.0
aF292.0
aa(lp923
F619.0
aF292.0
aa(lp924
F618.0
aF292.0
aa(lp925
F617.0
aF292.0
aa(lp926
F616.0
aF292.0
aa(lp927
F615.0
aF292.0
aa(lp928
F614.0
aF292.0
aa(lp929
F613.0
aF292.0
aa(lp930
F612.0
aF292.0
aa(lp931
F611.0
aF292.0
aa(lp932
F610.0
aF292.0
aa(lp933
F609.0
aF292.0
aa(lp934
F608.0
aF292.0
aa(lp935
F607.0
aF292.0
aa(lp936
F606.0
aF292.0
aa(lp937
F605.0
aF292.0
aa(lp938
F604.0
aF292.0
aa(lp939
F603.0
aF292.0
aa(lp940
F602.0
aF291.75
aa(lp941
F601.0
aF291.5
aa(lp942
F600.0
aF291.25
aa(lp943
F599.0
aF291.0
aa(lp944
F598.0
aF291.0
aa(lp945
F597.0
aF291.0
aa(lp946
F596.0
aF291.0
aa(lp947
F595.0
aF291.0
aa(lp948
F594.0
aF291.0
aa(lp949
F593.0
aF291.0
aa(lp950
F592.0
aF291.0
aa(lp951
F591.0
aF291.0
aa(lp952
F590.0
aF291.0
aa(lp953
F589.0
aF290.5
aa(lp954
F588.0
aF290.0
aa(lp955
F587.0
aF290.0
aa(lp956
F586.0
aF290.0
aa(lp957
F585.0
aF290.0
aa(lp958
F584.0
aF290.0
aa(lp959
F583.0
aF290.0
aa(lp960
F582.0
aF290.0
aa(lp961
F581.0
aF290.0
aa(lp962
F580.0
aF290.0
aa(lp963
F579.0
aF290.0
aa(lp964
F578.0
aF290.0
aa(lp965
F577.0
aF290.0
aa(lp966
F576.0
aF290.0
aa(lp967
F575.0
aF290.0
aa(lp968
F574.0
aF290.0
aa(lp969
F573.0
aF290.0
aa(lp970
F572.0
aF290.0
aa(lp971
F571.0
aF290.0
aa(lp972
F570.0
aF290.0
aa(lp973
F569.0
aF290.0
aa(lp974
F568.0
aF290.0
aa(lp975
F567.0
aF290.0
aa(lp976
F566.0
aF289.0
aa(lp977
F565.0
aF289.0
aa(lp978
F564.0
aF289.0
aa(lp979
F563.0
aF289.0
aa(lp980
F562.0
aF289.0
aa(lp981
F561.0
aF289.0
aa(lp982
F560.0
aF289.0
aa(lp983
F559.0
aF289.0
aa(lp984
F558.0
aF289.0
aa(lp985
F557.0
aF289.0
aa(lp986
F557.0
aF288.0
aa(lp987
F556.0
aF288.0
aa(lp988
F555.0
aF288.0
aa(lp989
F554.0
aF288.0
aa(lp990
F553.0
aF288.0
aa(lp991
F552.0
aF288.5
aa(lp992
F551.0
aF289.0
aa(lp993
F550.0
aF289.0
aa(lp994
F549.0
aF289.0
aa(lp995
F548.0
aF289.0
aa(lp996
F547.0
aF289.0
aa(lp997
F546.0
aF289.0
aa(lp998
F545.0
aF289.0
aa(lp999
F544.0
aF289.0
aa(lp1000
F543.0
aF289.0
aa(lp1001
F542.0
aF290.0
aa(lp1002
F541.0
aF290.0
aa(lp1003
F540.0
aF290.0
aa(lp1004
F539.0
aF290.0
aa(lp1005
F538.0
aF290.0
aa(lp1006
F538.0
aF291.0
aa(lp1007
F537.0
aF291.0
aasg132
I7
sg133
F0.5
sasg5
I1
sg6
(lp1008
(I31
I0
tp1009
a(I31
I1
tp1010
a(I31
I2
tp1011
a(I31
I3
tp1012
a(I31
I5
tp1013
a(I31
I4
tp1014
a(I30
I0
tp1015
a(I30
I1
tp1016
a(I30
I2
tp1017
a(I30
I3
tp1018
a(I30
I4
tp1019
a(I30
I5
tp1020
a(I29
I5
tp1021
a(I29
I4
tp1022
a(I29
I3
tp1023
a(I29
I2
tp1024
a(I29
I1
tp1025
a(I29
I0
tp1026
a(I28
I0
tp1027
a(I28
I1
tp1028
a(I28
I2
tp1029
a(I28
I3
tp1030
a(I28
I4
tp1031
a(I28
I5
tp1032
a(I28
I6
tp1033
a(I28
I7
tp1034
a(I28
I8
tp1035
a(I28
I9
tp1036
a(I28
I10
tp1037
a(I28
I11
tp1038
a(I28
I12
tp1039
a(I28
I13
tp1040
a(I28
I14
tp1041
a(I28
I15
tp1042
a(I28
I16
tp1043
a(I28
I17
tp1044
a(I28
I18
tp1045
a(I28
I19
tp1046
a(I28
I20
tp1047
a(I28
I21
tp1048
a(I28
I22
tp1049
a(I28
I23
tp1050
a(I29
I23
tp1051
a(I30
I23
tp1052
a(I31
I23
tp1053
a(I31
I22
tp1054
a(I30
I22
tp1055
a(I29
I22
tp1056
a(I29
I21
tp1057
a(I30
I21
tp1058
a(I31
I21
tp1059
a(I31
I20
tp1060
a(I30
I20
tp1061
a(I29
I20
tp1062
a(I29
I19
tp1063
a(I30
I19
tp1064
a(I31
I19
tp1065
a(I31
I18
tp1066
a(I30
I18
tp1067
a(I29
I18
tp1068
a(I29
I17
tp1069
a(I30
I17
tp1070
a(I31
I17
tp1071
a(I31
I16
tp1072
a(I30
I16
tp1073
a(I29
I16
tp1074
a(I29
I15
tp1075
a(I30
I15
tp1076
a(I31
I15
tp1077
a(I31
I14
tp1078
a(I30
I14
tp1079
a(I29
I14
tp1080
a(I29
I13
tp1081
a(I30
I13
tp1082
a(I31
I13
tp1083
a(I31
I12
tp1084
a(I30
I12
tp1085
a(I29
I12
tp1086
a(I29
I11
tp1087
a(I30
I11
tp1088
a(I31
I11
tp1089
a(I31
I10
tp1090
a(I30
I10
tp1091
a(I29
I10
tp1092
a(I29
I9
tp1093
a(I30
I9
tp1094
a(I31
I9
tp1095
a(I31
I8
tp1096
a(I30
I8
tp1097
a(I29
I8
tp1098
a(I29
I7
tp1099
a(I30
I7
tp1100
a(I31
I7
tp1101
a(I31
I6
tp1102
a(I30
I6
tp1103
a(I29
I6
tp1104
asg7
g662
sg9
g663
sg11
g12
(I598
I244
I60
I96
tp1105
Rp1106
sba(i__main__
pickledNeuron
p1107
(dp1108
g3
(lp1109
(dp1110
g25
I6
sg26
(lp1111
(lp1112
F455.0
aF287.0
aa(lp1113
F456.0
aF286.0
aa(lp1114
F457.0
aF286.0
aa(lp1115
F458.0
aF286.0
aa(lp1116
F459.0
aF285.0
aa(lp1117
F460.0
aF284.0
aa(lp1118
F461.0
aF284.0
aa(lp1119
F462.0
aF283.0
aa(lp1120
F463.0
aF283.0
aa(lp1121
F464.0
aF282.0
aa(lp1122
F464.0
aF281.0
aa(lp1123
F465.0
aF281.0
aa(lp1124
F466.0
aF281.0
aa(lp1125
F466.0
aF280.0
aa(lp1126
F467.0
aF280.0
aa(lp1127
F468.0
aF279.0
aa(lp1128
F469.0
aF279.0
aa(lp1129
F469.0
aF278.0
aa(lp1130
F470.0
aF277.0
aa(lp1131
F471.0
aF276.5
aa(lp1132
F472.0
aF276.0
aa(lp1133
F473.0
aF275.0
aa(lp1134
F474.0
aF274.0
aa(lp1135
F475.0
aF273.0
aa(lp1136
F476.0
aF272.0
aa(lp1137
F477.0
aF272.0
aa(lp1138
F478.0
aF271.0
aa(lp1139
F478.0
aF270.0
aa(lp1140
F479.0
aF269.5
aa(lp1141
F480.0
aF269.0
aa(lp1142
F481.0
aF268.0
aa(lp1143
F482.0
aF268.0
aa(lp1144
F482.5
aF267.0
aa(lp1145
F483.0
aF266.0
aa(lp1146
F484.0
aF265.0
aa(lp1147
F485.0
aF264.0
aa(lp1148
F486.0
aF264.0
aa(lp1149
F487.0
aF263.0
aa(lp1150
F488.0
aF262.0
aa(lp1151
F489.0
aF261.0
aa(lp1152
F490.0
aF260.0
aa(lp1153
F491.0
aF259.0
aa(lp1154
F492.0
aF258.0
aa(lp1155
F492.5
aF257.0
aa(lp1156
F493.0
aF256.0
aa(lp1157
F494.0
aF255.5
aa(lp1158
F495.0
aF255.0
aa(lp1159
F496.0
aF254.0
aa(lp1160
F496.5
aF253.0
aa(lp1161
F497.0
aF252.0
aa(lp1162
F498.0
aF251.0
aa(lp1163
F499.0
aF250.0
aa(lp1164
F500.0
aF249.0
aa(lp1165
F501.0
aF248.0
aa(lp1166
F502.0
aF247.0
aa(lp1167
F503.0
aF246.0
aa(lp1168
F504.0
aF246.0
aa(lp1169
F504.0
aF245.0
aa(lp1170
F505.0
aF244.0
aa(lp1171
F506.0
aF243.0
aa(lp1172
F507.0
aF242.0
aa(lp1173
F508.0
aF241.0
aa(lp1174
F509.0
aF240.0
aa(lp1175
F510.0
aF239.0
aa(lp1176
F511.0
aF238.5
aa(lp1177
F512.0
aF238.0
aa(lp1178
F512.0
aF237.0
aa(lp1179
F512.0
aF236.0
aa(lp1180
F512.0
aF235.0
aa(lp1181
F513.0
aF234.5
aa(lp1182
F514.0
aF234.0
aa(lp1183
F514.0
aF233.0
aa(lp1184
F514.0
aF232.0
aa(lp1185
F515.0
aF231.0
aa(lp1186
F515.0
aF230.0
aa(lp1187
F516.0
aF229.0
aa(lp1188
F517.0
aF228.0
aa(lp1189
F518.0
aF227.0
aa(lp1190
F518.0
aF226.0
aa(lp1191
F519.0
aF225.0
aa(lp1192
F519.0
aF224.0
aa(lp1193
F520.0
aF223.0
aa(lp1194
F521.0
aF222.0
aa(lp1195
F521.0
aF221.0
aa(lp1196
F522.0
aF220.0
aa(lp1197
F523.0
aF219.0
aa(lp1198
F523.0
aF218.0
aa(lp1199
F523.5
aF217.0
aa(lp1200
F524.0
aF216.0
aa(lp1201
F525.0
aF216.0
aa(lp1202
F525.0
aF215.0
aa(lp1203
F525.0
aF214.0
aa(lp1204
F526.0
aF213.0
aa(lp1205
F526.0
aF212.0
aa(lp1206
F527.0
aF212.0
aa(lp1207
F528.0
aF211.0
aa(lp1208
F529.0
aF210.0
aa(lp1209
F529.0
aF209.0
aa(lp1210
F530.0
aF208.0
aa(lp1211
F531.0
aF207.0
aa(lp1212
F532.0
aF206.0
aa(lp1213
F532.0
aF205.0
aa(lp1214
F533.0
aF204.0
aa(lp1215
F534.0
aF203.0
aa(lp1216
F535.0
aF202.0
aa(lp1217
F535.0
aF201.0
aa(lp1218
F536.0
aF201.0
aa(lp1219
F536.0
aF200.0
aa(lp1220
F537.0
aF200.0
aa(lp1221
F537.0
aF199.0
aa(lp1222
F538.0
aF199.0
aa(lp1223
F539.0
aF198.0
aa(lp1224
F540.0
aF198.0
aa(lp1225
F540.0
aF197.0
aa(lp1226
F541.0
aF196.0
aasg132
I4
sg133
F0.5
sa(dp1227
g25
I6
sg26
(lp1228
(lp1229
F462.0
aF293.0
aa(lp1230
F463.0
aF293.0
aa(lp1231
F464.0
aF294.0
aa(lp1232
F465.0
aF295.0
aa(lp1233
F466.0
aF295.5
aa(lp1234
F467.0
aF296.0
aa(lp1235
F468.0
aF297.0
aa(lp1236
F468.6666666666667
aF297.6666666666667
aa(lp1237
F469.3333333333333
aF298.3333333333333
aa(lp1238
F470.0
aF299.0
aa(lp1239
F471.0
aF299.5
aa(lp1240
F472.0
aF300.0
aa(lp1241
F473.0
aF301.0
aa(lp1242
F473.5
aF302.0
aa(lp1243
F474.0
aF303.0
aa(lp1244
F475.0
aF304.0
aa(lp1245
F476.0
aF304.5
aa(lp1246
F477.0
aF305.0
aa(lp1247
F478.0
aF306.0
aa(lp1248
F479.0
aF307.0
aa(lp1249
F480.0
aF307.0
aa(lp1250
F481.0
aF308.0
aa(lp1251
F482.0
aF309.0
aa(lp1252
F483.0
aF310.0
aa(lp1253
F484.0
aF311.0
aa(lp1254
F485.0
aF312.0
aa(lp1255
F486.0
aF313.0
aa(lp1256
F487.0
aF314.0
aa(lp1257
F488.0
aF314.5
aa(lp1258
F489.0
aF315.0
aa(lp1259
F490.0
aF316.0
aa(lp1260
F491.0
aF317.0
aa(lp1261
F492.0
aF318.0
aa(lp1262
F493.0
aF318.0
aa(lp1263
F493.0
aF319.0
aa(lp1264
F494.0
aF319.5
aa(lp1265
F495.0
aF320.0
aa(lp1266
F495.0
aF321.0
aa(lp1267
F496.0
aF322.0
aa(lp1268
F497.0
aF323.0
aa(lp1269
F498.0
aF323.0
aa(lp1270
F499.0
aF324.0
aa(lp1271
F500.0
aF325.0
aa(lp1272
F500.0
aF326.0
aa(lp1273
F501.0
aF327.0
aa(lp1274
F502.0
aF328.0
aa(lp1275
F503.0
aF329.0
aa(lp1276
F503.5
aF330.0
aa(lp1277
F504.0
aF331.0
aa(lp1278
F505.0
aF332.0
aa(lp1279
F506.0
aF333.0
aa(lp1280
F507.0
aF334.0
aa(lp1281
F507.0
aF335.0
aa(lp1282
F507.6666666666667
aF335.6666666666667
aa(lp1283
F508.3333333333333
aF336.3333333333333
aa(lp1284
F509.0
aF337.0
aa(lp1285
F510.0
aF338.0
aa(lp1286
F511.0
aF338.0
aa(lp1287
F511.0
aF339.0
aa(lp1288
F512.0
aF340.0
aa(lp1289
F513.0
aF341.0
aa(lp1290
F513.0
aF342.0
aa(lp1291
F514.0
aF343.0
aa(lp1292
F515.0
aF344.0
aa(lp1293
F515.0
aF345.0
aa(lp1294
F515.0
aF346.0
aa(lp1295
F516.0
aF346.5
aa(lp1296
F517.0
aF347.0
aa(lp1297
F517.0
aF348.0
aa(lp1298
F518.0
aF349.0
aa(lp1299
F518.5
aF350.0
aa(lp1300
F519.0
aF351.0
aa(lp1301
F520.0
aF352.0
aa(lp1302
F520.0
aF353.0
aa(lp1303
F520.0
aF354.0
aa(lp1304
F521.0
aF354.0
aa(lp1305
F522.0
aF355.0
aa(lp1306
F523.0
aF355.5
aa(lp1307
F524.0
aF356.0
aa(lp1308
F524.0
aF357.0
aa(lp1309
F525.0
aF358.0
aa(lp1310
F525.0
aF359.0
aa(lp1311
F526.0
aF360.0
aa(lp1312
F526.0
aF361.0
aa(lp1313
F527.0
aF362.0
aa(lp1314
F527.0
aF363.0
aa(lp1315
F528.0
aF363.0
aa(lp1316
F528.0
aF364.0
aa(lp1317
F528.0
aF365.0
aa(lp1318
F529.0
aF365.0
aa(lp1319
F529.0
aF366.0
aa(lp1320
F530.0
aF367.0
aa(lp1321
F531.0
aF368.0
aa(lp1322
F531.0
aF369.0
aa(lp1323
F532.0
aF370.0
aa(lp1324
F532.0
aF371.0
aa(lp1325
F533.0
aF372.0
aa(lp1326
F534.0
aF373.0
aa(lp1327
F535.0
aF374.0
aa(lp1328
F535.0
aF375.0
aa(lp1329
F536.0
aF375.0
aa(lp1330
F536.0
aF376.0
aa(lp1331
F537.0
aF377.0
aa(lp1332
F537.0
aF378.0
aa(lp1333
F537.0
aF379.0
aa(lp1334
F538.0
aF379.0
aa(lp1335
F538.0
aF380.0
aa(lp1336
F539.0
aF381.0
aa(lp1337
F540.0
aF382.0
aa(lp1338
F540.0
aF383.0
aa(lp1339
F541.0
aF384.0
aa(lp1340
F542.0
aF385.0
aa(lp1341
F543.0
aF386.0
aa(lp1342
F544.0
aF387.0
aa(lp1343
F544.0
aF388.0
aa(lp1344
F545.0
aF388.0
aa(lp1345
F546.0
aF389.0
aa(lp1346
F547.0
aF389.0
aa(lp1347
F548.0
aF389.0
aasg132
I5
sg133
F0.5
sasg5
I6
sg6
I0
sg7
g250
sg9
g251
sg11
g12
(I426
I254
I73
I76
tp1348
Rp1349
sba(i__main__
pickledNeuron
p1350
(dp1351
g3
(lp1352
sg5
I4
sg6
I0
sg7
S'rightbackward'
p1353
sg9
g10
sg11
g12
(I516
I172
I80
I51
tp1354
Rp1355
sba.