(lp0
(i__main__
pickledNeuron
p1
(dp2
S'nid'
p3
I1
sS'axons'
p4
(lp5
sS'super_type'
p6
S'motor'
p7
sS'tp'
p8
S'rightforward'
p9
sS'rect'
p10
cpygame
__rect_constructor
p11
(I430
I406
I80
I51
tp12
Rp13
sba(i__main__
pickledNeuron
p14
(dp15
g3
I3
sg4
(lp16
sg6
g7
sg8
S'rightbackward'
p17
sg10
g11
(I419
I586
I80
I51
tp18
Rp19
sba(i__main__
pickledNeuron
p20
(dp21
g3
I4
sg4
(lp22
sg6
g7
sg8
S'leftbackward'
p23
sg10
g11
(I303
I578
I80
I52
tp24
Rp25
sba(i__main__
pickledNeuron
p26
(dp27
g3
I0
sg4
(lp28
(dp29
S'start'
p30
I0
sS'points'
p31
(lp32
(lp33
F388.0
aF351.0
aa(lp34
F388.0
aF352.0
aa(lp35
F388.0
aF353.0
aa(lp36
F388.0
aF354.0
aa(lp37
F388.0
aF355.0
aa(lp38
F387.25
aF355.5
aa(lp39
F386.5
aF356.0
aa(lp40
F385.75
aF356.5
aa(lp41
F385.0
aF357.0
aa(lp42
F384.5
aF357.8333333333333
aa(lp43
F384.0
aF358.6666666666667
aa(lp44
F383.5
aF359.5
aa(lp45
F383.0
aF360.3333333333333
aa(lp46
F382.5
aF361.1666666666667
aa(lp47
F382.0
aF362.0
aa(lp48
F381.4
aF362.8
aa(lp49
F380.8
aF363.6
aa(lp50
F380.2
aF364.4
aa(lp51
F379.6
aF365.2
aa(lp52
F379.0
aF366.0
aa(lp53
F378.42857142857144
aF366.85714285714283
aa(lp54
F377.85714285714283
aF367.7142857142857
aa(lp55
F377.2857142857143
aF368.57142857142856
aa(lp56
F376.7142857142857
aF369.42857142857144
aa(lp57
F376.14285714285717
aF370.2857142857143
aa(lp58
F375.57142857142856
aF371.14285714285717
aa(lp59
F375.0
aF372.0
aa(lp60
F374.25
aF372.75
aa(lp61
F373.5
aF373.5
aa(lp62
F372.75
aF374.25
aa(lp63
F372.0
aF375.0
aa(lp64
F371.3333333333333
aF375.6666666666667
aa(lp65
F370.6666666666667
aF376.3333333333333
aa(lp66
F370.0
aF377.0
aa(lp67
F369.0
aF377.3333333333333
aa(lp68
F368.0
aF377.6666666666667
aa(lp69
F367.0
aF378.0
aa(lp70
F366.4
aF378.8
aa(lp71
F365.8
aF379.6
aa(lp72
F365.2
aF380.4
aa(lp73
F364.6
aF381.2
aa(lp74
F364.0
aF382.0
aa(lp75
F363.3333333333333
aF382.6666666666667
aa(lp76
F362.6666666666667
aF383.3333333333333
aa(lp77
F362.0
aF384.0
aa(lp78
F361.3333333333333
aF384.6666666666667
aa(lp79
F360.6666666666667
aF385.3333333333333
aa(lp80
F360.0
aF386.0
aa(lp81
F359.5
aF386.75
aa(lp82
F359.0
aF387.5
aa(lp83
F358.5
aF388.25
aa(lp84
F358.0
aF389.0
aa(lp85
F357.5
aF390.0
aa(lp86
F357.0
aF391.0
aa(lp87
F356.5
aF391.75
aa(lp88
F356.0
aF392.5
aa(lp89
F355.5
aF393.25
aa(lp90
F355.0
aF394.0
aa(lp91
F354.0
aF395.0
aa(lp92
F353.75
aF396.0
aa(lp93
F353.5
aF397.0
aa(lp94
F353.25
aF398.0
aa(lp95
F353.0
aF399.0
aa(lp96
F352.25
aF399.5
aa(lp97
F351.5
aF400.0
aa(lp98
F350.75
aF400.5
aa(lp99
F350.0
aF401.0
aa(lp100
F350.0
aF402.0
aa(lp101
F349.0
aF403.0
aa(lp102
F348.0
aF404.0
aa(lp103
F347.0
aF405.0
aa(lp104
F347.0
aF406.0
aa(lp105
F347.0
aF407.0
aa(lp106
F346.5
aF407.75
aa(lp107
F346.0
aF408.5
aa(lp108
F345.5
aF409.25
aa(lp109
F345.0
aF410.0
aa(lp110
F344.0
aF411.0
aa(lp111
F344.0
aF412.0
aa(lp112
F344.0
aF413.0
aa(lp113
F344.0
aF414.0
aa(lp114
F343.5
aF415.0
aa(lp115
F343.0
aF416.0
aasS'end'
p116
I2
sS'weight'
p117
F0.1
sa(dp118
g30
I0
sg31
(lp119
(lp120
F389.0
aF344.0
aa(lp121
F390.0
aF345.0
aa(lp122
F391.0
aF346.0
aa(lp123
F392.0
aF347.0
aa(lp124
F392.75
aF347.75
aa(lp125
F393.5
aF348.5
aa(lp126
F394.25
aF349.25
aa(lp127
F395.0
aF350.0
aa(lp128
F395.6666666666667
aF350.6666666666667
aa(lp129
F396.3333333333333
aF351.3333333333333
aa(lp130
F397.0
aF352.0
aa(lp131
F397.6666666666667
aF352.6666666666667
aa(lp132
F398.3333333333333
aF353.3333333333333
aa(lp133
F399.0
aF354.0
aa(lp134
F399.75
aF354.5
aa(lp135
F400.5
aF355.0
aa(lp136
F401.25
aF355.5
aa(lp137
F402.0
aF356.0
aa(lp138
F402.6666666666667
aF356.6666666666667
aa(lp139
F403.3333333333333
aF357.3333333333333
aa(lp140
F404.0
aF358.0
aa(lp141
F404.6
aF358.8
aa(lp142
F405.2
aF359.6
aa(lp143
F405.8
aF360.4
aa(lp144
F406.4
aF361.2
aa(lp145
F407.0
aF362.0
aa(lp146
F407.75
aF362.75
aa(lp147
F408.5
aF363.5
aa(lp148
F409.25
aF364.25
aa(lp149
F410.0
aF365.0
aa(lp150
F410.6666666666667
aF365.6666666666667
aa(lp151
F411.3333333333333
aF366.3333333333333
aa(lp152
F412.0
aF367.0
aa(lp153
F413.0
aF368.0
aa(lp154
F413.0
aF369.0
aa(lp155
F413.0
aF370.0
aa(lp156
F413.0
aF371.0
aa(lp157
F413.5
aF371.75
aa(lp158
F414.0
aF372.5
aa(lp159
F414.5
aF373.25
aa(lp160
F415.0
aF374.0
aa(lp161
F415.5
aF374.75
aa(lp162
F416.0
aF375.5
aa(lp163
F416.5
aF376.25
aa(lp164
F417.0
aF377.0
aa(lp165
F417.75
aF377.75
aa(lp166
F418.5
aF378.5
aa(lp167
F419.25
aF379.25
aa(lp168
F420.0
aF380.0
aa(lp169
F420.5
aF381.0
aa(lp170
F421.0
aF382.0
aa(lp171
F422.0
aF383.0
aa(lp172
F423.0
aF384.0
aa(lp173
F423.0
aF385.0
aa(lp174
F424.0
aF386.0
aa(lp175
F425.0
aF387.0
aa(lp176
F425.5
aF388.0
aa(lp177
F426.0
aF389.0
aa(lp178
F426.0
aF390.0
aa(lp179
F426.0
aF391.0
aa(lp180
F427.0
aF392.0
aa(lp181
F427.6666666666667
aF392.6666666666667
aa(lp182
F428.3333333333333
aF393.3333333333333
aa(lp183
F429.0
aF394.0
aa(lp184
F429.25
aF395.0
aa(lp185
F429.5
aF396.0
aa(lp186
F429.75
aF397.0
aa(lp187
F430.0
aF398.0
aa(lp188
F431.0
aF399.0
aa(lp189
F432.0
aF400.0
aa(lp190
F432.6666666666667
aF400.6666666666667
aa(lp191
F433.3333333333333
aF401.3333333333333
aa(lp192
F434.0
aF402.0
aa(lp193
F434.6666666666667
aF402.6666666666667
aa(lp194
F435.3333333333333
aF403.3333333333333
aa(lp195
F436.0
aF404.0
aa(lp196
F437.0
aF404.5
aa(lp197
F438.0
aF405.0
aa(lp198
F438.5
aF405.75
aa(lp199
F439.0
aF406.5
aa(lp200
F439.5
aF407.25
aa(lp201
F440.0
aF408.0
aa(lp202
F440.6666666666667
aF408.6666666666667
aa(lp203
F441.3333333333333
aF409.3333333333333
aa(lp204
F442.0
aF410.0
aa(lp205
F442.75
aF410.5
aa(lp206
F443.5
aF411.0
aa(lp207
F444.25
aF411.5
aa(lp208
F445.0
aF412.0
aa(lp209
F446.0
aF413.0
aa(lp210
F446.75
aF413.75
aa(lp211
F447.5
aF414.5
aa(lp212
F448.25
aF415.25
aa(lp213
F449.0
aF416.0
aa(lp214
F450.0
aF416.5
aa(lp215
F451.0
aF417.0
aa(lp216
F452.0
aF417.5
aa(lp217
F453.0
aF418.0
aa(lp218
F453.5
aF419.0
aa(lp219
F454.0
aF420.0
aa(lp220
F455.0
aF421.0
aa(lp221
F455.4
aF422.0
aa(lp222
F455.8
aF423.0
aa(lp223
F456.2
aF424.0
aa(lp224
F456.6
aF425.0
aa(lp225
F457.0
aF426.0
aasg116
I1
sg117
F0.1
sa(dp226
g30
I0
sg31
(lp227
(lp228
F391.0
aF347.0
aa(lp229
F392.0
aF347.0
aa(lp230
F392.0
aF348.0
aa(lp231
F392.0
aF349.0
aa(lp232
F392.0
aF350.0
aa(lp233
F392.0
aF351.0
aa(lp234
F392.0
aF352.0
aa(lp235
F392.5
aF353.0
aa(lp236
F393.0
aF354.0
aa(lp237
F393.0
aF355.0
aa(lp238
F393.0
aF356.0
aa(lp239
F393.0
aF357.0
aa(lp240
F393.0
aF358.0
aa(lp241
F393.0
aF359.0
aa(lp242
F393.0
aF360.0
aa(lp243
F393.0
aF361.0
aa(lp244
F393.0
aF362.0
aa(lp245
F393.0
aF363.0
aa(lp246
F393.0
aF364.0
aa(lp247
F393.0
aF365.0
aa(lp248
F393.0
aF366.0
aa(lp249
F393.0
aF367.0
aa(lp250
F393.0
aF368.0
aa(lp251
F393.5
aF369.0
aa(lp252
F394.0
aF370.0
aa(lp253
F394.0
aF371.0
aa(lp254
F394.0
aF372.0
aa(lp255
F394.0
aF373.0
aa(lp256
F394.0
aF374.0
aa(lp257
F394.0
aF375.0
aa(lp258
F394.0
aF376.0
aa(lp259
F394.0
aF377.0
aa(lp260
F394.0
aF378.0
aa(lp261
F394.0
aF379.0
aa(lp262
F394.0
aF380.0
aa(lp263
F394.0
aF381.0
aa(lp264
F394.0
aF382.0
aa(lp265
F394.0
aF383.0
aa(lp266
F394.0
aF384.0
aa(lp267
F395.0
aF385.0
aa(lp268
F395.3333333333333
aF386.0
aa(lp269
F395.6666666666667
aF387.0
aa(lp270
F396.0
aF388.0
aa(lp271
F396.0
aF389.0
aa(lp272
F396.0
aF390.0
aa(lp273
F396.0
aF391.0
aa(lp274
F396.0
aF392.0
aa(lp275
F396.0
aF393.0
aa(lp276
F396.0
aF394.0
aa(lp277
F396.0
aF395.0
aa(lp278
F396.0
aF396.0
aa(lp279
F396.0
aF397.0
aa(lp280
F396.0
aF398.0
aa(lp281
F396.0
aF399.0
aa(lp282
F396.0
aF400.0
aa(lp283
F396.0
aF401.0
aa(lp284
F396.0
aF402.0
aa(lp285
F396.0
aF403.0
aa(lp286
F396.0
aF404.0
aa(lp287
F396.0
aF405.0
aa(lp288
F396.0
aF406.0
aa(lp289
F396.0
aF407.0
aa(lp290
F396.0
aF408.0
aa(lp291
F396.0
aF409.0
aa(lp292
F396.0
aF410.0
aa(lp293
F396.0
aF411.0
aa(lp294
F396.0
aF412.0
aa(lp295
F396.0
aF413.0
aa(lp296
F396.0
aF414.0
aa(lp297
F396.0
aF415.0
aa(lp298
F396.0
aF416.0
aa(lp299
F396.0
aF417.0
aa(lp300
F396.0
aF418.0
aa(lp301
F396.0
aF419.0
aa(lp302
F396.0
aF420.0
aa(lp303
F396.0
aF421.0
aa(lp304
F396.0
aF422.0
aa(lp305
F395.75
aF423.0
aa(lp306
F395.5
aF424.0
aa(lp307
F395.25
aF425.0
aa(lp308
F395.0
aF426.0
aa(lp309
F395.0
aF427.0
aa(lp310
F395.0
aF428.0
aa(lp311
F395.0
aF429.0
aa(lp312
F395.0
aF430.0
aa(lp313
F395.0
aF431.0
aa(lp314
F395.0
aF432.0
aa(lp315
F395.0
aF433.0
aa(lp316
F395.0
aF434.0
aa(lp317
F395.0
aF435.0
aa(lp318
F395.0
aF436.0
aa(lp319
F395.0
aF437.0
aa(lp320
F395.0
aF438.0
aa(lp321
F395.0
aF439.0
aa(lp322
F395.0
aF440.0
aa(lp323
F395.0
aF441.0
aa(lp324
F395.0
aF442.0
aa(lp325
F395.0
aF443.0
aa(lp326
F395.0
aF444.0
aa(lp327
F395.0
aF445.0
aa(lp328
F395.0
aF446.0
aa(lp329
F395.0
aF447.0
aa(lp330
F395.0
aF448.0
aa(lp331
F395.0
aF449.0
aa(lp332
F395.0
aF450.0
aa(lp333
F395.0
aF451.0
aa(lp334
F395.0
aF452.0
aa(lp335
F395.0
aF453.0
aa(lp336
F395.0
aF454.0
aa(lp337
F395.0
aF455.0
aa(lp338
F395.0
aF456.0
aa(lp339
F395.0
aF457.0
aa(lp340
F395.0
aF458.0
aa(lp341
F395.0
aF459.0
aa(lp342
F395.0
aF460.0
aa(lp343
F395.0
aF461.0
aa(lp344
F395.0
aF462.0
aa(lp345
F395.0
aF463.0
aa(lp346
F395.0
aF464.0
aa(lp347
F395.0
aF465.0
aa(lp348
F395.0
aF466.0
aa(lp349
F395.0
aF467.0
aa(lp350
F395.0
aF468.0
aa(lp351
F395.0
aF469.0
aa(lp352
F395.0
aF470.0
aa(lp353
F395.0
aF471.0
aa(lp354
F395.0
aF472.0
aa(lp355
F395.0
aF473.0
aa(lp356
F395.0
aF474.0
aa(lp357
F395.0
aF475.0
aa(lp358
F395.0
aF476.0
aa(lp359
F395.0
aF477.0
aa(lp360
F395.0
aF478.0
aa(lp361
F395.0
aF479.0
aa(lp362
F395.0
aF480.0
aa(lp363
F395.0
aF481.0
aa(lp364
F395.0
aF482.0
aa(lp365
F395.0
aF483.0
aa(lp366
F395.0
aF484.0
aa(lp367
F395.0
aF485.0
aa(lp368
F395.0
aF486.0
aa(lp369
F395.0
aF487.0
aa(lp370
F395.0
aF488.0
aa(lp371
F395.0
aF489.0
aa(lp372
F395.0
aF490.0
aa(lp373
F395.0
aF491.0
aa(lp374
F395.0
aF492.0
aa(lp375
F395.0
aF493.0
aa(lp376
F395.0
aF494.0
aa(lp377
F394.75
aF495.0
aa(lp378
F394.5
aF496.0
aa(lp379
F394.25
aF497.0
aa(lp380
F394.0
aF498.0
aa(lp381
F394.0
aF499.0
aa(lp382
F394.0
aF500.0
aa(lp383
F394.0
aF501.0
aa(lp384
F394.0
aF502.0
aa(lp385
F393.2
aF502.6
aa(lp386
F392.4
aF503.2
aa(lp387
F391.6
aF503.8
aa(lp388
F390.8
aF504.4
aa(lp389
F390.0
aF505.0
aa(lp390
F390.0
aF506.0
aa(lp391
F390.0
aF507.0
aa(lp392
F390.0
aF508.0
aa(lp393
F389.25
aF508.5
aa(lp394
F388.5
aF509.0
aa(lp395
F387.75
aF509.5
aa(lp396
F387.0
aF510.0
aa(lp397
F386.6666666666667
aF511.0
aa(lp398
F386.3333333333333
aF512.0
aa(lp399
F386.0
aF513.0
aa(lp400
F385.5
aF514.0
aa(lp401
F385.0
aF515.0
aa(lp402
F384.5
aF516.0
aa(lp403
F384.0
aF517.0
aa(lp404
F384.0
aF518.0
aa(lp405
F383.0
aF519.0
aa(lp406
F383.0
aF520.0
aa(lp407
F383.0
aF521.0
aa(lp408
F383.0
aF522.0
aa(lp409
F383.0
aF523.0
aa(lp410
F382.5
aF524.0
aa(lp411
F382.0
aF525.0
aa(lp412
F381.0
aF526.0
aa(lp413
F381.0
aF527.0
aa(lp414
F380.0
aF528.0
aa(lp415
F379.0
aF529.0
aa(lp416
F378.0
aF529.0
aa(lp417
F377.0
aF529.0
aa(lp418
F376.0
aF529.0
aa(lp419
F375.0
aF530.0
aa(lp420
F374.0
aF531.0
aa(lp421
F373.0
aF532.0
aa(lp422
F372.0
aF532.0
aa(lp423
F371.3333333333333
aF532.6666666666666
aa(lp424
F370.6666666666667
aF533.3333333333334
aa(lp425
F370.0
aF534.0
aa(lp426
F369.0
aF534.0
aa(lp427
F368.0
aF534.5
aa(lp428
F367.0
aF535.0
aa(lp429
F366.0
aF536.0
aa(lp430
F365.0
aF537.0
aa(lp431
F364.0
aF537.5
aa(lp432
F363.0
aF538.0
aa(lp433
F362.0
aF539.0
aa(lp434
F361.0
aF539.5
aa(lp435
F360.0
aF540.0
aa(lp436
F359.0
aF541.0
aa(lp437
F358.5
aF542.0
aa(lp438
F358.0
aF543.0
aa(lp439
F357.0
aF544.0
aa(lp440
F356.0
aF545.0
aa(lp441
F355.0
aF545.0
aa(lp442
F354.0
aF545.5
aa(lp443
F353.0
aF546.0
aa(lp444
F352.6666666666667
aF547.0
aa(lp445
F352.3333333333333
aF548.0
aa(lp446
F352.0
aF549.0
aa(lp447
F351.75
aF550.0
aa(lp448
F351.5
aF551.0
aa(lp449
F351.25
aF552.0
aa(lp450
F351.0
aF553.0
aa(lp451
F350.5
aF554.0
aa(lp452
F350.0
aF555.0
aa(lp453
F350.0
aF556.0
aa(lp454
F349.6666666666667
aF557.0
aa(lp455
F349.3333333333333
aF558.0
aa(lp456
F349.0
aF559.0
aa(lp457
F349.0
aF560.0
aa(lp458
F349.0
aF561.0
aa(lp459
F349.0
aF562.0
aa(lp460
F349.0
aF563.0
aa(lp461
F349.0
aF564.0
aa(lp462
F349.0
aF565.0
aa(lp463
F349.0
aF566.0
aa(lp464
F348.5
aF567.0
aa(lp465
F348.0
aF568.0
aa(lp466
F348.0
aF569.0
aa(lp467
F348.0
aF570.0
aa(lp468
F348.0
aF571.0
aa(lp469
F348.0
aF572.0
aa(lp470
F347.6666666666667
aF573.0
aa(lp471
F347.3333333333333
aF574.0
aa(lp472
F347.0
aF575.0
aa(lp473
F347.0
aF576.0
aa(lp474
F347.0
aF577.0
aa(lp475
F347.0
aF578.0
aa(lp476
F347.0
aF579.0
aa(lp477
F347.0
aF580.0
aa(lp478
F347.0
aF581.0
aa(lp479
F347.0
aF582.0
aa(lp480
F346.5
aF583.0
aa(lp481
F346.0
aF584.0
aa(lp482
F346.0
aF585.0
aa(lp483
F346.0
aF586.0
aa(lp484
F346.0
aF587.0
aa(lp485
F346.0
aF588.0
aa(lp486
F346.0
aF589.0
aa(lp487
F346.0
aF590.0
aa(lp488
F345.5
aF591.0
aasg116
I4
sg117
F0.1
sa(dp489
g30
I0
sg31
(lp490
(lp491
F391.0
aF350.0
aa(lp492
F391.0
aF351.0
aa(lp493
F391.3333333333333
aF352.0
aa(lp494
F391.6666666666667
aF353.0
aa(lp495
F392.0
aF354.0
aa(lp496
F392.0
aF355.0
aa(lp497
F392.0
aF356.0
aa(lp498
F392.0
aF357.0
aa(lp499
F392.0
aF358.0
aa(lp500
F392.5
aF359.0
aa(lp501
F393.0
aF360.0
aa(lp502
F393.0
aF361.0
aa(lp503
F393.0
aF362.0
aa(lp504
F393.0
aF363.0
aa(lp505
F393.0
aF364.0
aa(lp506
F393.0
aF365.0
aa(lp507
F393.0
aF366.0
aa(lp508
F393.0
aF367.0
aa(lp509
F393.5
aF368.0
aa(lp510
F394.0
aF369.0
aa(lp511
F394.5
aF370.0
aa(lp512
F395.0
aF371.0
aa(lp513
F395.5
aF372.0
aa(lp514
F396.0
aF373.0
aa(lp515
F396.0
aF374.0
aa(lp516
F396.0
aF375.0
aa(lp517
F396.0
aF376.0
aa(lp518
F396.0
aF377.0
aa(lp519
F396.0
aF378.0
aa(lp520
F396.0
aF379.0
aa(lp521
F396.0
aF380.0
aa(lp522
F396.0
aF381.0
aa(lp523
F396.0
aF382.0
aa(lp524
F396.0
aF383.0
aa(lp525
F396.0
aF384.0
aa(lp526
F396.0
aF385.0
aa(lp527
F396.0
aF386.0
aa(lp528
F396.0
aF387.0
aa(lp529
F396.3333333333333
aF388.0
aa(lp530
F396.6666666666667
aF389.0
aa(lp531
F397.0
aF390.0
aa(lp532
F397.3333333333333
aF391.0
aa(lp533
F397.6666666666667
aF392.0
aa(lp534
F398.0
aF393.0
aa(lp535
F398.0
aF394.0
aa(lp536
F398.0
aF395.0
aa(lp537
F399.0
aF396.0
aa(lp538
F399.0
aF397.0
aa(lp539
F399.0
aF398.0
aa(lp540
F399.0
aF399.0
aa(lp541
F399.3333333333333
aF400.0
aa(lp542
F399.6666666666667
aF401.0
aa(lp543
F400.0
aF402.0
aa(lp544
F400.0
aF403.0
aa(lp545
F400.0
aF404.0
aa(lp546
F400.0
aF405.0
aa(lp547
F400.0
aF406.0
aa(lp548
F400.0
aF407.0
aa(lp549
F400.0
aF408.0
aa(lp550
F400.0
aF409.0
aa(lp551
F400.0
aF410.0
aa(lp552
F400.3333333333333
aF411.0
aa(lp553
F400.6666666666667
aF412.0
aa(lp554
F401.0
aF413.0
aa(lp555
F401.0
aF414.0
aa(lp556
F401.0
aF415.0
aa(lp557
F401.25
aF416.0
aa(lp558
F401.5
aF417.0
aa(lp559
F401.75
aF418.0
aa(lp560
F402.0
aF419.0
aa(lp561
F402.0
aF420.0
aa(lp562
F402.0
aF421.0
aa(lp563
F402.0
aF422.0
aa(lp564
F402.0
aF423.0
aa(lp565
F402.0
aF424.0
aa(lp566
F402.0
aF425.0
aa(lp567
F402.0
aF426.0
aa(lp568
F402.0
aF427.0
aa(lp569
F402.0
aF428.0
aa(lp570
F402.0
aF429.0
aa(lp571
F402.0
aF430.0
aa(lp572
F402.4
aF431.0
aa(lp573
F402.8
aF432.0
aa(lp574
F403.2
aF433.0
aa(lp575
F403.6
aF434.0
aa(lp576
F404.0
aF435.0
aa(lp577
F404.75
aF435.75
aa(lp578
F405.5
aF436.5
aa(lp579
F406.25
aF437.25
aa(lp580
F407.0
aF438.0
aa(lp581
F407.5
aF439.0
aa(lp582
F408.0
aF440.0
aa(lp583
F408.5
aF441.0
aa(lp584
F409.0
aF442.0
aa(lp585
F409.4
aF443.0
aa(lp586
F409.8
aF444.0
aa(lp587
F410.2
aF445.0
aa(lp588
F410.6
aF446.0
aa(lp589
F411.0
aF447.0
aa(lp590
F411.0
aF448.0
aa(lp591
F411.0
aF449.0
aa(lp592
F411.0
aF450.0
aa(lp593
F411.0
aF451.0
aa(lp594
F411.0
aF452.0
aa(lp595
F411.0
aF453.0
aa(lp596
F411.3333333333333
aF454.0
aa(lp597
F411.6666666666667
aF455.0
aa(lp598
F412.0
aF456.0
aa(lp599
F412.0
aF457.0
aa(lp600
F412.0
aF458.0
aa(lp601
F412.0
aF459.0
aa(lp602
F412.0
aF460.0
aa(lp603
F412.0
aF461.0
aa(lp604
F412.0
aF462.0
aa(lp605
F412.0
aF463.0
aa(lp606
F412.0
aF464.0
aa(lp607
F412.0
aF465.0
aa(lp608
F412.3333333333333
aF466.0
aa(lp609
F412.6666666666667
aF467.0
aa(lp610
F413.0
aF468.0
aa(lp611
F413.25
aF469.0
aa(lp612
F413.5
aF470.0
aa(lp613
F413.75
aF471.0
aa(lp614
F414.0
aF472.0
aa(lp615
F414.0
aF473.0
aa(lp616
F414.5
aF474.0
aa(lp617
F415.0
aF475.0
aa(lp618
F415.0
aF476.0
aa(lp619
F415.0
aF477.0
aa(lp620
F415.0
aF478.0
aa(lp621
F415.0
aF479.0
aa(lp622
F415.0
aF480.0
aa(lp623
F415.3333333333333
aF481.0
aa(lp624
F415.6666666666667
aF482.0
aa(lp625
F416.0
aF483.0
aa(lp626
F416.5
aF484.0
aa(lp627
F417.0
aF485.0
aa(lp628
F417.25
aF486.0
aa(lp629
F417.5
aF487.0
aa(lp630
F417.75
aF488.0
aa(lp631
F418.0
aF489.0
aa(lp632
F418.0
aF490.0
aa(lp633
F418.0
aF491.0
aa(lp634
F418.0
aF492.0
aa(lp635
F418.25
aF493.0
aa(lp636
F418.5
aF494.0
aa(lp637
F418.75
aF495.0
aa(lp638
F419.0
aF496.0
aa(lp639
F419.0
aF497.0
aa(lp640
F419.0
aF498.0
aa(lp641
F419.0
aF499.0
aa(lp642
F419.0
aF500.0
aa(lp643
F419.5
aF500.8333333333333
aa(lp644
F420.0
aF501.6666666666667
aa(lp645
F420.5
aF502.5
aa(lp646
F421.0
aF503.3333333333333
aa(lp647
F421.5
aF504.1666666666667
aa(lp648
F422.0
aF505.0
aa(lp649
F422.0
aF506.0
aa(lp650
F422.0
aF507.0
aa(lp651
F422.0
aF508.0
aa(lp652
F422.0
aF509.0
aa(lp653
F422.5
aF510.0
aa(lp654
F423.0
aF511.0
aa(lp655
F423.0
aF512.0
aa(lp656
F423.0
aF513.0
aa(lp657
F423.0
aF514.0
aa(lp658
F423.0
aF515.0
aa(lp659
F423.0
aF516.0
aa(lp660
F423.0
aF517.0
aa(lp661
F423.0
aF518.0
aa(lp662
F423.0
aF519.0
aa(lp663
F423.0
aF520.0
aa(lp664
F423.0
aF521.0
aa(lp665
F423.0
aF522.0
aa(lp666
F423.0
aF523.0
aa(lp667
F423.0
aF524.0
aa(lp668
F423.0
aF525.0
aa(lp669
F423.0
aF526.0
aa(lp670
F423.0
aF527.0
aa(lp671
F423.0
aF528.0
aa(lp672
F423.0
aF529.0
aa(lp673
F423.0
aF530.0
aa(lp674
F423.5
aF531.0
aa(lp675
F424.0
aF532.0
aa(lp676
F424.5
aF533.0
aa(lp677
F425.0
aF534.0
aa(lp678
F425.0
aF535.0
aa(lp679
F425.0
aF536.0
aa(lp680
F425.0
aF537.0
aa(lp681
F425.0
aF538.0
aa(lp682
F425.0
aF539.0
aa(lp683
F425.0
aF540.0
aa(lp684
F425.0
aF541.0
aa(lp685
F425.2
aF542.0
aa(lp686
F425.4
aF543.0
aa(lp687
F425.6
aF544.0
aa(lp688
F425.8
aF545.0
aa(lp689
F426.0
aF546.0
aa(lp690
F426.5
aF547.0
aa(lp691
F427.0
aF548.0
aa(lp692
F427.5
aF549.0
aa(lp693
F428.0
aF550.0
aa(lp694
F428.0
aF551.0
aa(lp695
F428.0
aF552.0
aa(lp696
F428.0
aF553.0
aa(lp697
F428.0
aF554.0
aa(lp698
F428.3333333333333
aF555.0
aa(lp699
F428.6666666666667
aF556.0
aa(lp700
F429.0
aF557.0
aa(lp701
F430.0
aF558.0
aa(lp702
F430.3333333333333
aF559.0
aa(lp703
F430.6666666666667
aF560.0
aa(lp704
F431.0
aF561.0
aa(lp705
F431.0
aF562.0
aa(lp706
F431.0
aF563.0
aa(lp707
F431.0
aF564.0
aa(lp708
F431.0
aF565.0
aa(lp709
F431.4
aF566.0
aa(lp710
F431.8
aF567.0
aa(lp711
F432.2
aF568.0
aa(lp712
F432.6
aF569.0
aa(lp713
F433.0
aF570.0
aa(lp714
F433.5
aF571.0
aa(lp715
F434.0
aF572.0
aa(lp716
F434.0
aF573.0
aa(lp717
F434.0
aF574.0
aa(lp718
F434.0
aF575.0
aa(lp719
F434.6666666666667
aF575.6666666666666
aa(lp720
F435.3333333333333
aF576.3333333333334
aa(lp721
F436.0
aF577.0
aa(lp722
F436.6666666666667
aF577.6666666666666
aa(lp723
F437.3333333333333
aF578.3333333333334
aa(lp724
F438.0
aF579.0
aa(lp725
F438.0
aF580.0
aa(lp726
F438.0
aF581.0
aa(lp727
F438.0
aF582.0
aa(lp728
F438.5
aF583.0
aa(lp729
F439.0
aF584.0
aa(lp730
F440.0
aF585.0
aa(lp731
F441.0
aF586.0
aa(lp732
F441.3333333333333
aF587.0
aa(lp733
F441.6666666666667
aF588.0
aa(lp734
F442.0
aF589.0
aa(lp735
F442.3333333333333
aF590.0
aa(lp736
F442.6666666666667
aF591.0
aa(lp737
F443.0
aF592.0
aa(lp738
F444.0
aF593.0
aa(lp739
F444.0
aF594.0
aa(lp740
F444.0
aF595.0
aa(lp741
F444.0
aF596.0
aa(lp742
F444.0
aF597.0
aa(lp743
F444.0
aF598.0
aa(lp744
F444.75
aF598.75
aa(lp745
F445.5
aF599.5
aa(lp746
F446.25
aF600.25
aa(lp747
F447.0
aF601.0
aa(lp748
F447.0
aF602.0
aa(lp749
F448.0
aF603.0
aasg116
I3
sg117
F0.1
sasg6
S'neuron'
p750
sg8
S'excitatory'
p751
sg10
g11
(I366
I262
I60
I96
tp752
Rp753
sba(i__main__
pickledNeuron
p754
(dp755
g3
I2
sg4
(lp756
sg6
g7
sg8
S'leftforward'
p757
sg10
g11
(I286
I404
I80
I49
tp758
Rp759
sba.