(lp0
ccopy_reg
_reconstructor
p1
(cneuron_module
pickledNeuron
p2
c__builtin__
object
p3
Ntp4
Rp5
(dp6
S'axons'
p7
(lp8
(dp9
S'start'
p10
I10
sS'points'
p11
(lp12
(lp13
F820.0
aF324.0
aa(lp14
F819.0
aF324.0
aa(lp15
F818.25
aF324.5
aa(lp16
F817.5
aF325.0
aa(lp17
F816.75
aF325.5
aa(lp18
F816.0
aF326.0
aa(lp19
F815.25
aF326.5
aa(lp20
F814.5
aF327.0
aa(lp21
F813.75
aF327.5
aa(lp22
F813.0
aF328.0
aa(lp23
F812.0
aF328.3333333333333
aa(lp24
F811.0
aF328.6666666666667
aa(lp25
F810.0
aF329.0
aa(lp26
F809.25
aF329.5
aa(lp27
F808.5
aF330.0
aa(lp28
F807.75
aF330.5
aa(lp29
F807.0
aF331.0
aa(lp30
F806.0
aF331.4
aa(lp31
F805.0
aF331.8
aa(lp32
F804.0
aF332.2
aa(lp33
F803.0
aF332.6
aa(lp34
F802.0
aF333.0
aa(lp35
F801.0
aF333.5
aa(lp36
F800.0
aF334.0
aa(lp37
F799.2
aF334.6
aa(lp38
F798.4
aF335.2
aa(lp39
F797.6
aF335.8
aa(lp40
F796.8
aF336.4
aa(lp41
F796.0
aF337.0
aa(lp42
F795.0
aF337.5
aa(lp43
F794.0
aF338.0
aa(lp44
F793.0
aF338.5
aa(lp45
F792.0
aF339.0
aa(lp46
F791.0
aF339.5
aa(lp47
F790.0
aF340.0
aa(lp48
F789.0
aF340.25
aa(lp49
F788.0
aF340.5
aa(lp50
F787.0
aF340.75
aa(lp51
F786.0
aF341.0
aa(lp52
F785.1666666666666
aF341.5
aa(lp53
F784.3333333333334
aF342.0
aa(lp54
F783.5
aF342.5
aa(lp55
F782.6666666666666
aF343.0
aa(lp56
F781.8333333333334
aF343.5
aa(lp57
F781.0
aF344.0
aa(lp58
F780.5
aF345.0
aa(lp59
F780.0
aF346.0
aa(lp60
F779.0
aF346.5
aa(lp61
F778.0
aF347.0
aa(lp62
F777.25
aF347.5
aa(lp63
F776.5
aF348.0
aa(lp64
F775.75
aF348.5
aa(lp65
F775.0
aF349.0
aa(lp66
F774.0
aF349.4
aa(lp67
F773.0
aF349.8
aa(lp68
F772.0
aF350.2
aa(lp69
F771.0
aF350.6
aa(lp70
F770.0
aF351.0
aa(lp71
F769.1428571428571
aF351.57142857142856
aa(lp72
F768.2857142857143
aF352.14285714285717
aa(lp73
F767.4285714285714
aF352.7142857142857
aa(lp74
F766.5714285714286
aF353.2857142857143
aa(lp75
F765.7142857142857
aF353.85714285714283
aa(lp76
F764.8571428571429
aF354.42857142857144
aa(lp77
F764.0
aF355.0
aa(lp78
F763.0
aF355.4
aa(lp79
F762.0
aF355.8
aa(lp80
F761.0
aF356.2
aa(lp81
F760.0
aF356.6
aa(lp82
F759.0
aF357.0
aa(lp83
F758.3333333333334
aF357.6666666666667
aa(lp84
F757.6666666666666
aF358.3333333333333
aa(lp85
F757.0
aF359.0
aa(lp86
F756.3333333333334
aF359.6666666666667
aa(lp87
F755.6666666666666
aF360.3333333333333
aa(lp88
F755.0
aF361.0
aa(lp89
F754.1666666666666
aF361.6666666666667
aa(lp90
F753.3333333333334
aF362.3333333333333
aa(lp91
F752.5
aF363.0
aa(lp92
F751.6666666666666
aF363.6666666666667
aa(lp93
F750.8333333333334
aF364.3333333333333
aa(lp94
F750.0
aF365.0
aa(lp95
F749.0
aF365.5
aa(lp96
F748.0
aF366.0
aa(lp97
F747.3333333333334
aF366.6666666666667
aa(lp98
F746.6666666666666
aF367.3333333333333
aa(lp99
F746.0
aF368.0
aa(lp100
F745.0
aF368.5
aa(lp101
F744.0
aF369.0
aa(lp102
F743.0
aF369.5
aa(lp103
F742.0
aF370.0
aa(lp104
F741.2
aF370.6
aa(lp105
F740.4
aF371.2
aa(lp106
F739.6
aF371.8
aa(lp107
F738.8
aF372.4
aa(lp108
F738.0
aF373.0
aa(lp109
F737.0
aF373.4
aa(lp110
F736.0
aF373.8
aa(lp111
F735.0
aF374.2
aa(lp112
F734.0
aF374.6
aa(lp113
F733.0
aF375.0
aa(lp114
F732.25
aF375.5
aa(lp115
F731.5
aF376.0
aa(lp116
F730.75
aF376.5
aa(lp117
F730.0
aF377.0
aa(lp118
F729.2
aF377.6
aa(lp119
F728.4
aF378.2
aa(lp120
F727.6
aF378.8
aa(lp121
F726.8
aF379.4
aa(lp122
F726.0
aF380.0
aa(lp123
F725.5
aF380.75
aa(lp124
F725.0
aF381.5
aa(lp125
F724.5
aF382.25
aa(lp126
F724.0
aF383.0
aa(lp127
F723.1428571428571
aF383.42857142857144
aa(lp128
F722.2857142857143
aF383.85714285714283
aa(lp129
F721.4285714285714
aF384.2857142857143
aa(lp130
F720.5714285714286
aF384.7142857142857
aa(lp131
F719.7142857142857
aF385.14285714285717
aa(lp132
F718.8571428571429
aF385.57142857142856
aa(lp133
F718.0
aF386.0
aa(lp134
F717.2
aF386.6
aa(lp135
F716.4
aF387.2
aa(lp136
F715.6
aF387.8
aa(lp137
F714.8
aF388.4
aa(lp138
F714.0
aF389.0
aa(lp139
F713.25
aF389.75
aa(lp140
F712.5
aF390.5
aa(lp141
F711.75
aF391.25
aa(lp142
F711.0
aF392.0
aa(lp143
F710.25
aF392.5
aa(lp144
F709.5
aF393.0
aa(lp145
F708.75
aF393.5
aa(lp146
F708.0
aF394.0
aa(lp147
F707.0
aF394.3333333333333
aa(lp148
F706.0
aF394.6666666666667
aa(lp149
F705.0
aF395.0
aa(lp150
F704.25
aF395.625
aa(lp151
F703.5
aF396.25
aa(lp152
F702.75
aF396.875
aa(lp153
F702.0
aF397.5
aa(lp154
F701.25
aF398.125
aa(lp155
F700.5
aF398.75
aa(lp156
F699.75
aF399.375
aa(lp157
F699.0
aF400.0
aa(lp158
F698.5
aF401.0
aa(lp159
F698.0
aF402.0
aa(lp160
F697.125
aF402.375
aa(lp161
F696.25
aF402.75
aa(lp162
F695.375
aF403.125
aa(lp163
F694.5
aF403.5
aa(lp164
F693.625
aF403.875
aa(lp165
F692.75
aF404.25
aa(lp166
F691.875
aF404.625
aa(lp167
F691.0
aF405.0
aa(lp168
F690.0
aF405.5
aa(lp169
F689.0
aF406.0
aa(lp170
F688.0
aF406.5
aa(lp171
F687.0
aF407.0
aa(lp172
F686.25
aF407.625
aa(lp173
F685.5
aF408.25
aa(lp174
F684.75
aF408.875
aa(lp175
F684.0
aF409.5
aa(lp176
F683.25
aF410.125
aa(lp177
F682.5
aF410.75
aa(lp178
F681.75
aF411.375
aa(lp179
F681.0
aF412.0
aa(lp180
F680.0
aF412.5
aa(lp181
F679.0
aF413.0
aa(lp182
F678.0
aF413.5
aa(lp183
F677.0
aF414.0
aa(lp184
F676.25
aF414.5
aa(lp185
F675.5
aF415.0
aa(lp186
F674.75
aF415.5
aa(lp187
F674.0
aF416.0
aa(lp188
F673.1428571428571
aF416.57142857142856
aa(lp189
F672.2857142857143
aF417.14285714285717
aa(lp190
F671.4285714285714
aF417.7142857142857
aa(lp191
F670.5714285714286
aF418.2857142857143
aa(lp192
F669.7142857142857
aF418.85714285714283
aa(lp193
F668.8571428571429
aF419.42857142857144
aa(lp194
F668.0
aF420.0
aa(lp195
F667.25
aF420.5
aa(lp196
F666.5
aF421.0
aa(lp197
F665.75
aF421.5
aa(lp198
F665.0
aF422.0
aa(lp199
F664.0
aF422.5
aa(lp200
F663.0
aF423.0
aa(lp201
F662.0
aF423.5
aa(lp202
F661.0
aF424.0
aa(lp203
F660.4
aF424.8
aa(lp204
F659.8
aF425.6
aa(lp205
F659.2
aF426.4
aa(lp206
F658.6
aF427.2
aa(lp207
F658.0
aF428.0
aa(lp208
F657.2
aF428.6
aa(lp209
F656.4
aF429.2
aa(lp210
F655.6
aF429.8
aa(lp211
F654.8
aF430.4
aa(lp212
F654.0
aF431.0
aa(lp213
F653.0
aF431.4
aa(lp214
F652.0
aF431.8
aa(lp215
F651.0
aF432.2
aa(lp216
F650.0
aF432.6
aa(lp217
F649.0
aF433.0
aa(lp218
F648.3333333333334
aF433.6666666666667
aa(lp219
F647.6666666666666
aF434.3333333333333
aa(lp220
F647.0
aF435.0
aa(lp221
F646.3333333333334
aF435.6666666666667
aa(lp222
F645.6666666666666
aF436.3333333333333
aa(lp223
F645.0
aF437.0
aa(lp224
F644.5
aF437.8333333333333
aa(lp225
F644.0
aF438.6666666666667
aa(lp226
F643.5
aF439.5
aa(lp227
F643.0
aF440.3333333333333
aa(lp228
F642.5
aF441.1666666666667
aa(lp229
F642.0
aF442.0
aa(lp230
F641.4
aF442.8
aa(lp231
F640.8
aF443.6
aa(lp232
F640.2
aF444.4
aa(lp233
F639.6
aF445.2
aa(lp234
F639.0
aF446.0
aa(lp235
F638.25
aF446.5
aa(lp236
F637.5
aF447.0
aa(lp237
F636.75
aF447.5
aa(lp238
F636.0
aF448.0
aa(lp239
F635.1666666666666
aF448.6666666666667
aa(lp240
F634.3333333333334
aF449.3333333333333
aa(lp241
F633.5
aF450.0
aa(lp242
F632.6666666666666
aF450.6666666666667
aa(lp243
F631.8333333333334
aF451.3333333333333
aa(lp244
F631.0
aF452.0
aa(lp245
F630.25
aF452.75
aa(lp246
F629.5
aF453.5
aa(lp247
F628.75
aF454.25
aa(lp248
F628.0
aF455.0
aa(lp249
F627.0
aF455.5
aa(lp250
F626.0
aF456.0
aa(lp251
F625.0
aF456.5
aa(lp252
F624.0
aF457.0
aa(lp253
F623.25
aF457.5
aa(lp254
F622.5
aF458.0
aa(lp255
F621.75
aF458.5
aa(lp256
F621.0
aF459.0
aa(lp257
F620.0
aF459.5
aa(lp258
F619.0
aF460.0
aa(lp259
F618.0
aF460.5
aa(lp260
F617.0
aF461.0
aa(lp261
F616.3333333333334
aF461.6666666666667
aa(lp262
F615.6666666666666
aF462.3333333333333
aa(lp263
F615.0
aF463.0
aa(lp264
F614.3333333333334
aF463.6666666666667
aa(lp265
F613.6666666666666
aF464.3333333333333
aa(lp266
F613.0
aF465.0
aa(lp267
F612.25
aF465.5
aa(lp268
F611.5
aF466.0
aa(lp269
F610.75
aF466.5
aa(lp270
F610.0
aF467.0
aa(lp271
F609.0
aF467.5
aa(lp272
F608.0
aF468.0
aa(lp273
F607.0
aF468.5
aa(lp274
F606.0
aF469.0
aa(lp275
F605.4
aF469.8
aa(lp276
F604.8
aF470.6
aa(lp277
F604.2
aF471.4
aa(lp278
F603.6
aF472.2
aa(lp279
F603.0
aF473.0
aa(lp280
F602.1428571428571
aF473.42857142857144
aa(lp281
F601.2857142857143
aF473.85714285714283
aa(lp282
F600.4285714285714
aF474.2857142857143
aa(lp283
F599.5714285714286
aF474.7142857142857
aa(lp284
F598.7142857142857
aF475.14285714285717
aa(lp285
F597.8571428571429
aF475.57142857142856
aa(lp286
F597.0
aF476.0
aa(lp287
F596.0
aF477.0
aa(lp288
F595.25
aF477.5
aa(lp289
F594.5
aF478.0
aa(lp290
F593.75
aF478.5
aa(lp291
F593.0
aF479.0
aa(lp292
F592.0
aF479.5
aa(lp293
F591.0
aF480.0
aa(lp294
F590.0
aF480.5
aa(lp295
F589.0
aF481.0
aa(lp296
F588.0
aF482.0
aa(lp297
F587.0
aF483.0
aa(lp298
F586.0
aF483.5
aa(lp299
F585.0
aF484.0
aa(lp300
F584.0
aF484.3333333333333
aa(lp301
F583.0
aF484.6666666666667
aa(lp302
F582.0
aF485.0
aa(lp303
F581.0
aF485.5
aa(lp304
F580.0
aF486.0
aa(lp305
F579.0
aF486.0
aa(lp306
F578.0
aF486.5
aa(lp307
F577.0
aF487.0
aa(lp308
F576.0
aF487.0
aa(lp309
F575.0
aF488.0
aa(lp310
F574.0
aF488.0
aa(lp311
F573.3333333333334
aF488.6666666666667
aa(lp312
F572.6666666666666
aF489.3333333333333
aa(lp313
F572.0
aF490.0
aa(lp314
F571.0
aF490.0
aa(lp315
F570.0
aF490.0
aa(lp316
F569.0
aF490.0
aa(lp317
F568.0
aF490.0
aa(lp318
F567.0
aF490.0
aa(lp319
F566.0
aF490.0
aa(lp320
F565.0
aF490.0
aa(lp321
F564.0
aF490.0
aa(lp322
F563.0
aF490.0
aa(lp323
F562.0
aF490.0
aa(lp324
F561.0
aF490.0
aa(lp325
F560.0
aF490.0
aa(lp326
F559.0
aF490.0
aa(lp327
F558.0
aF490.0
aa(lp328
F557.0
aF490.0
aa(lp329
F556.0
aF490.0
aa(lp330
F555.0
aF490.0
aa(lp331
F554.0
aF489.0
aa(lp332
F553.0
aF489.0
aa(lp333
F552.0
aF489.0
aa(lp334
F551.0
aF488.5
aa(lp335
F550.0
aF488.0
aa(lp336
F549.0
aF487.5
aa(lp337
F548.0
aF487.0
aa(lp338
F547.0
aF487.0
aa(lp339
F546.0
aF486.0
aa(lp340
F545.0
aF485.5
aa(lp341
F544.0
aF485.0
aa(lp342
F543.0
aF484.5
aa(lp343
F542.0
aF484.0
aa(lp344
F541.3333333333334
aF483.3333333333333
aa(lp345
F540.6666666666666
aF482.6666666666667
aa(lp346
F540.0
aF482.0
aa(lp347
F539.3333333333334
aF481.3333333333333
aa(lp348
F538.6666666666666
aF480.6666666666667
aa(lp349
F538.0
aF480.0
aa(lp350
F537.0
aF480.0
aa(lp351
F536.0
aF480.0
aa(lp352
F535.0
aF479.0
aa(lp353
F534.25
aF478.5
aa(lp354
F533.5
aF478.0
aa(lp355
F532.75
aF477.5
aa(lp356
F532.0
aF477.0
aa(lp357
F531.0
aF476.0
aa(lp358
F530.0
aF475.0
aa(lp359
F529.0
aF474.0
aa(lp360
F528.5
aF473.0
aa(lp361
F528.0
aF472.0
aasS'end'
p362
I9
sS'weight'
p363
F0.3
sasS'nid'
p364
I10
sS'rf'
p365
I0
sS'tp'
p366
S'auditory'
p367
sS'super_type'
p368
S'sensor'
p369
sS'freq'
p370
I440
sS'rect'
p371
cpygame
__rect_constructor
p372
(I799
I237
I60
I96
tp373
Rp374
sbag1
(g2
g3
Ntp375
Rp376
(dp377
g7
(lp378
(dp379
g10
I6
sg11
(lp380
(lp381
F436.0
aF465.0
aa(lp382
F437.0
aF466.0
aa(lp383
F437.75
aF466.625
aa(lp384
F438.5
aF467.25
aa(lp385
F439.25
aF467.875
aa(lp386
F440.0
aF468.5
aa(lp387
F440.75
aF469.125
aa(lp388
F441.5
aF469.75
aa(lp389
F442.25
aF470.375
aa(lp390
F443.0
aF471.0
aa(lp391
F443.8333333333333
aF471.6666666666667
aa(lp392
F444.6666666666667
aF472.3333333333333
aa(lp393
F445.5
aF473.0
aa(lp394
F446.3333333333333
aF473.6666666666667
aa(lp395
F447.1666666666667
aF474.3333333333333
aa(lp396
F448.0
aF475.0
aa(lp397
F448.75
aF475.75
aa(lp398
F449.5
aF476.5
aa(lp399
F450.25
aF477.25
aa(lp400
F451.0
aF478.0
aa(lp401
F451.5
aF479.0
aa(lp402
F452.0
aF480.0
aa(lp403
F452.6666666666667
aF480.6666666666667
aa(lp404
F453.3333333333333
aF481.3333333333333
aa(lp405
F454.0
aF482.0
aa(lp406
F455.0
aF483.0
aa(lp407
F455.3333333333333
aF484.0
aa(lp408
F455.6666666666667
aF485.0
aa(lp409
F456.0
aF486.0
aa(lp410
F456.75
aF486.5
aa(lp411
F457.5
aF487.0
aa(lp412
F458.25
aF487.5
aa(lp413
F459.0
aF488.0
aa(lp414
F460.0
aF489.0
aa(lp415
F461.0
aF490.0
aa(lp416
F462.0
aF491.0
aa(lp417
F463.0
aF492.0
aa(lp418
F463.3333333333333
aF493.0
aa(lp419
F463.6666666666667
aF494.0
aa(lp420
F464.0
aF495.0
aa(lp421
F464.5
aF496.0
aa(lp422
F465.0
aF497.0
aa(lp423
F465.0
aF498.0
aa(lp424
F465.0
aF499.0
aa(lp425
F465.5
aF500.0
aa(lp426
F466.0
aF501.0
aa(lp427
F466.3333333333333
aF502.0
aa(lp428
F466.6666666666667
aF503.0
aa(lp429
F467.0
aF504.0
aa(lp430
F467.5
aF505.0
aa(lp431
F468.0
aF506.0
aa(lp432
F468.5
aF507.0
aa(lp433
F469.0
aF508.0
aa(lp434
F469.5
aF508.75
aa(lp435
F470.0
aF509.5
aa(lp436
F470.5
aF510.25
aa(lp437
F471.0
aF511.0
aa(lp438
F471.0
aF512.0
aa(lp439
F471.0
aF513.0
aa(lp440
F471.0
aF514.0
aa(lp441
F471.0
aF515.0
aa(lp442
F471.0
aF516.0
aa(lp443
F471.0
aF517.0
aa(lp444
F471.0
aF518.0
aa(lp445
F471.0
aF519.0
aa(lp446
F471.25
aF520.0
aa(lp447
F471.5
aF521.0
aa(lp448
F471.75
aF522.0
aa(lp449
F472.0
aF523.0
aa(lp450
F472.0
aF524.0
aa(lp451
F472.0
aF525.0
aa(lp452
F472.3333333333333
aF526.0
aa(lp453
F472.6666666666667
aF527.0
aa(lp454
F473.0
aF528.0
aa(lp455
F473.0
aF529.0
aa(lp456
F473.0
aF530.0
aa(lp457
F473.0
aF531.0
aa(lp458
F473.3333333333333
aF532.0
aa(lp459
F473.6666666666667
aF533.0
aa(lp460
F474.0
aF534.0
aa(lp461
F474.0
aF535.0
aa(lp462
F474.0
aF536.0
aa(lp463
F474.0
aF537.0
aa(lp464
F474.0
aF538.0
aa(lp465
F474.0
aF539.0
aa(lp466
F474.0
aF540.0
aa(lp467
F474.0
aF541.0
aa(lp468
F474.0
aF542.0
aa(lp469
F474.0
aF543.0
aa(lp470
F474.0
aF544.0
aa(lp471
F474.0
aF545.0
aa(lp472
F474.0
aF546.0
aasg362
I2
sg363
F0.3
sa(dp473
g10
I6
sg11
(lp474
(lp475
F431.0
aF466.0
aa(lp476
F431.2
aF467.0
aa(lp477
F431.4
aF468.0
aa(lp478
F431.6
aF469.0
aa(lp479
F431.8
aF470.0
aa(lp480
F432.0
aF471.0
aa(lp481
F432.5
aF471.75
aa(lp482
F433.0
aF472.5
aa(lp483
F433.5
aF473.25
aa(lp484
F434.0
aF474.0
aa(lp485
F434.3333333333333
aF475.0
aa(lp486
F434.6666666666667
aF476.0
aa(lp487
F435.0
aF477.0
aa(lp488
F435.3333333333333
aF478.0
aa(lp489
F435.6666666666667
aF479.0
aa(lp490
F436.0
aF480.0
aa(lp491
F436.1666666666667
aF481.0
aa(lp492
F436.3333333333333
aF482.0
aa(lp493
F436.5
aF483.0
aa(lp494
F436.6666666666667
aF484.0
aa(lp495
F436.8333333333333
aF485.0
aa(lp496
F437.0
aF486.0
aa(lp497
F437.5
aF487.0
aa(lp498
F438.0
aF488.0
aa(lp499
F438.5
aF489.0
aa(lp500
F439.0
aF490.0
aa(lp501
F439.2
aF491.0
aa(lp502
F439.4
aF492.0
aa(lp503
F439.6
aF493.0
aa(lp504
F439.8
aF494.0
aa(lp505
F440.0
aF495.0
aa(lp506
F440.75
aF495.75
aa(lp507
F441.5
aF496.5
aa(lp508
F442.25
aF497.25
aa(lp509
F443.0
aF498.0
aa(lp510
F443.0
aF499.0
aa(lp511
F443.0
aF500.0
aa(lp512
F443.0
aF501.0
aa(lp513
F443.0
aF502.0
aa(lp514
F443.0
aF503.0
aa(lp515
F443.0
aF504.0
aa(lp516
F443.75
aF504.5
aa(lp517
F444.5
aF505.0
aa(lp518
F445.25
aF505.5
aa(lp519
F446.0
aF506.0
aa(lp520
F446.6666666666667
aF506.6666666666667
aa(lp521
F447.3333333333333
aF507.3333333333333
aa(lp522
F448.0
aF508.0
aa(lp523
F448.0
aF509.0
aa(lp524
F448.0
aF510.0
aa(lp525
F449.0
aF511.0
aa(lp526
F449.0
aF512.0
aa(lp527
F449.0
aF513.0
aa(lp528
F449.0
aF514.0
aa(lp529
F449.6666666666667
aF514.6666666666666
aa(lp530
F450.3333333333333
aF515.3333333333334
aa(lp531
F451.0
aF516.0
aa(lp532
F451.5
aF517.0
aa(lp533
F452.0
aF518.0
aa(lp534
F452.0
aF519.0
aa(lp535
F452.0
aF520.0
aa(lp536
F452.3333333333333
aF521.0
aa(lp537
F452.6666666666667
aF522.0
aa(lp538
F453.0
aF523.0
aa(lp539
F453.5
aF524.0
aa(lp540
F454.0
aF525.0
aa(lp541
F454.5
aF526.0
aa(lp542
F455.0
aF527.0
aa(lp543
F455.0
aF528.0
aa(lp544
F455.0
aF529.0
aa(lp545
F455.3333333333333
aF530.0
aa(lp546
F455.6666666666667
aF531.0
aa(lp547
F456.0
aF532.0
aa(lp548
F456.0
aF533.0
aa(lp549
F456.0
aF534.0
aa(lp550
F456.0
aF535.0
aa(lp551
F456.0
aF536.0
aa(lp552
F456.0
aF537.0
aa(lp553
F456.0
aF538.0
aa(lp554
F456.0
aF539.0
aa(lp555
F456.0
aF540.0
aa(lp556
F456.0
aF541.0
aa(lp557
F456.0
aF542.0
aa(lp558
F456.0
aF543.0
aa(lp559
F456.0
aF544.0
aa(lp560
F456.0
aF545.0
aasg362
I2
sg363
F0.3
sa(dp561
g10
I6
sg11
(lp562
(lp563
F433.0
aF464.0
aa(lp564
F432.3333333333333
aF464.6666666666667
aa(lp565
F431.6666666666667
aF465.3333333333333
aa(lp566
F431.0
aF466.0
aa(lp567
F430.75
aF467.0
aa(lp568
F430.5
aF468.0
aa(lp569
F430.25
aF469.0
aa(lp570
F430.0
aF470.0
aa(lp571
F429.3333333333333
aF470.6666666666667
aa(lp572
F428.6666666666667
aF471.3333333333333
aa(lp573
F428.0
aF472.0
aa(lp574
F428.0
aF473.0
aa(lp575
F428.0
aF474.0
aa(lp576
F427.75
aF475.0
aa(lp577
F427.5
aF476.0
aa(lp578
F427.25
aF477.0
aa(lp579
F427.0
aF478.0
aa(lp580
F426.5
aF478.75
aa(lp581
F426.0
aF479.5
aa(lp582
F425.5
aF480.25
aa(lp583
F425.0
aF481.0
aa(lp584
F425.0
aF482.0
aa(lp585
F425.0
aF483.0
aa(lp586
F425.0
aF484.0
aa(lp587
F425.0
aF485.0
aa(lp588
F425.0
aF486.0
aa(lp589
F425.0
aF487.0
aa(lp590
F425.0
aF488.0
aa(lp591
F425.0
aF489.0
aa(lp592
F425.0
aF490.0
aa(lp593
F424.5
aF491.0
aa(lp594
F424.0
aF492.0
aa(lp595
F424.0
aF493.0
aa(lp596
F424.0
aF494.0
aa(lp597
F424.0
aF495.0
aa(lp598
F424.0
aF496.0
aa(lp599
F424.0
aF497.0
aa(lp600
F423.6666666666667
aF498.0
aa(lp601
F423.3333333333333
aF499.0
aa(lp602
F423.0
aF500.0
aa(lp603
F422.75
aF501.0
aa(lp604
F422.5
aF502.0
aa(lp605
F422.25
aF503.0
aa(lp606
F422.0
aF504.0
aa(lp607
F421.5
aF505.0
aa(lp608
F421.0
aF506.0
aa(lp609
F421.0
aF507.0
aa(lp610
F421.0
aF508.0
aa(lp611
F421.0
aF509.0
aa(lp612
F421.0
aF510.0
aa(lp613
F421.0
aF511.0
aa(lp614
F421.0
aF512.0
aa(lp615
F421.0
aF513.0
aa(lp616
F421.0
aF514.0
aa(lp617
F421.0
aF515.0
aa(lp618
F421.0
aF516.0
aa(lp619
F421.0
aF517.0
aa(lp620
F421.0
aF518.0
aa(lp621
F421.0
aF519.0
aa(lp622
F421.0
aF520.0
aa(lp623
F421.0
aF521.0
aa(lp624
F421.0
aF522.0
aa(lp625
F421.0
aF523.0
aa(lp626
F421.0
aF524.0
aa(lp627
F421.0
aF525.0
aa(lp628
F421.0
aF526.0
aa(lp629
F421.0
aF527.0
aa(lp630
F421.0
aF528.0
aa(lp631
F421.0
aF529.0
aa(lp632
F421.0
aF530.0
aa(lp633
F421.0
aF531.0
aa(lp634
F421.0
aF532.0
aa(lp635
F421.0
aF533.0
aa(lp636
F422.0
aF534.0
aa(lp637
F422.5
aF535.0
aa(lp638
F423.0
aF536.0
aa(lp639
F424.0
aF536.5
aa(lp640
F425.0
aF537.0
aa(lp641
F425.5
aF538.0
aa(lp642
F426.0
aF539.0
aa(lp643
F426.5
aF540.0
aa(lp644
F427.0
aF541.0
aa(lp645
F428.0
aF542.0
aa(lp646
F429.0
aF543.0
aa(lp647
F430.0
aF544.0
aa(lp648
F431.0
aF545.0
aa(lp649
F432.0
aF545.5
aa(lp650
F433.0
aF546.0
aa(lp651
F434.0
aF547.0
aa(lp652
F434.5
aF548.0
aa(lp653
F435.0
aF549.0
aa(lp654
F436.0
aF550.0
aa(lp655
F437.0
aF551.0
aa(lp656
F438.0
aF552.0
aa(lp657
F439.0
aF553.0
aa(lp658
F440.0
aF553.0
aa(lp659
F441.0
aF553.5
aa(lp660
F442.0
aF554.0
aa(lp661
F443.0
aF554.0
aa(lp662
F444.0
aF555.0
aa(lp663
F445.0
aF555.5
aa(lp664
F446.0
aF556.0
aa(lp665
F446.5
aF557.0
aa(lp666
F447.0
aF558.0
aasg362
I2
sg363
F0.3
sasg364
I6
sg365
I0
sg366
S'inhibitory'
p667
sg368
S'neuron'
p668
sg370
Nsg371
g372
(I403
I419
I73
I76
tp669
Rp670
sbag1
(g2
g3
Ntp671
Rp672
(dp673
g7
(lp674
sg364
I2
sg365
I0
sg366
S'leftforward'
p675
sg368
S'motor'
p676
sg370
Nsg371
g372
(I423
I539
I80
I49
tp677
Rp678
sbag1
(g2
g3
Ntp679
Rp680
(dp681
g7
(lp682
(dp683
g10
I5
sg11
(lp684
(lp685
F355.0
aF445.0
aa(lp686
F356.0
aF444.5
aa(lp687
F357.0
aF444.0
aa(lp688
F357.5
aF443.0
aa(lp689
F358.0
aF442.0
aa(lp690
F358.5
aF441.0
aa(lp691
F359.0
aF440.0
aa(lp692
F359.5
aF439.25
aa(lp693
F360.0
aF438.5
aa(lp694
F360.5
aF437.75
aa(lp695
F361.0
aF437.0
aa(lp696
F361.4
aF436.0
aa(lp697
F361.8
aF435.0
aa(lp698
F362.2
aF434.0
aa(lp699
F362.6
aF433.0
aa(lp700
F363.0
aF432.0
aa(lp701
F363.6
aF431.2
aa(lp702
F364.2
aF430.4
aa(lp703
F364.8
aF429.6
aa(lp704
F365.4
aF428.8
aa(lp705
F366.0
aF428.0
aa(lp706
F367.0
aF427.0
aa(lp707
F368.0
aF426.5
aa(lp708
F369.0
aF426.0
aa(lp709
F369.0
aF425.0
aa(lp710
F369.0
aF424.0
aa(lp711
F369.0
aF423.0
aa(lp712
F369.5
aF422.25
aa(lp713
F370.0
aF421.5
aa(lp714
F370.5
aF420.75
aa(lp715
F371.0
aF420.0
aa(lp716
F372.0
aF419.0
aa(lp717
F372.0
aF418.0
aa(lp718
F372.0
aF417.0
aa(lp719
F372.0
aF416.0
aa(lp720
F372.6666666666667
aF415.3333333333333
aa(lp721
F373.3333333333333
aF414.6666666666667
aa(lp722
F374.0
aF414.0
aa(lp723
F374.3333333333333
aF413.0
aa(lp724
F374.6666666666667
aF412.0
aa(lp725
F375.0
aF411.0
aa(lp726
F375.5
aF410.0
aa(lp727
F376.0
aF409.0
aa(lp728
F376.0
aF408.0
aa(lp729
F376.5
aF407.0
aa(lp730
F377.0
aF406.0
aa(lp731
F377.5
aF405.0
aa(lp732
F378.0
aF404.0
aa(lp733
F379.0
aF403.0
aa(lp734
F379.0
aF402.0
aa(lp735
F379.0
aF401.0
aa(lp736
F379.5
aF400.0
aa(lp737
F380.0
aF399.0
aa(lp738
F380.25
aF398.0
aa(lp739
F380.5
aF397.0
aa(lp740
F380.75
aF396.0
aa(lp741
F381.0
aF395.0
aa(lp742
F381.0
aF394.0
aa(lp743
F381.5
aF393.0
aa(lp744
F382.0
aF392.0
aa(lp745
F382.0
aF391.0
aa(lp746
F382.25
aF390.0
aa(lp747
F382.5
aF389.0
aa(lp748
F382.75
aF388.0
aa(lp749
F383.0
aF387.0
aa(lp750
F383.0
aF386.0
aa(lp751
F383.5
aF385.0
aa(lp752
F384.0
aF384.0
aa(lp753
F384.5
aF383.0
aa(lp754
F385.0
aF382.0
aa(lp755
F385.0
aF381.0
aa(lp756
F385.0
aF380.0
aa(lp757
F385.0
aF379.0
aa(lp758
F385.0
aF378.0
aa(lp759
F385.0
aF377.0
aa(lp760
F385.0
aF376.0
aa(lp761
F385.0
aF375.0
aa(lp762
F385.0
aF374.0
aa(lp763
F385.0
aF373.0
aa(lp764
F385.0
aF372.0
aa(lp765
F385.0
aF371.0
aa(lp766
F385.0
aF370.0
aa(lp767
F385.0
aF369.0
aa(lp768
F385.0
aF368.0
aa(lp769
F385.0
aF367.0
aa(lp770
F385.0
aF366.0
aa(lp771
F385.0
aF365.0
aa(lp772
F385.0
aF364.0
aa(lp773
F385.0
aF363.0
aa(lp774
F385.0
aF362.0
aa(lp775
F385.0
aF361.0
aa(lp776
F385.0
aF360.0
aa(lp777
F385.0
aF359.0
aa(lp778
F385.0
aF358.0
aa(lp779
F385.0
aF357.0
aa(lp780
F385.0
aF356.0
aa(lp781
F385.0
aF355.0
aasg362
I4
sg363
F0.3
sa(dp782
g10
I5
sg11
(lp783
(lp784
F364.0
aF461.0
aa(lp785
F364.0
aF462.0
aa(lp786
F365.0
aF463.0
aa(lp787
F366.0
aF463.0
aa(lp788
F367.0
aF463.0
aa(lp789
F368.0
aF463.0
aa(lp790
F369.0
aF463.0
aa(lp791
F370.0
aF463.0
aa(lp792
F371.0
aF463.0
aa(lp793
F372.0
aF463.0
aa(lp794
F373.0
aF463.0
aa(lp795
F374.0
aF463.0
aa(lp796
F375.0
aF463.0
aa(lp797
F376.0
aF463.0
aa(lp798
F377.0
aF463.0
aa(lp799
F378.0
aF463.0
aa(lp800
F379.0
aF463.0
aa(lp801
F380.0
aF463.0
aa(lp802
F381.0
aF463.0
aa(lp803
F382.0
aF463.0
aa(lp804
F383.0
aF463.0
aa(lp805
F384.0
aF463.0
aa(lp806
F385.0
aF463.0
aa(lp807
F386.0
aF463.0
aa(lp808
F387.0
aF463.0
aa(lp809
F388.0
aF462.5
aa(lp810
F389.0
aF462.0
aa(lp811
F390.0
aF462.0
aa(lp812
F391.0
aF462.0
aa(lp813
F392.0
aF462.0
aa(lp814
F393.0
aF461.5
aa(lp815
F394.0
aF461.0
aa(lp816
F394.5
aF460.25
aa(lp817
F395.0
aF459.5
aa(lp818
F395.5
aF458.75
aa(lp819
F396.0
aF458.0
aa(lp820
F397.0
aF458.0
aa(lp821
F398.0
aF458.0
aa(lp822
F398.75
aF457.5
aa(lp823
F399.5
aF457.0
aa(lp824
F400.25
aF456.5
aa(lp825
F401.0
aF456.0
aa(lp826
F402.0
aF455.0
aa(lp827
F403.0
aF454.5
aa(lp828
F404.0
aF454.0
aa(lp829
F405.0
aF453.75
aa(lp830
F406.0
aF453.5
aa(lp831
F407.0
aF453.25
aa(lp832
F408.0
aF453.0
aa(lp833
F409.0
aF452.0
aa(lp834
F409.6666666666667
aF451.3333333333333
aa(lp835
F410.3333333333333
aF450.6666666666667
aa(lp836
F411.0
aF450.0
aa(lp837
F412.0
aF450.0
aa(lp838
F413.0
aF450.0
aa(lp839
F414.0
aF449.0
aa(lp840
F415.0
aF449.0
aa(lp841
F416.0
aF449.0
aa(lp842
F417.0
aF448.0
aa(lp843
F418.0
aF448.0
aa(lp844
F419.0
aF447.0
aa(lp845
F420.0
aF447.0
aa(lp846
F421.0
aF446.0
aa(lp847
F422.0
aF446.0
aa(lp848
F423.0
aF446.0
aa(lp849
F424.0
aF445.6666666666667
aa(lp850
F425.0
aF445.3333333333333
aa(lp851
F426.0
aF445.0
aasg362
I6
sg363
F0.2941480149401
sa(dp852
g10
I5
sg11
(lp853
(lp854
F364.0
aF458.0
aa(lp855
F365.0
aF457.0
aa(lp856
F366.0
aF457.0
aa(lp857
F366.6666666666667
aF456.3333333333333
aa(lp858
F367.3333333333333
aF455.6666666666667
aa(lp859
F368.0
aF455.0
aa(lp860
F368.75
aF454.5
aa(lp861
F369.5
aF454.0
aa(lp862
F370.25
aF453.5
aa(lp863
F371.0
aF453.0
aa(lp864
F371.5
aF452.25
aa(lp865
F372.0
aF451.5
aa(lp866
F372.5
aF450.75
aa(lp867
F373.0
aF450.0
aa(lp868
F373.75
aF449.25
aa(lp869
F374.5
aF448.5
aa(lp870
F375.25
aF447.75
aa(lp871
F376.0
aF447.0
aa(lp872
F376.75
aF446.5
aa(lp873
F377.5
aF446.0
aa(lp874
F378.25
aF445.5
aa(lp875
F379.0
aF445.0
aa(lp876
F380.0
aF444.5
aa(lp877
F381.0
aF444.0
aa(lp878
F381.5
aF443.0
aa(lp879
F382.0
aF442.0
aa(lp880
F382.6666666666667
aF441.3333333333333
aa(lp881
F383.3333333333333
aF440.6666666666667
aa(lp882
F384.0
aF440.0
aa(lp883
F385.0
aF439.0
aa(lp884
F385.6666666666667
aF438.3333333333333
aa(lp885
F386.3333333333333
aF437.6666666666667
aa(lp886
F387.0
aF437.0
aa(lp887
F388.0
aF436.0
aa(lp888
F389.0
aF436.0
aa(lp889
F390.0
aF435.5
aa(lp890
F391.0
aF435.0
aa(lp891
F391.5
aF434.0
aa(lp892
F392.0
aF433.0
aa(lp893
F392.75
aF432.5
aa(lp894
F393.5
aF432.0
aa(lp895
F394.25
aF431.5
aa(lp896
F395.0
aF431.0
aa(lp897
F396.0
aF430.0
aa(lp898
F397.0
aF429.5
aa(lp899
F398.0
aF429.0
aa(lp900
F399.0
aF428.0
aa(lp901
F400.0
aF427.0
aa(lp902
F401.0
aF426.0
aa(lp903
F401.5
aF425.25
aa(lp904
F402.0
aF424.5
aa(lp905
F402.5
aF423.75
aa(lp906
F403.0
aF423.0
aa(lp907
F404.0
aF422.0
aa(lp908
F404.6666666666667
aF421.3333333333333
aa(lp909
F405.3333333333333
aF420.6666666666667
aa(lp910
F406.0
aF420.0
aa(lp911
F407.0
aF419.0
aa(lp912
F408.0
aF418.0
aa(lp913
F409.0
aF417.0
aa(lp914
F409.5
aF416.0
aa(lp915
F410.0
aF415.0
aa(lp916
F410.75
aF414.5
aa(lp917
F411.5
aF414.0
aa(lp918
F412.25
aF413.5
aa(lp919
F413.0
aF413.0
aa(lp920
F414.0
aF413.0
aa(lp921
F415.0
aF412.0
aa(lp922
F416.0
aF411.5
aa(lp923
F417.0
aF411.0
aa(lp924
F418.0
aF410.0
aa(lp925
F418.6666666666667
aF409.3333333333333
aa(lp926
F419.3333333333333
aF408.6666666666667
aa(lp927
F420.0
aF408.0
aa(lp928
F420.5
aF407.0
aa(lp929
F421.0
aF406.0
aa(lp930
F422.0
aF405.5
aa(lp931
F423.0
aF405.0
aa(lp932
F424.0
aF405.0
aa(lp933
F425.0
aF404.0
aa(lp934
F426.0
aF403.5
aa(lp935
F427.0
aF403.0
aa(lp936
F428.0
aF403.0
aa(lp937
F429.0
aF403.0
aa(lp938
F430.0
aF403.0
aa(lp939
F431.0
aF402.0
aa(lp940
F432.0
aF402.0
aa(lp941
F433.0
aF401.0
aa(lp942
F434.0
aF401.0
aa(lp943
F435.0
aF401.0
aa(lp944
F436.0
aF401.0
aa(lp945
F437.0
aF401.0
aa(lp946
F438.0
aF401.0
aa(lp947
F439.0
aF401.0
aa(lp948
F440.0
aF400.5
aa(lp949
F441.0
aF400.0
aa(lp950
F442.0
aF400.0
aa(lp951
F443.0
aF400.0
aa(lp952
F444.0
aF400.0
aa(lp953
F445.0
aF400.0
aa(lp954
F446.0
aF400.0
aa(lp955
F447.0
aF400.0
aa(lp956
F448.0
aF400.0
aa(lp957
F449.0
aF400.0
aa(lp958
F450.0
aF400.0
aa(lp959
F451.0
aF400.0
aa(lp960
F452.0
aF400.0
aa(lp961
F453.0
aF400.0
aa(lp962
F454.0
aF400.0
aa(lp963
F455.0
aF400.0
aa(lp964
F456.0
aF400.0
aa(lp965
F457.0
aF400.0
aa(lp966
F458.0
aF400.0
aa(lp967
F459.0
aF400.0
aa(lp968
F460.0
aF400.0
aasg362
I8
sg363
F0.3
sa(dp969
g10
I5
sg11
(lp970
(lp971
F350.0
aF467.0
aa(lp972
F350.0
aF466.0
aa(lp973
F349.3333333333333
aF465.3333333333333
aa(lp974
F348.6666666666667
aF464.6666666666667
aa(lp975
F348.0
aF464.0
aa(lp976
F347.0
aF463.5
aa(lp977
F346.0
aF463.0
aa(lp978
F345.0
aF462.5
aa(lp979
F344.0
aF462.0
aa(lp980
F343.5
aF461.25
aa(lp981
F343.0
aF460.5
aa(lp982
F342.5
aF459.75
aa(lp983
F342.0
aF459.0
aa(lp984
F341.3333333333333
aF458.3333333333333
aa(lp985
F340.6666666666667
aF457.6666666666667
aa(lp986
F340.0
aF457.0
aa(lp987
F339.3333333333333
aF456.3333333333333
aa(lp988
F338.6666666666667
aF455.6666666666667
aa(lp989
F338.0
aF455.0
aa(lp990
F337.5
aF454.0
aa(lp991
F337.0
aF453.0
aa(lp992
F336.5
aF452.0
aa(lp993
F336.0
aF451.0
aa(lp994
F335.0
aF450.0
aa(lp995
F334.5
aF449.0
aa(lp996
F334.0
aF448.0
aa(lp997
F333.57142857142856
aF447.14285714285717
aa(lp998
F333.14285714285717
aF446.2857142857143
aa(lp999
F332.7142857142857
aF445.42857142857144
aa(lp1000
F332.2857142857143
aF444.57142857142856
aa(lp1001
F331.85714285714283
aF443.7142857142857
aa(lp1002
F331.42857142857144
aF442.85714285714283
aa(lp1003
F331.0
aF442.0
aa(lp1004
F330.5
aF441.0
aa(lp1005
F330.0
aF440.0
aa(lp1006
F329.25
aF439.25
aa(lp1007
F328.5
aF438.5
aa(lp1008
F327.75
aF437.75
aa(lp1009
F327.0
aF437.0
aa(lp1010
F326.6666666666667
aF436.0
aa(lp1011
F326.3333333333333
aF435.0
aa(lp1012
F326.0
aF434.0
aa(lp1013
F325.6666666666667
aF433.0
aa(lp1014
F325.3333333333333
aF432.0
aa(lp1015
F325.0
aF431.0
aa(lp1016
F324.25
aF430.25
aa(lp1017
F323.5
aF429.5
aa(lp1018
F322.75
aF428.75
aa(lp1019
F322.0
aF428.0
aa(lp1020
F321.6666666666667
aF427.0
aa(lp1021
F321.3333333333333
aF426.0
aa(lp1022
F321.0
aF425.0
aa(lp1023
F320.6666666666667
aF424.0
aa(lp1024
F320.3333333333333
aF423.0
aa(lp1025
F320.0
aF422.0
aa(lp1026
F319.3333333333333
aF421.1666666666667
aa(lp1027
F318.6666666666667
aF420.3333333333333
aa(lp1028
F318.0
aF419.5
aa(lp1029
F317.3333333333333
aF418.6666666666667
aa(lp1030
F316.6666666666667
aF417.8333333333333
aa(lp1031
F316.0
aF417.0
aa(lp1032
F315.5
aF416.1666666666667
aa(lp1033
F315.0
aF415.3333333333333
aa(lp1034
F314.5
aF414.5
aa(lp1035
F314.0
aF413.6666666666667
aa(lp1036
F313.5
aF412.8333333333333
aa(lp1037
F313.0
aF412.0
aa(lp1038
F312.42857142857144
aF411.14285714285717
aa(lp1039
F311.85714285714283
aF410.2857142857143
aa(lp1040
F311.2857142857143
aF409.42857142857144
aa(lp1041
F310.7142857142857
aF408.57142857142856
aa(lp1042
F310.14285714285717
aF407.7142857142857
aa(lp1043
F309.57142857142856
aF406.85714285714283
aa(lp1044
F309.0
aF406.0
aa(lp1045
F308.4
aF405.2
aa(lp1046
F307.8
aF404.4
aa(lp1047
F307.2
aF403.6
aa(lp1048
F306.6
aF402.8
aa(lp1049
F306.0
aF402.0
aa(lp1050
F305.6666666666667
aF401.0
aa(lp1051
F305.3333333333333
aF400.0
aa(lp1052
F305.0
aF399.0
aa(lp1053
F304.6666666666667
aF398.0
aa(lp1054
F304.3333333333333
aF397.0
aa(lp1055
F304.0
aF396.0
aa(lp1056
F303.4
aF395.2
aa(lp1057
F302.8
aF394.4
aa(lp1058
F302.2
aF393.6
aa(lp1059
F301.6
aF392.8
aa(lp1060
F301.0
aF392.0
aa(lp1061
F300.5
aF391.0
aa(lp1062
F300.0
aF390.0
aa(lp1063
F299.8
aF389.0
aa(lp1064
F299.6
aF388.0
aa(lp1065
F299.4
aF387.0
aa(lp1066
F299.2
aF386.0
aa(lp1067
F299.0
aF385.0
aa(lp1068
F298.6666666666667
aF384.0
aa(lp1069
F298.3333333333333
aF383.0
aa(lp1070
F298.0
aF382.0
aa(lp1071
F297.6666666666667
aF381.0
aa(lp1072
F297.3333333333333
aF380.0
aa(lp1073
F297.0
aF379.0
aa(lp1074
F296.5
aF378.0
aa(lp1075
F296.0
aF377.0
aa(lp1076
F295.5
aF376.0
aa(lp1077
F295.0
aF375.0
aa(lp1078
F294.6
aF374.0
aa(lp1079
F294.2
aF373.0
aa(lp1080
F293.8
aF372.0
aa(lp1081
F293.4
aF371.0
aa(lp1082
F293.0
aF370.0
aa(lp1083
F293.0
aF369.0
aa(lp1084
F293.0
aF368.0
aa(lp1085
F293.0
aF367.0
aa(lp1086
F293.0
aF366.0
aa(lp1087
F293.0
aF365.0
aa(lp1088
F293.0
aF364.0
aa(lp1089
F293.0
aF363.0
aa(lp1090
F293.0
aF362.0
aa(lp1091
F293.0
aF361.0
aa(lp1092
F293.0
aF360.0
aa(lp1093
F293.0
aF359.0
aa(lp1094
F293.0
aF358.0
aa(lp1095
F293.0
aF357.0
aa(lp1096
F293.0
aF356.0
aa(lp1097
F293.0
aF355.0
aa(lp1098
F293.0
aF354.0
aa(lp1099
F293.0
aF353.0
aa(lp1100
F293.0
aF352.0
aa(lp1101
F293.0
aF351.0
aa(lp1102
F293.0
aF350.0
aa(lp1103
F293.0
aF349.0
aa(lp1104
F293.0
aF348.0
aa(lp1105
F293.0
aF347.0
aa(lp1106
F293.0
aF346.0
aa(lp1107
F293.0
aF345.0
aa(lp1108
F293.0
aF344.0
aa(lp1109
F293.0
aF343.0
aa(lp1110
F293.0
aF342.0
aa(lp1111
F293.0
aF341.0
aa(lp1112
F293.0
aF340.0
aa(lp1113
F293.0
aF339.0
aa(lp1114
F293.1666666666667
aF338.0
aa(lp1115
F293.3333333333333
aF337.0
aa(lp1116
F293.5
aF336.0
aa(lp1117
F293.6666666666667
aF335.0
aa(lp1118
F293.8333333333333
aF334.0
aa(lp1119
F294.0
aF333.0
aa(lp1120
F294.5
aF332.25
aa(lp1121
F295.0
aF331.5
aa(lp1122
F295.5
aF330.75
aa(lp1123
F296.0
aF330.0
aa(lp1124
F296.4
aF329.0
aa(lp1125
F296.8
aF328.0
aa(lp1126
F297.2
aF327.0
aa(lp1127
F297.6
aF326.0
aa(lp1128
F298.0
aF325.0
aa(lp1129
F298.3333333333333
aF324.0
aa(lp1130
F298.6666666666667
aF323.0
aa(lp1131
F299.0
aF322.0
aa(lp1132
F299.3333333333333
aF321.0
aa(lp1133
F299.6666666666667
aF320.0
aa(lp1134
F300.0
aF319.0
aa(lp1135
F300.5
aF318.0
aa(lp1136
F301.0
aF317.0
aa(lp1137
F301.5
aF316.0
aa(lp1138
F302.0
aF315.0
aa(lp1139
F302.5
aF314.25
aa(lp1140
F303.0
aF313.5
aa(lp1141
F303.5
aF312.75
aa(lp1142
F304.0
aF312.0
aa(lp1143
F304.5
aF311.1666666666667
aa(lp1144
F305.0
aF310.3333333333333
aa(lp1145
F305.5
aF309.5
aa(lp1146
F306.0
aF308.6666666666667
aa(lp1147
F306.5
aF307.8333333333333
aa(lp1148
F307.0
aF307.0
aa(lp1149
F307.8
aF306.4
aa(lp1150
F308.6
aF305.8
aa(lp1151
F309.4
aF305.2
aa(lp1152
F310.2
aF304.6
aa(lp1153
F311.0
aF304.0
aa(lp1154
F311.6666666666667
aF303.3333333333333
aa(lp1155
F312.3333333333333
aF302.6666666666667
aa(lp1156
F313.0
aF302.0
aa(lp1157
F313.6666666666667
aF301.3333333333333
aa(lp1158
F314.3333333333333
aF300.6666666666667
aa(lp1159
F315.0
aF300.0
aa(lp1160
F315.6
aF299.2
aa(lp1161
F316.2
aF298.4
aa(lp1162
F316.8
aF297.6
aa(lp1163
F317.4
aF296.8
aa(lp1164
F318.0
aF296.0
aa(lp1165
F319.0
aF295.5
aa(lp1166
F320.0
aF295.0
aa(lp1167
F321.0
aF294.5
aa(lp1168
F322.0
aF294.0
aa(lp1169
F322.8333333333333
aF293.5
aa(lp1170
F323.6666666666667
aF293.0
aa(lp1171
F324.5
aF292.5
aa(lp1172
F325.3333333333333
aF292.0
aa(lp1173
F326.1666666666667
aF291.5
aa(lp1174
F327.0
aF291.0
aa(lp1175
F327.75
aF290.375
aa(lp1176
F328.5
aF289.75
aa(lp1177
F329.25
aF289.125
aa(lp1178
F330.0
aF288.5
aa(lp1179
F330.75
aF287.875
aa(lp1180
F331.5
aF287.25
aa(lp1181
F332.25
aF286.625
aa(lp1182
F333.0
aF286.0
aa(lp1183
F333.8333333333333
aF285.5
aa(lp1184
F334.6666666666667
aF285.0
aa(lp1185
F335.5
aF284.5
aa(lp1186
F336.3333333333333
aF284.0
aa(lp1187
F337.1666666666667
aF283.5
aa(lp1188
F338.0
aF283.0
aa(lp1189
F339.0
aF282.75
aa(lp1190
F340.0
aF282.5
aa(lp1191
F341.0
aF282.25
aa(lp1192
F342.0
aF282.0
aa(lp1193
F342.8333333333333
aF281.5
aa(lp1194
F343.6666666666667
aF281.0
aa(lp1195
F344.5
aF280.5
aa(lp1196
F345.3333333333333
aF280.0
aa(lp1197
F346.1666666666667
aF279.5
aa(lp1198
F347.0
aF279.0
aa(lp1199
F348.0
aF278.5
aa(lp1200
F349.0
aF278.0
aa(lp1201
F350.0
aF278.0
aa(lp1202
F351.0
aF278.0
aa(lp1203
F352.0
aF278.0
aa(lp1204
F353.0
aF277.8
aa(lp1205
F354.0
aF277.6
aa(lp1206
F355.0
aF277.4
aa(lp1207
F356.0
aF277.2
aa(lp1208
F357.0
aF277.0
aa(lp1209
F358.0
aF277.0
aa(lp1210
F359.0
aF277.0
aa(lp1211
F360.0
aF277.0
aa(lp1212
F361.0
aF277.0
aa(lp1213
F362.0
aF277.0
aa(lp1214
F363.0
aF277.0
aa(lp1215
F364.0
aF277.0
aa(lp1216
F365.0
aF277.0
aa(lp1217
F366.0
aF277.0
aa(lp1218
F367.0
aF277.0
aa(lp1219
F368.0
aF277.0
aa(lp1220
F369.0
aF277.0
aa(lp1221
F370.0
aF277.0
aa(lp1222
F371.0
aF277.0
aa(lp1223
F372.0
aF277.0
aa(lp1224
F373.0
aF277.0
aa(lp1225
F374.0
aF277.0
aa(lp1226
F375.0
aF277.0
aa(lp1227
F376.0
aF277.0
aa(lp1228
F377.0
aF277.0
aa(lp1229
F378.0
aF277.0
aa(lp1230
F379.0
aF277.0
aa(lp1231
F380.0
aF277.0
aa(lp1232
F381.0
aF277.0
aa(lp1233
F382.0
aF277.0
aa(lp1234
F383.0
aF277.0
aa(lp1235
F384.0
aF277.0
aa(lp1236
F385.0
aF277.0
aa(lp1237
F386.0
aF277.0
aa(lp1238
F387.0
aF277.0
aa(lp1239
F388.0
aF277.0
aa(lp1240
F389.0
aF277.0
aa(lp1241
F390.0
aF277.0
aa(lp1242
F391.0
aF277.0
aa(lp1243
F392.0
aF277.0
aa(lp1244
F393.0
aF277.0
aa(lp1245
F394.0
aF277.0
aa(lp1246
F395.0
aF277.0
aa(lp1247
F396.0
aF277.0
aa(lp1248
F397.0
aF277.0
aa(lp1249
F397.75
aF277.75
aa(lp1250
F398.5
aF278.5
aa(lp1251
F399.25
aF279.25
aa(lp1252
F400.0
aF280.0
aa(lp1253
F401.0
aF280.3333333333333
aa(lp1254
F402.0
aF280.6666666666667
aa(lp1255
F403.0
aF281.0
aa(lp1256
F404.0
aF282.0
aa(lp1257
F404.6666666666667
aF282.6666666666667
aa(lp1258
F405.3333333333333
aF283.3333333333333
aa(lp1259
F406.0
aF284.0
aa(lp1260
F407.0
aF284.5
aa(lp1261
F408.0
aF285.0
aa(lp1262
F409.0
aF285.5
aa(lp1263
F410.0
aF286.0
aa(lp1264
F411.0
aF286.5
aa(lp1265
F412.0
aF287.0
aa(lp1266
F412.5
aF287.75
aa(lp1267
F413.0
aF288.5
aa(lp1268
F413.5
aF289.25
aa(lp1269
F414.0
aF290.0
aa(lp1270
F414.75
aF290.75
aa(lp1271
F415.5
aF291.5
aa(lp1272
F416.25
aF292.25
aa(lp1273
F417.0
aF293.0
aa(lp1274
F417.0
aF294.0
aa(lp1275
F417.6
aF294.8
aa(lp1276
F418.2
aF295.6
aa(lp1277
F418.8
aF296.4
aa(lp1278
F419.4
aF297.2
aa(lp1279
F420.0
aF298.0
aa(lp1280
F420.75
aF298.75
aa(lp1281
F421.5
aF299.5
aa(lp1282
F422.25
aF300.25
aa(lp1283
F423.0
aF301.0
aa(lp1284
F424.0
aF301.0
aa(lp1285
F425.0
aF301.0
aa(lp1286
F425.8
aF301.6
aa(lp1287
F426.6
aF302.2
aa(lp1288
F427.4
aF302.8
aa(lp1289
F428.2
aF303.4
aa(lp1290
F429.0
aF304.0
aa(lp1291
F429.75
aF304.75
aa(lp1292
F430.5
aF305.5
aa(lp1293
F431.25
aF306.25
aa(lp1294
F432.0
aF307.0
aa(lp1295
F433.0
aF308.0
aa(lp1296
F434.0
aF308.5
aa(lp1297
F435.0
aF309.0
aa(lp1298
F435.6666666666667
aF309.6666666666667
aa(lp1299
F436.3333333333333
aF310.3333333333333
aa(lp1300
F437.0
aF311.0
aa(lp1301
F438.0
aF311.3333333333333
aa(lp1302
F439.0
aF311.6666666666667
aa(lp1303
F440.0
aF312.0
aa(lp1304
F441.0
aF312.5
aa(lp1305
F442.0
aF313.0
aa(lp1306
F443.0
aF314.0
aa(lp1307
F443.8
aF314.6
aa(lp1308
F444.6
aF315.2
aa(lp1309
F445.4
aF315.8
aa(lp1310
F446.2
aF316.4
aa(lp1311
F447.0
aF317.0
aa(lp1312
F448.0
aF318.0
aa(lp1313
F449.0
aF318.5
aa(lp1314
F450.0
aF319.0
aa(lp1315
F451.0
aF319.5
aa(lp1316
F452.0
aF320.0
aa(lp1317
F453.0
aF320.5
aa(lp1318
F454.0
aF321.0
aa(lp1319
F455.0
aF321.5
aa(lp1320
F456.0
aF322.0
aa(lp1321
F457.0
aF323.0
aa(lp1322
F457.5
aF324.0
aa(lp1323
F458.0
aF325.0
aa(lp1324
F459.0
aF325.5
aa(lp1325
F460.0
aF326.0
aa(lp1326
F460.75
aF326.5
aa(lp1327
F461.5
aF327.0
aa(lp1328
F462.25
aF327.5
aa(lp1329
F463.0
aF328.0
aa(lp1330
F464.0
aF329.0
aasg362
I8
sg363
F0.3
sa(dp1331
g10
I5
sg11
(lp1332
(lp1333
F354.0
aF498.0
aa(lp1334
F353.0
aF498.0
aa(lp1335
F352.0
aF498.0
aa(lp1336
F351.0
aF498.0
aa(lp1337
F350.0
aF498.0
aa(lp1338
F349.0
aF498.0
aa(lp1339
F348.0
aF498.0
aa(lp1340
F347.0
aF498.0
aa(lp1341
F346.0
aF498.0
aa(lp1342
F345.0
aF498.0
aa(lp1343
F344.0
aF498.0
aa(lp1344
F343.0
aF498.0
aa(lp1345
F342.0
aF498.0
aa(lp1346
F341.0
aF497.6
aa(lp1347
F340.0
aF497.2
aa(lp1348
F339.0
aF496.8
aa(lp1349
F338.0
aF496.4
aa(lp1350
F337.0
aF496.0
aa(lp1351
F336.0
aF495.72727272727275
aa(lp1352
F335.0
aF495.45454545454544
aa(lp1353
F334.0
aF495.1818181818182
aa(lp1354
F333.0
aF494.90909090909093
aa(lp1355
F332.0
aF494.6363636363636
aa(lp1356
F331.0
aF494.3636363636364
aa(lp1357
F330.0
aF494.09090909090907
aa(lp1358
F329.0
aF493.8181818181818
aa(lp1359
F328.0
aF493.54545454545456
aa(lp1360
F327.0
aF493.27272727272725
aa(lp1361
F326.0
aF493.0
aa(lp1362
F325.1
aF492.6
aa(lp1363
F324.2
aF492.2
aa(lp1364
F323.3
aF491.8
aa(lp1365
F322.4
aF491.4
aa(lp1366
F321.5
aF491.0
aa(lp1367
F320.6
aF490.6
aa(lp1368
F319.7
aF490.2
aa(lp1369
F318.8
aF489.8
aa(lp1370
F317.9
aF489.4
aa(lp1371
F317.0
aF489.0
aa(lp1372
F316.1
aF488.5
aa(lp1373
F315.2
aF488.0
aa(lp1374
F314.3
aF487.5
aa(lp1375
F313.4
aF487.0
aa(lp1376
F312.5
aF486.5
aa(lp1377
F311.6
aF486.0
aa(lp1378
F310.7
aF485.5
aa(lp1379
F309.8
aF485.0
aa(lp1380
F308.9
aF484.5
aa(lp1381
F308.0
aF484.0
aa(lp1382
F307.0
aF483.8
aa(lp1383
F306.0
aF483.6
aa(lp1384
F305.0
aF483.4
aa(lp1385
F304.0
aF483.2
aa(lp1386
F303.0
aF483.0
aa(lp1387
F302.22222222222223
aF482.3333333333333
aa(lp1388
F301.44444444444446
aF481.6666666666667
aa(lp1389
F300.6666666666667
aF481.0
aa(lp1390
F299.8888888888889
aF480.3333333333333
aa(lp1391
F299.1111111111111
aF479.6666666666667
aa(lp1392
F298.3333333333333
aF479.0
aa(lp1393
F297.55555555555554
aF478.3333333333333
aa(lp1394
F296.77777777777777
aF477.6666666666667
aa(lp1395
F296.0
aF477.0
aa(lp1396
F295.14285714285717
aF476.57142857142856
aa(lp1397
F294.2857142857143
aF476.14285714285717
aa(lp1398
F293.42857142857144
aF475.7142857142857
aa(lp1399
F292.57142857142856
aF475.2857142857143
aa(lp1400
F291.7142857142857
aF474.85714285714283
aa(lp1401
F290.85714285714283
aF474.42857142857144
aa(lp1402
F290.0
aF474.0
aa(lp1403
F289.2857142857143
aF473.2857142857143
aa(lp1404
F288.57142857142856
aF472.57142857142856
aa(lp1405
F287.85714285714283
aF471.85714285714283
aa(lp1406
F287.14285714285717
aF471.14285714285717
aa(lp1407
F286.42857142857144
aF470.42857142857144
aa(lp1408
F285.7142857142857
aF469.7142857142857
aa(lp1409
F285.0
aF469.0
aa(lp1410
F284.3333333333333
aF468.3333333333333
aa(lp1411
F283.6666666666667
aF467.6666666666667
aa(lp1412
F283.0
aF467.0
aa(lp1413
F282.3333333333333
aF466.3333333333333
aa(lp1414
F281.6666666666667
aF465.6666666666667
aa(lp1415
F281.0
aF465.0
aa(lp1416
F280.27272727272725
aF464.3636363636364
aa(lp1417
F279.54545454545456
aF463.72727272727275
aa(lp1418
F278.8181818181818
aF463.09090909090907
aa(lp1419
F278.09090909090907
aF462.45454545454544
aa(lp1420
F277.3636363636364
aF461.8181818181818
aa(lp1421
F276.6363636363636
aF461.1818181818182
aa(lp1422
F275.90909090909093
aF460.54545454545456
aa(lp1423
F275.1818181818182
aF459.90909090909093
aa(lp1424
F274.45454545454544
aF459.27272727272725
aa(lp1425
F273.72727272727275
aF458.6363636363636
aa(lp1426
F273.0
aF458.0
aa(lp1427
F272.3333333333333
aF457.3333333333333
aa(lp1428
F271.6666666666667
aF456.6666666666667
aa(lp1429
F271.0
aF456.0
aa(lp1430
F270.3333333333333
aF455.3333333333333
aa(lp1431
F269.6666666666667
aF454.6666666666667
aa(lp1432
F269.0
aF454.0
aa(lp1433
F268.25
aF453.25
aa(lp1434
F267.5
aF452.5
aa(lp1435
F266.75
aF451.75
aa(lp1436
F266.0
aF451.0
aa(lp1437
F265.25
aF450.25
aa(lp1438
F264.5
aF449.5
aa(lp1439
F263.75
aF448.75
aa(lp1440
F263.0
aF448.0
aa(lp1441
F262.25
aF447.25
aa(lp1442
F261.5
aF446.5
aa(lp1443
F260.75
aF445.75
aa(lp1444
F260.0
aF445.0
aa(lp1445
F259.25
aF444.25
aa(lp1446
F258.5
aF443.5
aa(lp1447
F257.75
aF442.75
aa(lp1448
F257.0
aF442.0
aa(lp1449
F256.2857142857143
aF441.2857142857143
aa(lp1450
F255.57142857142858
aF440.57142857142856
aa(lp1451
F254.85714285714286
aF439.85714285714283
aa(lp1452
F254.14285714285714
aF439.14285714285717
aa(lp1453
F253.42857142857142
aF438.42857142857144
aa(lp1454
F252.71428571428572
aF437.7142857142857
aa(lp1455
F252.0
aF437.0
aa(lp1456
F251.375
aF436.25
aa(lp1457
F250.75
aF435.5
aa(lp1458
F250.125
aF434.75
aa(lp1459
F249.5
aF434.0
aa(lp1460
F248.875
aF433.25
aa(lp1461
F248.25
aF432.5
aa(lp1462
F247.625
aF431.75
aa(lp1463
F247.0
aF431.0
aa(lp1464
F246.3
aF430.3
aa(lp1465
F245.6
aF429.6
aa(lp1466
F244.9
aF428.9
aa(lp1467
F244.2
aF428.2
aa(lp1468
F243.5
aF427.5
aa(lp1469
F242.8
aF426.8
aa(lp1470
F242.1
aF426.1
aa(lp1471
F241.4
aF425.4
aa(lp1472
F240.7
aF424.7
aa(lp1473
F240.0
aF424.0
aa(lp1474
F239.5
aF423.1
aa(lp1475
F239.0
aF422.2
aa(lp1476
F238.5
aF421.3
aa(lp1477
F238.0
aF420.4
aa(lp1478
F237.5
aF419.5
aa(lp1479
F237.0
aF418.6
aa(lp1480
F236.5
aF417.7
aa(lp1481
F236.0
aF416.8
aa(lp1482
F235.5
aF415.9
aa(lp1483
F235.0
aF415.0
aa(lp1484
F234.44444444444446
aF414.22222222222223
aa(lp1485
F233.88888888888889
aF413.44444444444446
aa(lp1486
F233.33333333333334
aF412.6666666666667
aa(lp1487
F232.77777777777777
aF411.8888888888889
aa(lp1488
F232.22222222222223
aF411.1111111111111
aa(lp1489
F231.66666666666666
aF410.3333333333333
aa(lp1490
F231.11111111111111
aF409.55555555555554
aa(lp1491
F230.55555555555554
aF408.77777777777777
aa(lp1492
F230.0
aF408.0
aa(lp1493
F229.45454545454547
aF407.1818181818182
aa(lp1494
F228.9090909090909
aF406.3636363636364
aa(lp1495
F228.36363636363637
aF405.54545454545456
aa(lp1496
F227.8181818181818
aF404.72727272727275
aa(lp1497
F227.27272727272728
aF403.90909090909093
aa(lp1498
F226.72727272727272
aF403.09090909090907
aa(lp1499
F226.1818181818182
aF402.27272727272725
aa(lp1500
F225.63636363636363
aF401.45454545454544
aa(lp1501
F225.0909090909091
aF400.6363636363636
aa(lp1502
F224.54545454545453
aF399.8181818181818
aa(lp1503
F224.0
aF399.0
aa(lp1504
F223.5
aF398.125
aa(lp1505
F223.0
aF397.25
aa(lp1506
F222.5
aF396.375
aa(lp1507
F222.0
aF395.5
aa(lp1508
F221.5
aF394.625
aa(lp1509
F221.0
aF393.75
aa(lp1510
F220.5
aF392.875
aa(lp1511
F220.0
aF392.0
aa(lp1512
F219.66666666666666
aF391.0
aa(lp1513
F219.33333333333334
aF390.0
aa(lp1514
F219.0
aF389.0
aa(lp1515
F218.66666666666666
aF388.0
aa(lp1516
F218.33333333333334
aF387.0
aa(lp1517
F218.0
aF386.0
aa(lp1518
F217.66666666666666
aF385.0
aa(lp1519
F217.33333333333334
aF384.0
aa(lp1520
F217.0
aF383.0
aa(lp1521
F216.77777777777777
aF382.0
aa(lp1522
F216.55555555555554
aF381.0
aa(lp1523
F216.33333333333334
aF380.0
aa(lp1524
F216.11111111111111
aF379.0
aa(lp1525
F215.88888888888889
aF378.0
aa(lp1526
F215.66666666666666
aF377.0
aa(lp1527
F215.44444444444446
aF376.0
aa(lp1528
F215.22222222222223
aF375.0
aa(lp1529
F215.0
aF374.0
aa(lp1530
F214.875
aF373.0
aa(lp1531
F214.75
aF372.0
aa(lp1532
F214.625
aF371.0
aa(lp1533
F214.5
aF370.0
aa(lp1534
F214.375
aF369.0
aa(lp1535
F214.25
aF368.0
aa(lp1536
F214.125
aF367.0
aa(lp1537
F214.0
aF366.0
aa(lp1538
F213.66666666666666
aF365.0
aa(lp1539
F213.33333333333334
aF364.0
aa(lp1540
F213.0
aF363.0
aa(lp1541
F212.66666666666666
aF362.0
aa(lp1542
F212.33333333333334
aF361.0
aa(lp1543
F212.0
aF360.0
aa(lp1544
F211.66666666666666
aF359.0
aa(lp1545
F211.33333333333334
aF358.0
aa(lp1546
F211.0
aF357.0
aa(lp1547
F210.83333333333334
aF356.0
aa(lp1548
F210.66666666666666
aF355.0
aa(lp1549
F210.5
aF354.0
aa(lp1550
F210.33333333333334
aF353.0
aa(lp1551
F210.16666666666666
aF352.0
aa(lp1552
F210.0
aF351.0
aa(lp1553
F210.0
aF350.0
aa(lp1554
F210.0
aF349.0
aa(lp1555
F210.0
aF348.0
aa(lp1556
F209.66666666666666
aF347.0
aa(lp1557
F209.33333333333334
aF346.0
aa(lp1558
F209.0
aF345.0
aa(lp1559
F208.66666666666666
aF344.0
aa(lp1560
F208.33333333333334
aF343.0
aa(lp1561
F208.0
aF342.0
aa(lp1562
F208.0
aF341.0
aa(lp1563
F208.0
aF340.0
aa(lp1564
F208.0
aF339.0
aa(lp1565
F208.0
aF338.0
aa(lp1566
F207.8
aF337.0
aa(lp1567
F207.6
aF336.0
aa(lp1568
F207.4
aF335.0
aa(lp1569
F207.2
aF334.0
aa(lp1570
F207.0
aF333.0
aa(lp1571
F207.0
aF332.0
aa(lp1572
F207.0
aF331.0
aa(lp1573
F207.0
aF330.0
aa(lp1574
F207.0
aF329.0
aa(lp1575
F207.0
aF328.0
aa(lp1576
F207.0
aF327.0
aa(lp1577
F207.0
aF326.0
aa(lp1578
F207.0
aF325.0
aa(lp1579
F207.0
aF324.0
aa(lp1580
F207.0
aF323.0
aa(lp1581
F207.5
aF322.0
aa(lp1582
F208.0
aF321.0
aa(lp1583
F208.5
aF320.0
aa(lp1584
F209.0
aF319.0
aa(lp1585
F209.375
aF318.125
aa(lp1586
F209.75
aF317.25
aa(lp1587
F210.125
aF316.375
aa(lp1588
F210.5
aF315.5
aa(lp1589
F210.875
aF314.625
aa(lp1590
F211.25
aF313.75
aa(lp1591
F211.625
aF312.875
aa(lp1592
F212.0
aF312.0
aa(lp1593
F212.66666666666666
aF311.1666666666667
aa(lp1594
F213.33333333333334
aF310.3333333333333
aa(lp1595
F214.0
aF309.5
aa(lp1596
F214.66666666666666
aF308.6666666666667
aa(lp1597
F215.33333333333334
aF307.8333333333333
aa(lp1598
F216.0
aF307.0
aa(lp1599
F216.6
aF306.2
aa(lp1600
F217.2
aF305.4
aa(lp1601
F217.8
aF304.6
aa(lp1602
F218.4
aF303.8
aa(lp1603
F219.0
aF303.0
aa(lp1604
F219.75
aF302.25
aa(lp1605
F220.5
aF301.5
aa(lp1606
F221.25
aF300.75
aa(lp1607
F222.0
aF300.0
aa(lp1608
F222.75
aF299.25
aa(lp1609
F223.5
aF298.5
aa(lp1610
F224.25
aF297.75
aa(lp1611
F225.0
aF297.0
aa(lp1612
F225.85714285714286
aF296.42857142857144
aa(lp1613
F226.71428571428572
aF295.85714285714283
aa(lp1614
F227.57142857142858
aF295.2857142857143
aa(lp1615
F228.42857142857142
aF294.7142857142857
aa(lp1616
F229.28571428571428
aF294.14285714285717
aa(lp1617
F230.14285714285714
aF293.57142857142856
aa(lp1618
F231.0
aF293.0
aa(lp1619
F231.85714285714286
aF292.42857142857144
aa(lp1620
F232.71428571428572
aF291.85714285714283
aa(lp1621
F233.57142857142858
aF291.2857142857143
aa(lp1622
F234.42857142857142
aF290.7142857142857
aa(lp1623
F235.28571428571428
aF290.14285714285717
aa(lp1624
F236.14285714285714
aF289.57142857142856
aa(lp1625
F237.0
aF289.0
aa(lp1626
F237.875
aF288.5
aa(lp1627
F238.75
aF288.0
aa(lp1628
F239.625
aF287.5
aa(lp1629
F240.5
aF287.0
aa(lp1630
F241.375
aF286.5
aa(lp1631
F242.25
aF286.0
aa(lp1632
F243.125
aF285.5
aa(lp1633
F244.0
aF285.0
aa(lp1634
F244.77777777777777
aF284.3333333333333
aa(lp1635
F245.55555555555554
aF283.6666666666667
aa(lp1636
F246.33333333333334
aF283.0
aa(lp1637
F247.11111111111111
aF282.3333333333333
aa(lp1638
F247.88888888888889
aF281.6666666666667
aa(lp1639
F248.66666666666666
aF281.0
aa(lp1640
F249.44444444444446
aF280.3333333333333
aa(lp1641
F250.22222222222223
aF279.6666666666667
aa(lp1642
F251.0
aF279.0
aa(lp1643
F251.83333333333334
aF278.3333333333333
aa(lp1644
F252.66666666666666
aF277.6666666666667
aa(lp1645
F253.5
aF277.0
aa(lp1646
F254.33333333333334
aF276.3333333333333
aa(lp1647
F255.16666666666666
aF275.6666666666667
aa(lp1648
F256.0
aF275.0
aa(lp1649
F256.77777777777777
aF274.44444444444446
aa(lp1650
F257.55555555555554
aF273.8888888888889
aa(lp1651
F258.3333333333333
aF273.3333333333333
aa(lp1652
F259.1111111111111
aF272.77777777777777
aa(lp1653
F259.8888888888889
aF272.22222222222223
aa(lp1654
F260.6666666666667
aF271.6666666666667
aa(lp1655
F261.44444444444446
aF271.1111111111111
aa(lp1656
F262.22222222222223
aF270.55555555555554
aa(lp1657
F263.0
aF270.0
aa(lp1658
F263.8333333333333
aF269.5
aa(lp1659
F264.6666666666667
aF269.0
aa(lp1660
F265.5
aF268.5
aa(lp1661
F266.3333333333333
aF268.0
aa(lp1662
F267.1666666666667
aF267.5
aa(lp1663
F268.0
aF267.0
aa(lp1664
F268.75
aF266.375
aa(lp1665
F269.5
aF265.75
aa(lp1666
F270.25
aF265.125
aa(lp1667
F271.0
aF264.5
aa(lp1668
F271.75
aF263.875
aa(lp1669
F272.5
aF263.25
aa(lp1670
F273.25
aF262.625
aa(lp1671
F274.0
aF262.0
aa(lp1672
F274.85714285714283
aF261.57142857142856
aa(lp1673
F275.7142857142857
aF261.14285714285717
aa(lp1674
F276.57142857142856
aF260.7142857142857
aa(lp1675
F277.42857142857144
aF260.2857142857143
aa(lp1676
F278.2857142857143
aF259.85714285714283
aa(lp1677
F279.14285714285717
aF259.42857142857144
aa(lp1678
F280.0
aF259.0
aa(lp1679
F280.75
aF258.5
aa(lp1680
F281.5
aF258.0
aa(lp1681
F282.25
aF257.5
aa(lp1682
F283.0
aF257.0
aa(lp1683
F283.875
aF256.5
aa(lp1684
F284.75
aF256.0
aa(lp1685
F285.625
aF255.5
aa(lp1686
F286.5
aF255.0
aa(lp1687
F287.375
aF254.5
aa(lp1688
F288.25
aF254.0
aa(lp1689
F289.125
aF253.5
aa(lp1690
F290.0
aF253.0
aa(lp1691
F290.8888888888889
aF252.66666666666666
aa(lp1692
F291.77777777777777
aF252.33333333333334
aa(lp1693
F292.6666666666667
aF252.0
aa(lp1694
F293.55555555555554
aF251.66666666666666
aa(lp1695
F294.44444444444446
aF251.33333333333334
aa(lp1696
F295.3333333333333
aF251.0
aa(lp1697
F296.22222222222223
aF250.66666666666666
aa(lp1698
F297.1111111111111
aF250.33333333333334
aa(lp1699
F298.0
aF250.0
aa(lp1700
F299.0
aF249.6
aa(lp1701
F300.0
aF249.2
aa(lp1702
F301.0
aF248.8
aa(lp1703
F302.0
aF248.4
aa(lp1704
F303.0
aF248.0
aa(lp1705
F304.0
aF247.6
aa(lp1706
F305.0
aF247.2
aa(lp1707
F306.0
aF246.8
aa(lp1708
F307.0
aF246.4
aa(lp1709
F308.0
aF246.0
aa(lp1710
F309.0
aF245.77777777777777
aa(lp1711
F310.0
aF245.55555555555554
aa(lp1712
F311.0
aF245.33333333333334
aa(lp1713
F312.0
aF245.11111111111111
aa(lp1714
F313.0
aF244.88888888888889
aa(lp1715
F314.0
aF244.66666666666666
aa(lp1716
F315.0
aF244.44444444444446
aa(lp1717
F316.0
aF244.22222222222223
aa(lp1718
F317.0
aF244.0
aa(lp1719
F318.0
aF243.66666666666666
aa(lp1720
F319.0
aF243.33333333333334
aa(lp1721
F320.0
aF243.0
aa(lp1722
F321.0
aF242.66666666666666
aa(lp1723
F322.0
aF242.33333333333334
aa(lp1724
F323.0
aF242.0
aa(lp1725
F324.0
aF241.85714285714286
aa(lp1726
F325.0
aF241.71428571428572
aa(lp1727
F326.0
aF241.57142857142858
aa(lp1728
F327.0
aF241.42857142857142
aa(lp1729
F328.0
aF241.28571428571428
aa(lp1730
F329.0
aF241.14285714285714
aa(lp1731
F330.0
aF241.0
aa(lp1732
F331.0
aF240.5
aa(lp1733
F332.0
aF240.0
aa(lp1734
F333.0
aF239.5
aa(lp1735
F334.0
aF239.0
aa(lp1736
F335.0
aF238.8
aa(lp1737
F336.0
aF238.6
aa(lp1738
F337.0
aF238.4
aa(lp1739
F338.0
aF238.2
aa(lp1740
F339.0
aF238.0
aa(lp1741
F340.0
aF238.0
aa(lp1742
F341.0
aF238.0
aa(lp1743
F342.0
aF238.0
aa(lp1744
F343.0
aF238.0
aa(lp1745
F344.0
aF238.0
aa(lp1746
F345.0
aF238.0
aa(lp1747
F346.0
aF238.0
aa(lp1748
F347.0
aF238.0
aa(lp1749
F348.0
aF238.0
aa(lp1750
F349.0
aF238.0
aa(lp1751
F350.0
aF238.0
aa(lp1752
F351.0
aF238.0
aa(lp1753
F352.0
aF238.0
aa(lp1754
F353.0
aF238.0
aa(lp1755
F354.0
aF238.0
aa(lp1756
F355.0
aF238.0
aa(lp1757
F356.0
aF238.0
aa(lp1758
F357.0
aF238.0
aa(lp1759
F358.0
aF238.0
aa(lp1760
F359.0
aF238.0
aa(lp1761
F360.0
aF238.0
aa(lp1762
F361.0
aF238.0
aa(lp1763
F362.0
aF238.0
aa(lp1764
F363.0
aF238.0
aa(lp1765
F364.0
aF238.0
aa(lp1766
F365.0
aF238.0
aa(lp1767
F366.0
aF238.0
aa(lp1768
F367.0
aF238.0
aa(lp1769
F368.0
aF238.0
aa(lp1770
F369.0
aF238.0
aa(lp1771
F370.0
aF238.0
aa(lp1772
F371.0
aF238.0
aa(lp1773
F372.0
aF238.0
aa(lp1774
F373.0
aF238.0
aa(lp1775
F374.0
aF238.0
aa(lp1776
F375.0
aF238.0
aa(lp1777
F376.0
aF238.0
aa(lp1778
F377.0
aF238.0
aa(lp1779
F378.0
aF238.0
aa(lp1780
F379.0
aF238.0
aa(lp1781
F380.0
aF238.0
aa(lp1782
F381.0
aF238.0
aa(lp1783
F382.0
aF238.0
aa(lp1784
F383.0
aF238.0
aa(lp1785
F384.0
aF238.0
aa(lp1786
F385.0
aF238.0
aa(lp1787
F386.0
aF238.0
aa(lp1788
F387.0
aF238.0
aa(lp1789
F388.0
aF238.0
aa(lp1790
F389.0
aF238.0
aa(lp1791
F390.0
aF238.0
aa(lp1792
F391.0
aF238.0
aa(lp1793
F392.0
aF238.0
aa(lp1794
F393.0
aF238.0
aa(lp1795
F394.0
aF238.0
aa(lp1796
F395.0
aF238.0
aa(lp1797
F396.0
aF238.0
aa(lp1798
F397.0
aF238.0
aa(lp1799
F398.0
aF238.0
aa(lp1800
F399.0
aF238.0
aa(lp1801
F400.0
aF238.0
aa(lp1802
F401.0
aF238.0
aa(lp1803
F402.0
aF238.33333333333334
aa(lp1804
F403.0
aF238.66666666666666
aa(lp1805
F404.0
aF239.0
aa(lp1806
F405.0
aF239.25
aa(lp1807
F406.0
aF239.5
aa(lp1808
F407.0
aF239.75
aa(lp1809
F408.0
aF240.0
aa(lp1810
F409.0
aF240.4
aa(lp1811
F410.0
aF240.8
aa(lp1812
F411.0
aF241.2
aa(lp1813
F412.0
aF241.6
aa(lp1814
F413.0
aF242.0
aa(lp1815
F414.0
aF242.33333333333334
aa(lp1816
F415.0
aF242.66666666666666
aa(lp1817
F416.0
aF243.0
aa(lp1818
F417.0
aF243.33333333333334
aa(lp1819
F418.0
aF243.66666666666666
aa(lp1820
F419.0
aF244.0
aa(lp1821
F419.75
aF244.75
aa(lp1822
F420.5
aF245.5
aa(lp1823
F421.25
aF246.25
aa(lp1824
F422.0
aF247.0
aa(lp1825
F422.875
aF247.5
aa(lp1826
F423.75
aF248.0
aa(lp1827
F424.625
aF248.5
aa(lp1828
F425.5
aF249.0
aa(lp1829
F426.375
aF249.5
aa(lp1830
F427.25
aF250.0
aa(lp1831
F428.125
aF250.5
aa(lp1832
F429.0
aF251.0
aa(lp1833
F429.75
aF251.75
aa(lp1834
F430.5
aF252.5
aa(lp1835
F431.25
aF253.25
aa(lp1836
F432.0
aF254.0
aa(lp1837
F432.75
aF254.75
aa(lp1838
F433.5
aF255.5
aa(lp1839
F434.25
aF256.25
aa(lp1840
F435.0
aF257.0
aa(lp1841
F435.6666666666667
aF257.6666666666667
aa(lp1842
F436.3333333333333
aF258.3333333333333
aa(lp1843
F437.0
aF259.0
aa(lp1844
F437.6
aF259.8
aa(lp1845
F438.2
aF260.6
aa(lp1846
F438.8
aF261.4
aa(lp1847
F439.4
aF262.2
aa(lp1848
F440.0
aF263.0
aa(lp1849
F440.8
aF263.6
aa(lp1850
F441.6
aF264.2
aa(lp1851
F442.4
aF264.8
aa(lp1852
F443.2
aF265.4
aa(lp1853
F444.0
aF266.0
aa(lp1854
F444.75
aF266.75
aa(lp1855
F445.5
aF267.5
aa(lp1856
F446.25
aF268.25
aa(lp1857
F447.0
aF269.0
aa(lp1858
F447.75
aF269.75
aa(lp1859
F448.5
aF270.5
aa(lp1860
F449.25
aF271.25
aa(lp1861
F450.0
aF272.0
aa(lp1862
F450.75
aF272.75
aa(lp1863
F451.5
aF273.5
aa(lp1864
F452.25
aF274.25
aa(lp1865
F453.0
aF275.0
aa(lp1866
F453.42857142857144
aF275.85714285714283
aa(lp1867
F453.85714285714283
aF276.7142857142857
aa(lp1868
F454.2857142857143
aF277.57142857142856
aa(lp1869
F454.7142857142857
aF278.42857142857144
aa(lp1870
F455.14285714285717
aF279.2857142857143
aa(lp1871
F455.57142857142856
aF280.14285714285717
aa(lp1872
F456.0
aF281.0
aa(lp1873
F456.75
aF281.75
aa(lp1874
F457.5
aF282.5
aa(lp1875
F458.25
aF283.25
aa(lp1876
F459.0
aF284.0
aa(lp1877
F459.5
aF284.75
aa(lp1878
F460.0
aF285.5
aa(lp1879
F460.5
aF286.25
aa(lp1880
F461.0
aF287.0
aa(lp1881
F461.75
aF287.75
aa(lp1882
F462.5
aF288.5
aa(lp1883
F463.25
aF289.25
aa(lp1884
F464.0
aF290.0
aa(lp1885
F464.75
aF290.75
aa(lp1886
F465.5
aF291.5
aa(lp1887
F466.25
aF292.25
aa(lp1888
F467.0
aF293.0
aa(lp1889
F467.3333333333333
aF294.0
aa(lp1890
F467.6666666666667
aF295.0
aa(lp1891
F468.0
aF296.0
aa(lp1892
F468.6
aF296.8
aa(lp1893
F469.2
aF297.6
aa(lp1894
F469.8
aF298.4
aa(lp1895
F470.4
aF299.2
aa(lp1896
F471.0
aF300.0
aa(lp1897
F471.3333333333333
aF301.0
aa(lp1898
F471.6666666666667
aF302.0
aa(lp1899
F472.0
aF303.0
aa(lp1900
F472.4
aF304.0
aa(lp1901
F472.8
aF305.0
aa(lp1902
F473.2
aF306.0
aa(lp1903
F473.6
aF307.0
aa(lp1904
F474.0
aF308.0
aa(lp1905
F474.0
aF309.0
aa(lp1906
F474.0
aF310.0
aa(lp1907
F474.0
aF311.0
aa(lp1908
F474.0
aF312.0
aa(lp1909
F474.0
aF313.0
aa(lp1910
F474.0
aF314.0
aa(lp1911
F474.0
aF315.0
aa(lp1912
F474.0
aF316.0
aa(lp1913
F474.0
aF317.0
aa(lp1914
F474.0
aF318.0
aa(lp1915
F474.0
aF319.0
aa(lp1916
F474.0
aF320.0
aa(lp1917
F474.0
aF321.0
aa(lp1918
F474.0
aF322.0
aa(lp1919
F474.0
aF323.0
aa(lp1920
F474.0
aF324.0
aa(lp1921
F474.0
aF325.0
aa(lp1922
F474.0
aF326.0
aa(lp1923
F474.0
aF327.0
aa(lp1924
F474.0
aF328.0
aa(lp1925
F474.0
aF329.0
aa(lp1926
F474.0
aF330.0
aa(lp1927
F474.0
aF331.0
aa(lp1928
F474.0
aF332.0
aa(lp1929
F474.0
aF333.0
aa(lp1930
F474.0
aF334.0
aa(lp1931
F474.0
aF335.0
aa(lp1932
F474.0
aF336.0
aa(lp1933
F474.0
aF337.0
aa(lp1934
F474.0
aF338.0
aa(lp1935
F474.0
aF339.0
aa(lp1936
F474.0
aF340.0
aa(lp1937
F474.0
aF341.0
aa(lp1938
F474.0
aF342.0
aa(lp1939
F474.0
aF343.0
aa(lp1940
F473.6666666666667
aF344.0
aa(lp1941
F473.3333333333333
aF345.0
aa(lp1942
F473.0
aF346.0
aa(lp1943
F472.0
aF347.0
aa(lp1944
F471.5
aF347.75
aa(lp1945
F471.0
aF348.5
aa(lp1946
F470.5
aF349.25
aa(lp1947
F470.0
aF350.0
aa(lp1948
F469.5
aF351.0
aa(lp1949
F469.0
aF352.0
aa(lp1950
F468.0
aF353.0
aa(lp1951
F467.3333333333333
aF353.6666666666667
aa(lp1952
F466.6666666666667
aF354.3333333333333
aa(lp1953
F466.0
aF355.0
aa(lp1954
F465.5
aF356.0
aa(lp1955
F465.0
aF357.0
aa(lp1956
F464.0
aF357.5
aasg362
I8
sg363
F0.3
sa(dp1957
g10
I5
sg11
(lp1958
(lp1959
F354.0
aF498.0
aa(lp1960
F353.0
aF499.0
aa(lp1961
F352.5
aF500.0
aa(lp1962
F352.0
aF501.0
aa(lp1963
F351.0
aF502.0
aa(lp1964
F350.0
aF503.0
aa(lp1965
F349.0
aF504.0
aa(lp1966
F348.0
aF505.0
aa(lp1967
F347.3333333333333
aF505.6666666666667
aa(lp1968
F346.6666666666667
aF506.3333333333333
aa(lp1969
F346.0
aF507.0
aa(lp1970
F345.0
aF508.0
aa(lp1971
F344.0
aF508.0
aa(lp1972
F343.5
aF508.75
aa(lp1973
F343.0
aF509.5
aa(lp1974
F342.5
aF510.25
aa(lp1975
F342.0
aF511.0
aa(lp1976
F341.1666666666667
aF511.5
aa(lp1977
F340.3333333333333
aF512.0
aa(lp1978
F339.5
aF512.5
aa(lp1979
F338.6666666666667
aF513.0
aa(lp1980
F337.8333333333333
aF513.5
aa(lp1981
F337.0
aF514.0
aa(lp1982
F336.1666666666667
aF514.5
aa(lp1983
F335.3333333333333
aF515.0
aa(lp1984
F334.5
aF515.5
aa(lp1985
F333.6666666666667
aF516.0
aa(lp1986
F332.8333333333333
aF516.5
aa(lp1987
F332.0
aF517.0
aa(lp1988
F331.2
aF517.6
aa(lp1989
F330.4
aF518.2
aa(lp1990
F329.6
aF518.8
aa(lp1991
F328.8
aF519.4
aa(lp1992
F328.0
aF520.0
aa(lp1993
F327.0
aF520.3333333333334
aa(lp1994
F326.0
aF520.6666666666666
aa(lp1995
F325.0
aF521.0
aa(lp1996
F324.0
aF521.3333333333334
aa(lp1997
F323.0
aF521.6666666666666
aa(lp1998
F322.0
aF522.0
aa(lp1999
F321.0
aF522.3333333333334
aa(lp2000
F320.0
aF522.6666666666666
aa(lp2001
F319.0
aF523.0
aa(lp2002
F318.0
aF523.3333333333334
aa(lp2003
F317.0
aF523.6666666666666
aa(lp2004
F316.0
aF524.0
aa(lp2005
F315.0
aF524.2
aa(lp2006
F314.0
aF524.4
aa(lp2007
F313.0
aF524.6
aa(lp2008
F312.0
aF524.8
aa(lp2009
F311.0
aF525.0
aa(lp2010
F310.0
aF525.25
aa(lp2011
F309.0
aF525.5
aa(lp2012
F308.0
aF525.75
aa(lp2013
F307.0
aF526.0
aa(lp2014
F306.125
aF526.375
aa(lp2015
F305.25
aF526.75
aa(lp2016
F304.375
aF527.125
aa(lp2017
F303.5
aF527.5
aa(lp2018
F302.625
aF527.875
aa(lp2019
F301.75
aF528.25
aa(lp2020
F300.875
aF528.625
aa(lp2021
F300.0
aF529.0
aa(lp2022
F299.0
aF529.0
aa(lp2023
F298.0
aF529.0
aa(lp2024
F297.0
aF529.0
aa(lp2025
F296.0
aF529.0
aa(lp2026
F295.0
aF529.0
aa(lp2027
F294.0
aF529.0
aa(lp2028
F293.0
aF529.0
aa(lp2029
F292.0
aF529.0
aa(lp2030
F291.0
aF529.0
aa(lp2031
F290.0
aF529.0
aa(lp2032
F289.0
aF529.0
aa(lp2033
F288.0
aF529.0
aa(lp2034
F287.0
aF529.0
aa(lp2035
F286.0
aF529.0
aa(lp2036
F285.0
aF529.0
aa(lp2037
F284.0
aF529.0
aa(lp2038
F283.0
aF529.0
aa(lp2039
F282.0
aF529.0
aa(lp2040
F281.0
aF529.0
aa(lp2041
F280.0
aF529.0
aa(lp2042
F279.0
aF529.0
aa(lp2043
F278.0
aF529.0
aa(lp2044
F277.0
aF529.0
aa(lp2045
F276.0
aF529.0
aa(lp2046
F275.0
aF529.0
aa(lp2047
F274.0
aF529.0
aa(lp2048
F273.0
aF529.0
aa(lp2049
F272.0
aF529.0
aa(lp2050
F271.0
aF529.0
aa(lp2051
F270.0
aF529.0
aa(lp2052
F269.0
aF529.0
aa(lp2053
F268.0
aF529.0
aa(lp2054
F267.0
aF529.0
aa(lp2055
F266.0
aF529.0
aa(lp2056
F265.0
aF529.0
aa(lp2057
F264.0
aF529.0
aa(lp2058
F263.0
aF529.0
aa(lp2059
F262.0
aF529.0
aa(lp2060
F261.0
aF529.0
aa(lp2061
F260.0
aF529.0
aa(lp2062
F259.0
aF529.0
aa(lp2063
F258.0
aF529.0
aa(lp2064
F257.0
aF529.0
aa(lp2065
F256.0
aF529.0
aa(lp2066
F255.0
aF529.0
aa(lp2067
F254.0
aF529.0
aa(lp2068
F253.0
aF529.0
aa(lp2069
F252.0
aF529.0
aa(lp2070
F251.0
aF529.0
aa(lp2071
F250.0
aF529.0
aa(lp2072
F249.0
aF529.0
aa(lp2073
F248.0
aF529.0
aa(lp2074
F247.0
aF529.0
aa(lp2075
F246.0
aF529.0
aa(lp2076
F245.0
aF529.0
aa(lp2077
F244.0
aF529.0
aa(lp2078
F243.0
aF529.0
aa(lp2079
F242.0
aF529.0
aa(lp2080
F241.0
aF529.0
aa(lp2081
F240.0
aF529.0
aa(lp2082
F239.0
aF529.0
aa(lp2083
F238.0
aF529.0
aa(lp2084
F237.0
aF529.0
aa(lp2085
F236.0
aF529.0
aa(lp2086
F235.0
aF529.0
aa(lp2087
F234.0
aF528.75
aa(lp2088
F233.0
aF528.5
aa(lp2089
F232.0
aF528.25
aa(lp2090
F231.0
aF528.0
aa(lp2091
F230.0
aF527.75
aa(lp2092
F229.0
aF527.5
aa(lp2093
F228.0
aF527.25
aa(lp2094
F227.0
aF527.0
aa(lp2095
F226.0
aF526.7142857142857
aa(lp2096
F225.0
aF526.4285714285714
aa(lp2097
F224.0
aF526.1428571428571
aa(lp2098
F223.0
aF525.8571428571429
aa(lp2099
F222.0
aF525.5714285714286
aa(lp2100
F221.0
aF525.2857142857143
aa(lp2101
F220.0
aF525.0
aa(lp2102
F219.0
aF524.75
aa(lp2103
F218.0
aF524.5
aa(lp2104
F217.0
aF524.25
aa(lp2105
F216.0
aF524.0
aa(lp2106
F215.0
aF523.75
aa(lp2107
F214.0
aF523.5
aa(lp2108
F213.0
aF523.25
aa(lp2109
F212.0
aF523.0
aa(lp2110
F211.14285714285714
aF522.4285714285714
aa(lp2111
F210.28571428571428
aF521.8571428571429
aa(lp2112
F209.42857142857142
aF521.2857142857143
aa(lp2113
F208.57142857142858
aF520.7142857142857
aa(lp2114
F207.71428571428572
aF520.1428571428571
aa(lp2115
F206.85714285714286
aF519.5714285714286
aa(lp2116
F206.0
aF519.0
aa(lp2117
F205.125
aF518.5
aa(lp2118
F204.25
aF518.0
aa(lp2119
F203.375
aF517.5
aa(lp2120
F202.5
aF517.0
aa(lp2121
F201.625
aF516.5
aa(lp2122
F200.75
aF516.0
aa(lp2123
F199.875
aF515.5
aa(lp2124
F199.0
aF515.0
aa(lp2125
F198.2
aF514.4
aa(lp2126
F197.4
aF513.8
aa(lp2127
F196.6
aF513.2
aa(lp2128
F195.8
aF512.6
aa(lp2129
F195.0
aF512.0
aa(lp2130
F194.25
aF511.375
aa(lp2131
F193.5
aF510.75
aa(lp2132
F192.75
aF510.125
aa(lp2133
F192.0
aF509.5
aa(lp2134
F191.25
aF508.875
aa(lp2135
F190.5
aF508.25
aa(lp2136
F189.75
aF507.625
aa(lp2137
F189.0
aF507.0
aa(lp2138
F188.16666666666666
aF506.5
aa(lp2139
F187.33333333333334
aF506.0
aa(lp2140
F186.5
aF505.5
aa(lp2141
F185.66666666666666
aF505.0
aa(lp2142
F184.83333333333334
aF504.5
aa(lp2143
F184.0
aF504.0
aa(lp2144
F183.2
aF503.4
aa(lp2145
F182.4
aF502.8
aa(lp2146
F181.6
aF502.2
aa(lp2147
F180.8
aF501.6
aa(lp2148
F180.0
aF501.0
aa(lp2149
F179.14285714285714
aF500.42857142857144
aa(lp2150
F178.28571428571428
aF499.85714285714283
aa(lp2151
F177.42857142857142
aF499.2857142857143
aa(lp2152
F176.57142857142858
aF498.7142857142857
aa(lp2153
F175.71428571428572
aF498.14285714285717
aa(lp2154
F174.85714285714286
aF497.57142857142856
aa(lp2155
F174.0
aF497.0
aa(lp2156
F173.26666666666668
aF496.3333333333333
aa(lp2157
F172.53333333333333
aF495.6666666666667
aa(lp2158
F171.8
aF495.0
aa(lp2159
F171.06666666666666
aF494.3333333333333
aa(lp2160
F170.33333333333334
aF493.6666666666667
aa(lp2161
F169.6
aF493.0
aa(lp2162
F168.86666666666667
aF492.3333333333333
aa(lp2163
F168.13333333333333
aF491.6666666666667
aa(lp2164
F167.4
aF491.0
aa(lp2165
F166.66666666666666
aF490.3333333333333
aa(lp2166
F165.93333333333334
aF489.6666666666667
aa(lp2167
F165.2
aF489.0
aa(lp2168
F164.46666666666667
aF488.3333333333333
aa(lp2169
F163.73333333333335
aF487.6666666666667
aa(lp2170
F163.0
aF487.0
aa(lp2171
F162.44444444444446
aF486.22222222222223
aa(lp2172
F161.88888888888889
aF485.44444444444446
aa(lp2173
F161.33333333333334
aF484.6666666666667
aa(lp2174
F160.77777777777777
aF483.8888888888889
aa(lp2175
F160.22222222222223
aF483.1111111111111
aa(lp2176
F159.66666666666666
aF482.3333333333333
aa(lp2177
F159.11111111111111
aF481.55555555555554
aa(lp2178
F158.55555555555554
aF480.77777777777777
aa(lp2179
F158.0
aF480.0
aa(lp2180
F157.42857142857142
aF479.14285714285717
aa(lp2181
F156.85714285714286
aF478.2857142857143
aa(lp2182
F156.28571428571428
aF477.42857142857144
aa(lp2183
F155.71428571428572
aF476.57142857142856
aa(lp2184
F155.14285714285714
aF475.7142857142857
aa(lp2185
F154.57142857142858
aF474.85714285714283
aa(lp2186
F154.0
aF474.0
aa(lp2187
F153.5
aF473.125
aa(lp2188
F153.0
aF472.25
aa(lp2189
F152.5
aF471.375
aa(lp2190
F152.0
aF470.5
aa(lp2191
F151.5
aF469.625
aa(lp2192
F151.0
aF468.75
aa(lp2193
F150.5
aF467.875
aa(lp2194
F150.0
aF467.0
aa(lp2195
F149.25
aF466.25
aa(lp2196
F148.5
aF465.5
aa(lp2197
F147.75
aF464.75
aa(lp2198
F147.0
aF464.0
aa(lp2199
F146.66666666666666
aF463.1111111111111
aa(lp2200
F146.33333333333334
aF462.22222222222223
aa(lp2201
F146.0
aF461.3333333333333
aa(lp2202
F145.66666666666666
aF460.44444444444446
aa(lp2203
F145.33333333333334
aF459.55555555555554
aa(lp2204
F145.0
aF458.6666666666667
aa(lp2205
F144.66666666666666
aF457.77777777777777
aa(lp2206
F144.33333333333334
aF456.8888888888889
aa(lp2207
F144.0
aF456.0
aa(lp2208
F143.57142857142858
aF455.14285714285717
aa(lp2209
F143.14285714285714
aF454.2857142857143
aa(lp2210
F142.71428571428572
aF453.42857142857144
aa(lp2211
F142.28571428571428
aF452.57142857142856
aa(lp2212
F141.85714285714286
aF451.7142857142857
aa(lp2213
F141.42857142857142
aF450.85714285714283
aa(lp2214
F141.0
aF450.0
aa(lp2215
F140.64285714285714
aF449.07142857142856
aa(lp2216
F140.28571428571428
aF448.14285714285717
aa(lp2217
F139.92857142857142
aF447.2142857142857
aa(lp2218
F139.57142857142858
aF446.2857142857143
aa(lp2219
F139.21428571428572
aF445.35714285714283
aa(lp2220
F138.85714285714286
aF444.42857142857144
aa(lp2221
F138.5
aF443.5
aa(lp2222
F138.14285714285714
aF442.57142857142856
aa(lp2223
F137.78571428571428
aF441.64285714285717
aa(lp2224
F137.42857142857142
aF440.7142857142857
aa(lp2225
F137.07142857142858
aF439.7857142857143
aa(lp2226
F136.71428571428572
aF438.85714285714283
aa(lp2227
F136.35714285714286
aF437.92857142857144
aa(lp2228
F136.0
aF437.0
aa(lp2229
F135.6
aF436.1
aa(lp2230
F135.2
aF435.2
aa(lp2231
F134.8
aF434.3
aa(lp2232
F134.4
aF433.4
aa(lp2233
F134.0
aF432.5
aa(lp2234
F133.6
aF431.6
aa(lp2235
F133.2
aF430.7
aa(lp2236
F132.8
aF429.8
aa(lp2237
F132.4
aF428.9
aa(lp2238
F132.0
aF428.0
aa(lp2239
F131.8
aF427.0
aa(lp2240
F131.6
aF426.0
aa(lp2241
F131.4
aF425.0
aa(lp2242
F131.2
aF424.0
aa(lp2243
F131.0
aF423.0
aa(lp2244
F130.8
aF422.0
aa(lp2245
F130.6
aF421.0
aa(lp2246
F130.4
aF420.0
aa(lp2247
F130.2
aF419.0
aa(lp2248
F130.0
aF418.0
aa(lp2249
F129.6
aF417.0
aa(lp2250
F129.2
aF416.0
aa(lp2251
F128.8
aF415.0
aa(lp2252
F128.4
aF414.0
aa(lp2253
F128.0
aF413.0
aa(lp2254
F127.9090909090909
aF412.0
aa(lp2255
F127.81818181818181
aF411.0
aa(lp2256
F127.72727272727273
aF410.0
aa(lp2257
F127.63636363636364
aF409.0
aa(lp2258
F127.54545454545455
aF408.0
aa(lp2259
F127.45454545454545
aF407.0
aa(lp2260
F127.36363636363636
aF406.0
aa(lp2261
F127.27272727272727
aF405.0
aa(lp2262
F127.18181818181819
aF404.0
aa(lp2263
F127.0909090909091
aF403.0
aa(lp2264
F127.0
aF402.0
aa(lp2265
F127.0
aF401.0
aa(lp2266
F127.0
aF400.0
aa(lp2267
F127.0
aF399.0
aa(lp2268
F127.0
aF398.0
aa(lp2269
F127.0
aF397.0
aa(lp2270
F127.0
aF396.0
aa(lp2271
F127.0
aF395.0
aa(lp2272
F127.0
aF394.0
aa(lp2273
F127.0
aF393.0
aa(lp2274
F127.0
aF392.0
aa(lp2275
F127.0
aF391.0
aa(lp2276
F127.0
aF390.0
aa(lp2277
F127.0
aF389.0
aa(lp2278
F127.0
aF388.0
aa(lp2279
F127.0
aF387.0
aa(lp2280
F127.0
aF386.0
aa(lp2281
F127.0
aF385.0
aa(lp2282
F127.0
aF384.0
aa(lp2283
F126.92857142857143
aF383.0
aa(lp2284
F126.85714285714286
aF382.0
aa(lp2285
F126.78571428571429
aF381.0
aa(lp2286
F126.71428571428571
aF380.0
aa(lp2287
F126.64285714285714
aF379.0
aa(lp2288
F126.57142857142857
aF378.0
aa(lp2289
F126.5
aF377.0
aa(lp2290
F126.42857142857143
aF376.0
aa(lp2291
F126.35714285714286
aF375.0
aa(lp2292
F126.28571428571429
aF374.0
aa(lp2293
F126.21428571428571
aF373.0
aa(lp2294
F126.14285714285714
aF372.0
aa(lp2295
F126.07142857142857
aF371.0
aa(lp2296
F126.0
aF370.0
aa(lp2297
F126.0
aF369.0
aa(lp2298
F126.0
aF368.0
aa(lp2299
F126.0
aF367.0
aa(lp2300
F126.0
aF366.0
aa(lp2301
F126.0
aF365.0
aa(lp2302
F126.0
aF364.0
aa(lp2303
F126.0
aF363.0
aa(lp2304
F126.0
aF362.0
aa(lp2305
F126.0
aF361.0
aa(lp2306
F126.0
aF360.0
aa(lp2307
F126.11111111111111
aF359.0
aa(lp2308
F126.22222222222223
aF358.0
aa(lp2309
F126.33333333333333
aF357.0
aa(lp2310
F126.44444444444444
aF356.0
aa(lp2311
F126.55555555555556
aF355.0
aa(lp2312
F126.66666666666667
aF354.0
aa(lp2313
F126.77777777777777
aF353.0
aa(lp2314
F126.88888888888889
aF352.0
aa(lp2315
F127.0
aF351.0
aa(lp2316
F127.22222222222223
aF350.0
aa(lp2317
F127.44444444444444
aF349.0
aa(lp2318
F127.66666666666667
aF348.0
aa(lp2319
F127.88888888888889
aF347.0
aa(lp2320
F128.11111111111111
aF346.0
aa(lp2321
F128.33333333333334
aF345.0
aa(lp2322
F128.55555555555554
aF344.0
aa(lp2323
F128.77777777777777
aF343.0
aa(lp2324
F129.0
aF342.0
aa(lp2325
F129.25
aF341.0
aa(lp2326
F129.5
aF340.0
aa(lp2327
F129.75
aF339.0
aa(lp2328
F130.0
aF338.0
aa(lp2329
F130.25
aF337.0
aa(lp2330
F130.5
aF336.0
aa(lp2331
F130.75
aF335.0
aa(lp2332
F131.0
aF334.0
aa(lp2333
F131.55555555555554
aF333.1111111111111
aa(lp2334
F132.11111111111111
aF332.22222222222223
aa(lp2335
F132.66666666666666
aF331.3333333333333
aa(lp2336
F133.22222222222223
aF330.44444444444446
aa(lp2337
F133.77777777777777
aF329.55555555555554
aa(lp2338
F134.33333333333334
aF328.6666666666667
aa(lp2339
F134.88888888888889
aF327.77777777777777
aa(lp2340
F135.44444444444446
aF326.8888888888889
aa(lp2341
F136.0
aF326.0
aa(lp2342
F136.44444444444446
aF325.1111111111111
aa(lp2343
F136.88888888888889
aF324.22222222222223
aa(lp2344
F137.33333333333334
aF323.3333333333333
aa(lp2345
F137.77777777777777
aF322.44444444444446
aa(lp2346
F138.22222222222223
aF321.55555555555554
aa(lp2347
F138.66666666666666
aF320.6666666666667
aa(lp2348
F139.11111111111111
aF319.77777777777777
aa(lp2349
F139.55555555555554
aF318.8888888888889
aa(lp2350
F140.0
aF318.0
aa(lp2351
F140.5
aF317.125
aa(lp2352
F141.0
aF316.25
aa(lp2353
F141.5
aF315.375
aa(lp2354
F142.0
aF314.5
aa(lp2355
F142.5
aF313.625
aa(lp2356
F143.0
aF312.75
aa(lp2357
F143.5
aF311.875
aa(lp2358
F144.0
aF311.0
aa(lp2359
F144.33333333333334
aF310.0
aa(lp2360
F144.66666666666666
aF309.0
aa(lp2361
F145.0
aF308.0
aa(lp2362
F145.33333333333334
aF307.0
aa(lp2363
F145.66666666666666
aF306.0
aa(lp2364
F146.0
aF305.0
aa(lp2365
F146.33333333333334
aF304.0
aa(lp2366
F146.66666666666666
aF303.0
aa(lp2367
F147.0
aF302.0
aa(lp2368
F147.36363636363637
aF301.09090909090907
aa(lp2369
F147.72727272727272
aF300.1818181818182
aa(lp2370
F148.0909090909091
aF299.27272727272725
aa(lp2371
F148.45454545454547
aF298.3636363636364
aa(lp2372
F148.8181818181818
aF297.45454545454544
aa(lp2373
F149.1818181818182
aF296.54545454545456
aa(lp2374
F149.54545454545453
aF295.6363636363636
aa(lp2375
F149.9090909090909
aF294.72727272727275
aa(lp2376
F150.27272727272728
aF293.8181818181818
aa(lp2377
F150.63636363636363
aF292.90909090909093
aa(lp2378
F151.0
aF292.0
aa(lp2379
F151.55555555555554
aF291.1111111111111
aa(lp2380
F152.11111111111111
aF290.22222222222223
aa(lp2381
F152.66666666666666
aF289.3333333333333
aa(lp2382
F153.22222222222223
aF288.44444444444446
aa(lp2383
F153.77777777777777
aF287.55555555555554
aa(lp2384
F154.33333333333334
aF286.6666666666667
aa(lp2385
F154.88888888888889
aF285.77777777777777
aa(lp2386
F155.44444444444446
aF284.8888888888889
aa(lp2387
F156.0
aF284.0
aa(lp2388
F156.6
aF283.2
aa(lp2389
F157.2
aF282.4
aa(lp2390
F157.8
aF281.6
aa(lp2391
F158.4
aF280.8
aa(lp2392
F159.0
aF280.0
aa(lp2393
F159.6
aF279.2
aa(lp2394
F160.2
aF278.4
aa(lp2395
F160.8
aF277.6
aa(lp2396
F161.4
aF276.8
aa(lp2397
F162.0
aF276.0
aa(lp2398
F162.75
aF275.25
aa(lp2399
F163.5
aF274.5
aa(lp2400
F164.25
aF273.75
aa(lp2401
F165.0
aF273.0
aa(lp2402
F165.75
aF272.25
aa(lp2403
F166.5
aF271.5
aa(lp2404
F167.25
aF270.75
aa(lp2405
F168.0
aF270.0
aa(lp2406
F168.625
aF269.25
aa(lp2407
F169.25
aF268.5
aa(lp2408
F169.875
aF267.75
aa(lp2409
F170.5
aF267.0
aa(lp2410
F171.125
aF266.25
aa(lp2411
F171.75
aF265.5
aa(lp2412
F172.375
aF264.75
aa(lp2413
F173.0
aF264.0
aa(lp2414
F173.55555555555554
aF263.22222222222223
aa(lp2415
F174.11111111111111
aF262.44444444444446
aa(lp2416
F174.66666666666666
aF261.6666666666667
aa(lp2417
F175.22222222222223
aF260.8888888888889
aa(lp2418
F175.77777777777777
aF260.1111111111111
aa(lp2419
F176.33333333333334
aF259.3333333333333
aa(lp2420
F176.88888888888889
aF258.55555555555554
aa(lp2421
F177.44444444444446
aF257.77777777777777
aa(lp2422
F178.0
aF257.0
aa(lp2423
F178.6
aF256.2
aa(lp2424
F179.2
aF255.4
aa(lp2425
F179.8
aF254.6
aa(lp2426
F180.4
aF253.8
aa(lp2427
F181.0
aF253.0
aa(lp2428
F181.8181818181818
aF252.36363636363637
aa(lp2429
F182.63636363636363
aF251.72727272727272
aa(lp2430
F183.45454545454547
aF251.0909090909091
aa(lp2431
F184.27272727272728
aF250.45454545454547
aa(lp2432
F185.0909090909091
aF249.8181818181818
aa(lp2433
F185.9090909090909
aF249.1818181818182
aa(lp2434
F186.72727272727272
aF248.54545454545453
aa(lp2435
F187.54545454545453
aF247.9090909090909
aa(lp2436
F188.36363636363637
aF247.27272727272728
aa(lp2437
F189.1818181818182
aF246.63636363636363
aa(lp2438
F190.0
aF246.0
aa(lp2439
F190.875
aF245.5
aa(lp2440
F191.75
aF245.0
aa(lp2441
F192.625
aF244.5
aa(lp2442
F193.5
aF244.0
aa(lp2443
F194.375
aF243.5
aa(lp2444
F195.25
aF243.0
aa(lp2445
F196.125
aF242.5
aa(lp2446
F197.0
aF242.0
aa(lp2447
F197.8181818181818
aF241.45454545454547
aa(lp2448
F198.63636363636363
aF240.9090909090909
aa(lp2449
F199.45454545454547
aF240.36363636363637
aa(lp2450
F200.27272727272728
aF239.8181818181818
aa(lp2451
F201.0909090909091
aF239.27272727272728
aa(lp2452
F201.9090909090909
aF238.72727272727272
aa(lp2453
F202.72727272727272
aF238.1818181818182
aa(lp2454
F203.54545454545453
aF237.63636363636363
aa(lp2455
F204.36363636363637
aF237.0909090909091
aa(lp2456
F205.1818181818182
aF236.54545454545453
aa(lp2457
F206.0
aF236.0
aa(lp2458
F206.75
aF235.375
aa(lp2459
F207.5
aF234.75
aa(lp2460
F208.25
aF234.125
aa(lp2461
F209.0
aF233.5
aa(lp2462
F209.75
aF232.875
aa(lp2463
F210.5
aF232.25
aa(lp2464
F211.25
aF231.625
aa(lp2465
F212.0
aF231.0
aa(lp2466
F212.9090909090909
aF230.54545454545453
aa(lp2467
F213.8181818181818
aF230.0909090909091
aa(lp2468
F214.72727272727272
aF229.63636363636363
aa(lp2469
F215.63636363636363
aF229.1818181818182
aa(lp2470
F216.54545454545453
aF228.72727272727272
aa(lp2471
F217.45454545454547
aF228.27272727272728
aa(lp2472
F218.36363636363637
aF227.8181818181818
aa(lp2473
F219.27272727272728
aF227.36363636363637
aa(lp2474
F220.1818181818182
aF226.9090909090909
aa(lp2475
F221.0909090909091
aF226.45454545454547
aa(lp2476
F222.0
aF226.0
aa(lp2477
F222.88888888888889
aF225.55555555555554
aa(lp2478
F223.77777777777777
aF225.11111111111111
aa(lp2479
F224.66666666666666
aF224.66666666666666
aa(lp2480
F225.55555555555554
aF224.22222222222223
aa(lp2481
F226.44444444444446
aF223.77777777777777
aa(lp2482
F227.33333333333334
aF223.33333333333334
aa(lp2483
F228.22222222222223
aF222.88888888888889
aa(lp2484
F229.11111111111111
aF222.44444444444446
aa(lp2485
F230.0
aF222.0
aa(lp2486
F231.0
aF221.66666666666666
aa(lp2487
F232.0
aF221.33333333333334
aa(lp2488
F233.0
aF221.0
aa(lp2489
F234.0
aF220.66666666666666
aa(lp2490
F235.0
aF220.33333333333334
aa(lp2491
F236.0
aF220.0
aa(lp2492
F237.0
aF219.66666666666666
aa(lp2493
F238.0
aF219.33333333333334
aa(lp2494
F239.0
aF219.0
aa(lp2495
F240.0
aF218.66666666666666
aa(lp2496
F241.0
aF218.33333333333334
aa(lp2497
F242.0
aF218.0
aa(lp2498
F243.0
aF217.66666666666666
aa(lp2499
F244.0
aF217.33333333333334
aa(lp2500
F245.0
aF217.0
aa(lp2501
F246.0
aF216.66666666666666
aa(lp2502
F247.0
aF216.33333333333334
aa(lp2503
F248.0
aF216.0
aa(lp2504
F248.9090909090909
aF215.63636363636363
aa(lp2505
F249.8181818181818
aF215.27272727272728
aa(lp2506
F250.72727272727272
aF214.9090909090909
aa(lp2507
F251.63636363636363
aF214.54545454545453
aa(lp2508
F252.54545454545453
aF214.1818181818182
aa(lp2509
F253.45454545454547
aF213.8181818181818
aa(lp2510
F254.36363636363637
aF213.45454545454547
aa(lp2511
F255.27272727272728
aF213.0909090909091
aa(lp2512
F256.1818181818182
aF212.72727272727272
aa(lp2513
F257.09090909090907
aF212.36363636363637
aa(lp2514
F258.0
aF212.0
aa(lp2515
F259.0
aF211.75
aa(lp2516
F260.0
aF211.5
aa(lp2517
F261.0
aF211.25
aa(lp2518
F262.0
aF211.0
aa(lp2519
F263.0
aF210.75
aa(lp2520
F264.0
aF210.5
aa(lp2521
F265.0
aF210.25
aa(lp2522
F266.0
aF210.0
aa(lp2523
F267.0
aF209.75
aa(lp2524
F268.0
aF209.5
aa(lp2525
F269.0
aF209.25
aa(lp2526
F270.0
aF209.0
aa(lp2527
F271.0
aF208.75
aa(lp2528
F272.0
aF208.5
aa(lp2529
F273.0
aF208.25
aa(lp2530
F274.0
aF208.0
aa(lp2531
F275.0
aF207.75
aa(lp2532
F276.0
aF207.5
aa(lp2533
F277.0
aF207.25
aa(lp2534
F278.0
aF207.0
aa(lp2535
F279.0
aF206.75
aa(lp2536
F280.0
aF206.5
aa(lp2537
F281.0
aF206.25
aa(lp2538
F282.0
aF206.0
aa(lp2539
F283.0
aF206.0
aa(lp2540
F284.0
aF206.0
aa(lp2541
F285.0
aF206.0
aa(lp2542
F286.0
aF206.0
aa(lp2543
F287.0
aF206.0
aa(lp2544
F288.0
aF206.0
aa(lp2545
F289.0
aF206.0
aa(lp2546
F290.0
aF206.0
aa(lp2547
F291.0
aF206.0
aa(lp2548
F292.0
aF206.0
aa(lp2549
F292.9166666666667
aF205.66666666666666
aa(lp2550
F293.8333333333333
aF205.33333333333334
aa(lp2551
F294.75
aF205.0
aa(lp2552
F295.6666666666667
aF204.66666666666666
aa(lp2553
F296.5833333333333
aF204.33333333333334
aa(lp2554
F297.5
aF204.0
aa(lp2555
F298.4166666666667
aF203.66666666666666
aa(lp2556
F299.3333333333333
aF203.33333333333334
aa(lp2557
F300.25
aF203.0
aa(lp2558
F301.1666666666667
aF202.66666666666666
aa(lp2559
F302.0833333333333
aF202.33333333333334
aa(lp2560
F303.0
aF202.0
aa(lp2561
F304.0
aF202.0
aa(lp2562
F305.0
aF202.0
aa(lp2563
F306.0
aF202.0
aa(lp2564
F307.0
aF202.0
aa(lp2565
F308.0
aF202.0
aa(lp2566
F309.0
aF202.0
aa(lp2567
F310.0
aF202.0
aa(lp2568
F311.0
aF202.0
aa(lp2569
F312.0
aF202.0
aa(lp2570
F313.0
aF202.0
aa(lp2571
F314.0
aF202.0
aa(lp2572
F315.0
aF202.0
aa(lp2573
F316.0
aF202.0
aa(lp2574
F317.0
aF202.0
aa(lp2575
F318.0
aF202.0
aa(lp2576
F319.0
aF201.91666666666666
aa(lp2577
F320.0
aF201.83333333333334
aa(lp2578
F321.0
aF201.75
aa(lp2579
F322.0
aF201.66666666666666
aa(lp2580
F323.0
aF201.58333333333334
aa(lp2581
F324.0
aF201.5
aa(lp2582
F325.0
aF201.41666666666666
aa(lp2583
F326.0
aF201.33333333333334
aa(lp2584
F327.0
aF201.25
aa(lp2585
F328.0
aF201.16666666666666
aa(lp2586
F329.0
aF201.08333333333334
aa(lp2587
F330.0
aF201.0
aa(lp2588
F331.0
aF200.88888888888889
aa(lp2589
F332.0
aF200.77777777777777
aa(lp2590
F333.0
aF200.66666666666666
aa(lp2591
F334.0
aF200.55555555555554
aa(lp2592
F335.0
aF200.44444444444446
aa(lp2593
F336.0
aF200.33333333333334
aa(lp2594
F337.0
aF200.22222222222223
aa(lp2595
F338.0
aF200.11111111111111
aa(lp2596
F339.0
aF200.0
aa(lp2597
F340.0
aF199.9
aa(lp2598
F341.0
aF199.8
aa(lp2599
F342.0
aF199.7
aa(lp2600
F343.0
aF199.6
aa(lp2601
F344.0
aF199.5
aa(lp2602
F345.0
aF199.4
aa(lp2603
F346.0
aF199.3
aa(lp2604
F347.0
aF199.2
aa(lp2605
F348.0
aF199.1
aa(lp2606
F349.0
aF199.0
aa(lp2607
F350.0
aF199.0
aa(lp2608
F351.0
aF199.0
aa(lp2609
F352.0
aF199.0
aa(lp2610
F353.0
aF199.0
aa(lp2611
F354.0
aF199.0
aa(lp2612
F355.0
aF199.0
aa(lp2613
F356.0
aF199.0
aa(lp2614
F357.0
aF199.0
aa(lp2615
F358.0
aF199.0
aa(lp2616
F359.0
aF199.0
aa(lp2617
F360.0
aF199.0
aa(lp2618
F361.0
aF199.0
aa(lp2619
F362.0
aF199.0
aa(lp2620
F363.0
aF199.0
aa(lp2621
F364.0
aF199.0
aa(lp2622
F365.0
aF199.0
aa(lp2623
F366.0
aF199.0
aa(lp2624
F367.0
aF199.0
aa(lp2625
F368.0
aF199.0
aa(lp2626
F369.0
aF199.0
aa(lp2627
F370.0
aF199.0
aa(lp2628
F371.0
aF199.0
aa(lp2629
F372.0
aF199.0
aa(lp2630
F373.0
aF199.0
aa(lp2631
F374.0
aF199.0
aa(lp2632
F375.0
aF199.0
aa(lp2633
F376.0
aF199.0
aa(lp2634
F377.0
aF199.0
aa(lp2635
F378.0
aF199.0
aa(lp2636
F379.0
aF199.0
aa(lp2637
F380.0
aF199.0
aa(lp2638
F381.0
aF199.0
aa(lp2639
F382.0
aF199.0
aa(lp2640
F383.0
aF199.0
aa(lp2641
F384.0
aF199.0
aa(lp2642
F385.0
aF199.0
aa(lp2643
F386.0
aF199.0
aa(lp2644
F387.0
aF199.0
aa(lp2645
F388.0
aF199.0
aa(lp2646
F389.0
aF199.0
aa(lp2647
F390.0
aF199.0
aa(lp2648
F391.0
aF199.0
aa(lp2649
F392.0
aF199.0
aa(lp2650
F393.0
aF199.0
aa(lp2651
F394.0
aF199.0
aa(lp2652
F395.0
aF199.0
aa(lp2653
F396.0
aF199.0
aa(lp2654
F397.0
aF199.0
aa(lp2655
F398.0
aF199.0
aa(lp2656
F399.0
aF199.0
aa(lp2657
F400.0
aF199.0
aa(lp2658
F401.0
aF199.0
aa(lp2659
F402.0
aF199.0
aa(lp2660
F403.0
aF199.0
aa(lp2661
F404.0
aF199.0
aa(lp2662
F405.0
aF199.0
aa(lp2663
F406.0
aF199.0
aa(lp2664
F407.0
aF199.0
aa(lp2665
F408.0
aF199.0
aa(lp2666
F409.0
aF199.16666666666666
aa(lp2667
F410.0
aF199.33333333333334
aa(lp2668
F411.0
aF199.5
aa(lp2669
F412.0
aF199.66666666666666
aa(lp2670
F413.0
aF199.83333333333334
aa(lp2671
F414.0
aF200.0
aa(lp2672
F415.0
aF200.22222222222223
aa(lp2673
F416.0
aF200.44444444444446
aa(lp2674
F417.0
aF200.66666666666666
aa(lp2675
F418.0
aF200.88888888888889
aa(lp2676
F419.0
aF201.11111111111111
aa(lp2677
F420.0
aF201.33333333333334
aa(lp2678
F421.0
aF201.55555555555554
aa(lp2679
F422.0
aF201.77777777777777
aa(lp2680
F423.0
aF202.0
aa(lp2681
F423.85714285714283
aF202.42857142857142
aa(lp2682
F424.7142857142857
aF202.85714285714286
aa(lp2683
F425.57142857142856
aF203.28571428571428
aa(lp2684
F426.42857142857144
aF203.71428571428572
aa(lp2685
F427.2857142857143
aF204.14285714285714
aa(lp2686
F428.14285714285717
aF204.57142857142858
aa(lp2687
F429.0
aF205.0
aa(lp2688
F429.75
aF205.75
aa(lp2689
F430.5
aF206.5
aa(lp2690
F431.25
aF207.25
aa(lp2691
F432.0
aF208.0
aa(lp2692
F433.0
aF208.4
aa(lp2693
F434.0
aF208.8
aa(lp2694
F435.0
aF209.2
aa(lp2695
F436.0
aF209.6
aa(lp2696
F437.0
aF210.0
aa(lp2697
F437.875
aF210.5
aa(lp2698
F438.75
aF211.0
aa(lp2699
F439.625
aF211.5
aa(lp2700
F440.5
aF212.0
aa(lp2701
F441.375
aF212.5
aa(lp2702
F442.25
aF213.0
aa(lp2703
F443.125
aF213.5
aa(lp2704
F444.0
aF214.0
aa(lp2705
F444.85714285714283
aF214.57142857142858
aa(lp2706
F445.7142857142857
aF215.14285714285714
aa(lp2707
F446.57142857142856
aF215.71428571428572
aa(lp2708
F447.42857142857144
aF216.28571428571428
aa(lp2709
F448.2857142857143
aF216.85714285714286
aa(lp2710
F449.14285714285717
aF217.42857142857142
aa(lp2711
F450.0
aF218.0
aa(lp2712
F450.8
aF218.6
aa(lp2713
F451.6
aF219.2
aa(lp2714
F452.4
aF219.8
aa(lp2715
F453.2
aF220.4
aa(lp2716
F454.0
aF221.0
aa(lp2717
F454.8
aF221.6
aa(lp2718
F455.6
aF222.2
aa(lp2719
F456.4
aF222.8
aa(lp2720
F457.2
aF223.4
aa(lp2721
F458.0
aF224.0
aa(lp2722
F458.77777777777777
aF224.55555555555554
aa(lp2723
F459.55555555555554
aF225.11111111111111
aa(lp2724
F460.3333333333333
aF225.66666666666666
aa(lp2725
F461.1111111111111
aF226.22222222222223
aa(lp2726
F461.8888888888889
aF226.77777777777777
aa(lp2727
F462.6666666666667
aF227.33333333333334
aa(lp2728
F463.44444444444446
aF227.88888888888889
aa(lp2729
F464.22222222222223
aF228.44444444444446
aa(lp2730
F465.0
aF229.0
aa(lp2731
F465.75
aF229.75
aa(lp2732
F466.5
aF230.5
aa(lp2733
F467.25
aF231.25
aa(lp2734
F468.0
aF232.0
aa(lp2735
F468.75
aF232.75
aa(lp2736
F469.5
aF233.5
aa(lp2737
F470.25
aF234.25
aa(lp2738
F471.0
aF235.0
aa(lp2739
F471.8
aF235.6
aa(lp2740
F472.6
aF236.2
aa(lp2741
F473.4
aF236.8
aa(lp2742
F474.2
aF237.4
aa(lp2743
F475.0
aF238.0
aa(lp2744
F475.57142857142856
aF238.85714285714286
aa(lp2745
F476.14285714285717
aF239.71428571428572
aa(lp2746
F476.7142857142857
aF240.57142857142858
aa(lp2747
F477.2857142857143
aF241.42857142857142
aa(lp2748
F477.85714285714283
aF242.28571428571428
aa(lp2749
F478.42857142857144
aF243.14285714285714
aa(lp2750
F479.0
aF244.0
aa(lp2751
F479.5
aF244.75
aa(lp2752
F480.0
aF245.5
aa(lp2753
F480.5
aF246.25
aa(lp2754
F481.0
aF247.0
aa(lp2755
F481.4
aF248.0
aa(lp2756
F481.8
aF249.0
aa(lp2757
F482.2
aF250.0
aa(lp2758
F482.6
aF251.0
aa(lp2759
F483.0
aF252.0
aa(lp2760
F483.44444444444446
aF252.88888888888889
aa(lp2761
F483.8888888888889
aF253.77777777777777
aa(lp2762
F484.3333333333333
aF254.66666666666666
aa(lp2763
F484.77777777777777
aF255.55555555555554
aa(lp2764
F485.22222222222223
aF256.44444444444446
aa(lp2765
F485.6666666666667
aF257.3333333333333
aa(lp2766
F486.1111111111111
aF258.22222222222223
aa(lp2767
F486.55555555555554
aF259.1111111111111
aa(lp2768
F487.0
aF260.0
aa(lp2769
F487.44444444444446
aF260.8888888888889
aa(lp2770
F487.8888888888889
aF261.77777777777777
aa(lp2771
F488.3333333333333
aF262.6666666666667
aa(lp2772
F488.77777777777777
aF263.55555555555554
aa(lp2773
F489.22222222222223
aF264.44444444444446
aa(lp2774
F489.6666666666667
aF265.3333333333333
aa(lp2775
F490.1111111111111
aF266.22222222222223
aa(lp2776
F490.55555555555554
aF267.1111111111111
aa(lp2777
F491.0
aF268.0
aa(lp2778
F491.2
aF269.0
aa(lp2779
F491.4
aF270.0
aa(lp2780
F491.6
aF271.0
aa(lp2781
F491.8
aF272.0
aa(lp2782
F492.0
aF273.0
aa(lp2783
F492.4
aF274.0
aa(lp2784
F492.8
aF275.0
aa(lp2785
F493.2
aF276.0
aa(lp2786
F493.6
aF277.0
aa(lp2787
F494.0
aF278.0
aa(lp2788
F494.0
aF279.0
aa(lp2789
F494.0
aF280.0
aa(lp2790
F494.0
aF281.0
aa(lp2791
F494.0
aF282.0
aa(lp2792
F494.0
aF283.0
aa(lp2793
F494.1666666666667
aF284.0
aa(lp2794
F494.3333333333333
aF285.0
aa(lp2795
F494.5
aF286.0
aa(lp2796
F494.6666666666667
aF287.0
aa(lp2797
F494.8333333333333
aF288.0
aa(lp2798
F495.0
aF289.0
aa(lp2799
F495.14285714285717
aF290.0
aa(lp2800
F495.2857142857143
aF291.0
aa(lp2801
F495.42857142857144
aF292.0
aa(lp2802
F495.57142857142856
aF293.0
aa(lp2803
F495.7142857142857
aF294.0
aa(lp2804
F495.85714285714283
aF295.0
aa(lp2805
F496.0
aF296.0
aa(lp2806
F496.0
aF297.0
aa(lp2807
F496.0
aF298.0
aa(lp2808
F496.0
aF299.0
aa(lp2809
F496.0
aF300.0
aa(lp2810
F496.0
aF301.0
aa(lp2811
F496.0
aF302.0
aa(lp2812
F496.0
aF303.0
aa(lp2813
F496.0
aF304.0
aa(lp2814
F496.0
aF305.0
aa(lp2815
F496.0
aF306.0
aa(lp2816
F496.0
aF307.0
aa(lp2817
F496.0
aF308.0
aa(lp2818
F496.0
aF309.0
aa(lp2819
F496.0
aF310.0
aa(lp2820
F496.0
aF311.0
aa(lp2821
F496.0
aF312.0
aa(lp2822
F496.0
aF313.0
aa(lp2823
F496.0
aF314.0
aa(lp2824
F496.0
aF315.0
aa(lp2825
F496.0
aF316.0
aa(lp2826
F495.8333333333333
aF317.0
aa(lp2827
F495.6666666666667
aF318.0
aa(lp2828
F495.5
aF319.0
aa(lp2829
F495.3333333333333
aF320.0
aa(lp2830
F495.1666666666667
aF321.0
aa(lp2831
F495.0
aF322.0
aa(lp2832
F494.8
aF323.0
aa(lp2833
F494.6
aF324.0
aa(lp2834
F494.4
aF325.0
aa(lp2835
F494.2
aF326.0
aa(lp2836
F494.0
aF327.0
aa(lp2837
F493.5
aF328.0
aa(lp2838
F493.0
aF329.0
aa(lp2839
F492.5
aF330.0
aa(lp2840
F492.0
aF331.0
aa(lp2841
F491.1666666666667
aF331.6666666666667
aa(lp2842
F490.3333333333333
aF332.3333333333333
aa(lp2843
F489.5
aF333.0
aa(lp2844
F488.6666666666667
aF333.6666666666667
aa(lp2845
F487.8333333333333
aF334.3333333333333
aa(lp2846
F487.0
aF335.0
aa(lp2847
F486.0
aF336.0
aa(lp2848
F485.42857142857144
aF336.85714285714283
aa(lp2849
F484.85714285714283
aF337.7142857142857
aa(lp2850
F484.2857142857143
aF338.57142857142856
aa(lp2851
F483.7142857142857
aF339.42857142857144
aa(lp2852
F483.14285714285717
aF340.2857142857143
aa(lp2853
F482.57142857142856
aF341.14285714285717
aa(lp2854
F482.0
aF342.0
aa(lp2855
F481.25
aF342.75
aa(lp2856
F480.5
aF343.5
aa(lp2857
F479.75
aF344.25
aa(lp2858
F479.0
aF345.0
aa(lp2859
F478.0
aF346.0
aa(lp2860
F477.14285714285717
aF346.42857142857144
aa(lp2861
F476.2857142857143
aF346.85714285714283
aa(lp2862
F475.42857142857144
aF347.2857142857143
aa(lp2863
F474.57142857142856
aF347.7142857142857
aa(lp2864
F473.7142857142857
aF348.14285714285717
aa(lp2865
F472.85714285714283
aF348.57142857142856
aa(lp2866
F472.0
aF349.0
aa(lp2867
F471.0
aF349.2
aa(lp2868
F470.0
aF349.4
aa(lp2869
F469.0
aF349.6
aa(lp2870
F468.0
aF349.8
aa(lp2871
F467.0
aF350.0
aa(lp2872
F466.0
aF350.1666666666667
aa(lp2873
F465.0
aF350.3333333333333
aa(lp2874
F464.0
aF350.5
aa(lp2875
F463.0
aF350.6666666666667
aa(lp2876
F462.0
aF350.8333333333333
aa(lp2877
F461.0
aF351.0
aa(lp2878
F460.0
aF351.1666666666667
aa(lp2879
F459.0
aF351.3333333333333
aa(lp2880
F458.0
aF351.5
aa(lp2881
F457.0
aF351.6666666666667
aa(lp2882
F456.0
aF351.8333333333333
aa(lp2883
F455.0
aF352.0
aa(lp2884
F454.0
aF352.25
aa(lp2885
F453.0
aF352.5
aa(lp2886
F452.0
aF352.75
aa(lp2887
F451.0
aF353.0
aa(lp2888
F450.0
aF353.0
aa(lp2889
F449.0
aF353.0
aasg362
I8
sg363
F0.3
sasg364
I5
sg365
I0
sg366
S'irsensor'
p2890
sg368
g369
sg370
Nsg371
g372
(I333
I414
I60
I96
tp2891
Rp2892
sbag1
(g2
g3
Ntp2893
Rp2894
(dp2895
g7
(lp2896
(dp2897
g10
I8
sg11
(lp2898
(lp2899
F452.0
aF392.0
aa(lp2900
F451.0
aF392.0
aa(lp2901
F450.0
aF392.0
aa(lp2902
F449.0
aF391.7142857142857
aa(lp2903
F448.0
aF391.42857142857144
aa(lp2904
F447.0
aF391.14285714285717
aa(lp2905
F446.0
aF390.85714285714283
aa(lp2906
F445.0
aF390.57142857142856
aa(lp2907
F444.0
aF390.2857142857143
aa(lp2908
F443.0
aF390.0
aa(lp2909
F442.125
aF389.5
aa(lp2910
F441.25
aF389.0
aa(lp2911
F440.375
aF388.5
aa(lp2912
F439.5
aF388.0
aa(lp2913
F438.625
aF387.5
aa(lp2914
F437.75
aF387.0
aa(lp2915
F436.875
aF386.5
aa(lp2916
F436.0
aF386.0
aa(lp2917
F435.1111111111111
aF385.6666666666667
aa(lp2918
F434.22222222222223
aF385.3333333333333
aa(lp2919
F433.3333333333333
aF385.0
aa(lp2920
F432.44444444444446
aF384.6666666666667
aa(lp2921
F431.55555555555554
aF384.3333333333333
aa(lp2922
F430.6666666666667
aF384.0
aa(lp2923
F429.77777777777777
aF383.6666666666667
aa(lp2924
F428.8888888888889
aF383.3333333333333
aa(lp2925
F428.0
aF383.0
aa(lp2926
F427.0
aF382.5
aa(lp2927
F426.0
aF382.0
aa(lp2928
F425.0
aF381.5
aa(lp2929
F424.0
aF381.0
aa(lp2930
F423.3333333333333
aF380.3333333333333
aa(lp2931
F422.6666666666667
aF379.6666666666667
aa(lp2932
F422.0
aF379.0
aa(lp2933
F421.0
aF378.5
aa(lp2934
F420.0
aF378.0
aa(lp2935
F419.3333333333333
aF377.3333333333333
aa(lp2936
F418.6666666666667
aF376.6666666666667
aa(lp2937
F418.0
aF376.0
aa(lp2938
F417.0
aF375.5
aa(lp2939
F416.0
aF375.0
aa(lp2940
F415.3333333333333
aF374.3333333333333
aa(lp2941
F414.6666666666667
aF373.6666666666667
aa(lp2942
F414.0
aF373.0
aa(lp2943
F413.0
aF372.5
aa(lp2944
F412.0
aF372.0
aa(lp2945
F411.5
aF371.25
aa(lp2946
F411.0
aF370.5
aa(lp2947
F410.5
aF369.75
aa(lp2948
F410.0
aF369.0
aa(lp2949
F409.25
aF368.5
aa(lp2950
F408.5
aF368.0
aa(lp2951
F407.75
aF367.5
aa(lp2952
F407.0
aF367.0
aa(lp2953
F406.25
aF366.5
aa(lp2954
F405.5
aF366.0
aa(lp2955
F404.75
aF365.5
aa(lp2956
F404.0
aF365.0
aa(lp2957
F403.3333333333333
aF364.3333333333333
aa(lp2958
F402.6666666666667
aF363.6666666666667
aa(lp2959
F402.0
aF363.0
aa(lp2960
F401.3333333333333
aF362.3333333333333
aa(lp2961
F400.6666666666667
aF361.6666666666667
aa(lp2962
F400.0
aF361.0
aa(lp2963
F399.3333333333333
aF360.3333333333333
aa(lp2964
F398.6666666666667
aF359.6666666666667
aa(lp2965
F398.0
aF359.0
aa(lp2966
F397.0
aF359.0
aa(lp2967
F396.0
aF358.5
aa(lp2968
F395.0
aF358.0
aa(lp2969
F394.0
aF357.5
aa(lp2970
F393.0
aF357.0
aa(lp2971
F392.0
aF356.0
aa(lp2972
F391.25
aF355.5
aa(lp2973
F390.5
aF355.0
aa(lp2974
F389.75
aF354.5
aa(lp2975
F389.0
aF354.0
aa(lp2976
F388.5
aF353.0
aa(lp2977
F388.0
aF352.0
aa(lp2978
F387.0
aF352.0
aasg362
I4
sg363
F0.3
sa(dp2979
g10
I8
sg11
(lp2980
(lp2981
F455.0
aF398.0
aa(lp2982
F455.0
aF399.0
aa(lp2983
F455.0
aF400.0
aa(lp2984
F454.6666666666667
aF401.0
aa(lp2985
F454.3333333333333
aF402.0
aa(lp2986
F454.0
aF403.0
aa(lp2987
F454.0
aF404.0
aa(lp2988
F454.0
aF405.0
aa(lp2989
F454.0
aF406.0
aa(lp2990
F453.6666666666667
aF407.0
aa(lp2991
F453.3333333333333
aF408.0
aa(lp2992
F453.0
aF409.0
aa(lp2993
F452.25
aF409.75
aa(lp2994
F451.5
aF410.5
aa(lp2995
F450.75
aF411.25
aa(lp2996
F450.0
aF412.0
aa(lp2997
F449.75
aF413.0
aa(lp2998
F449.5
aF414.0
aa(lp2999
F449.25
aF415.0
aa(lp3000
F449.0
aF416.0
aa(lp3001
F448.25
aF416.5
aa(lp3002
F447.5
aF417.0
aa(lp3003
F446.75
aF417.5
aa(lp3004
F446.0
aF418.0
aa(lp3005
F446.0
aF419.0
aa(lp3006
F445.0
aF420.0
aa(lp3007
F444.3333333333333
aF420.6666666666667
aa(lp3008
F443.6666666666667
aF421.3333333333333
aa(lp3009
F443.0
aF422.0
aa(lp3010
F442.6666666666667
aF423.0
aa(lp3011
F442.3333333333333
aF424.0
aa(lp3012
F442.0
aF425.0
aa(lp3013
F441.3333333333333
aF425.6666666666667
aa(lp3014
F440.6666666666667
aF426.3333333333333
aa(lp3015
F440.0
aF427.0
aa(lp3016
F439.5
aF428.0
aa(lp3017
F439.0
aF429.0
aa(lp3018
F439.0
aF430.0
aa(lp3019
F439.0
aF431.0
aa(lp3020
F438.5
aF431.75
aa(lp3021
F438.0
aF432.5
aa(lp3022
F437.5
aF433.25
aa(lp3023
F437.0
aF434.0
aa(lp3024
F437.0
aF435.0
aa(lp3025
F436.0
aF436.0
aa(lp3026
F436.0
aF437.0
aa(lp3027
F436.0
aF438.0
aa(lp3028
F436.0
aF439.0
aasg362
I6
sg363
F0.3
sasg364
I8
sg365
I0
sg366
S'excitatory'
p3029
sg368
g668
sg370
Nsg371
g372
(I431
I314
I60
I96
tp3030
Rp3031
sbag1
(g2
g3
Ntp3032
Rp3033
(dp3034
g7
(lp3035
sg364
I7
sg365
I0
sg366
S'rightforward'
p3036
sg368
g676
sg370
Nsg371
g372
(I555
I533
I80
I51
tp3037
Rp3038
sbag1
(g2
g3
Ntp3039
Rp3040
(dp3041
g7
(lp3042
sg364
I4
sg365
I0
sg366
S'leftbackward'
p3043
sg368
g676
sg370
Nsg371
g372
(I333
I328
I80
I52
tp3044
Rp3045
sbag1
(g2
g3
Ntp3046
Rp3047
(dp3048
g7
(lp3049
(dp3050
g10
I9
sg11
(lp3051
(lp3052
F523.0
aF520.0
aa(lp3053
F524.0
aF520.0
aa(lp3054
F525.0
aF520.3333333333334
aa(lp3055
F526.0
aF520.6666666666666
aa(lp3056
F527.0
aF521.0
aa(lp3057
F528.0
aF521.0
aa(lp3058
F529.0
aF521.0
aa(lp3059
F530.0
aF522.0
aa(lp3060
F531.0
aF522.3333333333334
aa(lp3061
F532.0
aF522.6666666666666
aa(lp3062
F533.0
aF523.0
aa(lp3063
F534.0
aF523.3333333333334
aa(lp3064
F535.0
aF523.6666666666666
aa(lp3065
F536.0
aF524.0
aa(lp3066
F536.8
aF524.6
aa(lp3067
F537.6
aF525.2
aa(lp3068
F538.4
aF525.8
aa(lp3069
F539.2
aF526.4
aa(lp3070
F540.0
aF527.0
aa(lp3071
F541.0
aF527.0
aa(lp3072
F542.0
aF527.0
aa(lp3073
F543.0
aF527.0
aa(lp3074
F544.0
aF527.3333333333334
aa(lp3075
F545.0
aF527.6666666666666
aa(lp3076
F546.0
aF528.0
aa(lp3077
F547.0
aF528.3333333333334
aa(lp3078
F548.0
aF528.6666666666666
aa(lp3079
F549.0
aF529.0
aa(lp3080
F550.0
aF529.5
aa(lp3081
F551.0
aF530.0
aa(lp3082
F552.0
aF530.0
aa(lp3083
F552.75
aF530.5
aa(lp3084
F553.5
aF531.0
aa(lp3085
F554.25
aF531.5
aa(lp3086
F555.0
aF532.0
aa(lp3087
F556.0
aF532.3333333333334
aa(lp3088
F557.0
aF532.6666666666666
aa(lp3089
F558.0
aF533.0
aa(lp3090
F559.0
aF533.3333333333334
aa(lp3091
F560.0
aF533.6666666666666
aa(lp3092
F561.0
aF534.0
aa(lp3093
F561.5
aF535.0
aa(lp3094
F562.0
aF536.0
aa(lp3095
F563.0
aF536.3333333333334
aa(lp3096
F564.0
aF536.6666666666666
aa(lp3097
F565.0
aF537.0
aa(lp3098
F566.0
aF538.0
aa(lp3099
F567.0
aF538.0
aa(lp3100
F568.0
aF539.0
aa(lp3101
F569.0
aF540.0
aa(lp3102
F570.0
aF540.0
aa(lp3103
F571.0
aF540.5
aa(lp3104
F572.0
aF541.0
aa(lp3105
F573.0
aF541.5
aa(lp3106
F574.0
aF542.0
aa(lp3107
F575.0
aF543.0
aa(lp3108
F576.0
aF543.0
aa(lp3109
F577.0
aF543.0
aa(lp3110
F577.5
aF544.0
aa(lp3111
F578.0
aF545.0
aa(lp3112
F579.0
aF546.0
aa(lp3113
F580.0
aF546.0
aasg362
I7
sg363
F0.4
sa(dp3114
g10
I9
sg11
(lp3115
(lp3116
F521.0
aF518.0
aa(lp3117
F520.0
aF518.0
aa(lp3118
F519.0
aF519.0
aa(lp3119
F518.0
aF520.0
aa(lp3120
F517.0
aF520.0
aa(lp3121
F516.0
aF521.0
aa(lp3122
F515.25
aF521.5
aa(lp3123
F514.5
aF522.0
aa(lp3124
F513.75
aF522.5
aa(lp3125
F513.0
aF523.0
aa(lp3126
F512.0
aF523.0
aa(lp3127
F511.0
aF524.0
aa(lp3128
F510.2
aF524.6
aa(lp3129
F509.4
aF525.2
aa(lp3130
F508.6
aF525.8
aa(lp3131
F507.8
aF526.4
aa(lp3132
F507.0
aF527.0
aa(lp3133
F506.0
aF528.0
aa(lp3134
F505.0
aF528.0
aa(lp3135
F504.0
aF529.0
aa(lp3136
F503.5
aF530.0
aa(lp3137
F503.0
aF531.0
aa(lp3138
F502.0
aF532.0
aa(lp3139
F501.0
aF532.5
aa(lp3140
F500.0
aF533.0
aa(lp3141
F499.6666666666667
aF534.0
aa(lp3142
F499.3333333333333
aF535.0
aa(lp3143
F499.0
aF536.0
aa(lp3144
F498.0
aF537.0
aa(lp3145
F497.0
aF538.0
aa(lp3146
F497.0
aF539.0
aa(lp3147
F496.0
aF540.0
aa(lp3148
F495.0
aF541.0
aa(lp3149
F494.0
aF542.0
aa(lp3150
F493.0
aF542.5
aa(lp3151
F492.0
aF543.0
aa(lp3152
F491.3333333333333
aF543.6666666666666
aa(lp3153
F490.6666666666667
aF544.3333333333334
aa(lp3154
F490.0
aF545.0
aa(lp3155
F489.0
aF546.0
aa(lp3156
F488.0
aF547.0
aa(lp3157
F487.0
aF547.0
aa(lp3158
F486.3333333333333
aF547.6666666666666
aa(lp3159
F485.6666666666667
aF548.3333333333334
aa(lp3160
F485.0
aF549.0
aa(lp3161
F484.0
aF550.0
aa(lp3162
F483.0
aF550.0
aa(lp3163
F482.0
aF551.0
aa(lp3164
F481.0
aF552.0
aa(lp3165
F480.5
aF553.0
aa(lp3166
F480.0
aF554.0
aa(lp3167
F479.0
aF555.0
aa(lp3168
F478.0
aF556.0
aasg362
I2
sg363
F0.4
sa(dp3169
g10
I9
sg11
(lp3170
(lp3171
F525.0
aF517.0
aa(lp3172
F524.0
aF517.0
aa(lp3173
F523.0
aF517.0
aa(lp3174
F522.0
aF517.0
aa(lp3175
F521.0
aF517.0
aa(lp3176
F520.0
aF517.0
aa(lp3177
F519.0
aF517.0
aa(lp3178
F518.0
aF517.0
aa(lp3179
F517.0
aF517.0
aa(lp3180
F516.5
aF516.0
aa(lp3181
F516.0
aF515.0
aa(lp3182
F515.0
aF515.0
aa(lp3183
F514.0
aF514.5
aa(lp3184
F513.0
aF514.0
aa(lp3185
F512.3333333333334
aF513.3333333333334
aa(lp3186
F511.6666666666667
aF512.6666666666666
aa(lp3187
F511.0
aF512.0
aa(lp3188
F510.0
aF511.0
aa(lp3189
F509.25
aF510.5
aa(lp3190
F508.5
aF510.0
aa(lp3191
F507.75
aF509.5
aa(lp3192
F507.0
aF509.0
aa(lp3193
F506.0
aF508.5
aa(lp3194
F505.0
aF508.0
aa(lp3195
F504.3333333333333
aF507.3333333333333
aa(lp3196
F503.6666666666667
aF506.6666666666667
aa(lp3197
F503.0
aF506.0
aa(lp3198
F502.5
aF505.0
aa(lp3199
F502.0
aF504.0
aa(lp3200
F501.0
aF503.5
aa(lp3201
F500.0
aF503.0
aa(lp3202
F499.3333333333333
aF502.3333333333333
aa(lp3203
F498.6666666666667
aF501.6666666666667
aa(lp3204
F498.0
aF501.0
aa(lp3205
F497.0
aF500.0
aa(lp3206
F497.0
aF499.0
aa(lp3207
F496.5
aF498.0
aa(lp3208
F496.0
aF497.0
aa(lp3209
F495.25
aF496.5
aa(lp3210
F494.5
aF496.0
aa(lp3211
F493.75
aF495.5
aa(lp3212
F493.0
aF495.0
aa(lp3213
F492.0
aF494.0
aa(lp3214
F492.0
aF493.0
aa(lp3215
F491.0
aF492.0
aa(lp3216
F491.0
aF491.0
aa(lp3217
F490.75
aF490.0
aa(lp3218
F490.5
aF489.0
aa(lp3219
F490.25
aF488.0
aa(lp3220
F490.0
aF487.0
aa(lp3221
F490.0
aF486.0
aa(lp3222
F490.0
aF485.0
aa(lp3223
F490.0
aF484.0
aa(lp3224
F490.0
aF483.0
aa(lp3225
F490.0
aF482.0
aa(lp3226
F490.0
aF481.0
aa(lp3227
F490.0
aF480.0
aa(lp3228
F490.0
aF479.0
aa(lp3229
F490.0
aF478.0
aa(lp3230
F490.0
aF477.0
aa(lp3231
F490.0
aF476.0
aa(lp3232
F490.0
aF475.0
aa(lp3233
F490.0
aF474.0
aa(lp3234
F490.0
aF473.0
aa(lp3235
F489.6666666666667
aF472.0
aa(lp3236
F489.3333333333333
aF471.0
aa(lp3237
F489.0
aF470.0
aa(lp3238
F489.0
aF469.0
aa(lp3239
F489.0
aF468.0
aa(lp3240
F488.6666666666667
aF467.0
aa(lp3241
F488.3333333333333
aF466.0
aa(lp3242
F488.0
aF465.0
aa(lp3243
F488.0
aF464.0
aa(lp3244
F488.0
aF463.0
aa(lp3245
F488.0
aF462.0
aa(lp3246
F488.0
aF461.0
aa(lp3247
F488.0
aF460.0
aa(lp3248
F488.0
aF459.0
aa(lp3249
F488.0
aF458.0
aa(lp3250
F488.0
aF457.0
aa(lp3251
F488.0
aF456.0
aa(lp3252
F488.0
aF455.0
aa(lp3253
F488.0
aF454.0
aa(lp3254
F488.0
aF453.0
aa(lp3255
F488.0
aF452.0
aa(lp3256
F488.0
aF451.0
aa(lp3257
F488.0
aF450.0
aa(lp3258
F488.0
aF449.0
aa(lp3259
F488.0
aF448.0
aa(lp3260
F488.0
aF447.0
aa(lp3261
F488.0
aF446.0
aa(lp3262
F488.0
aF445.0
aa(lp3263
F488.0
aF444.0
aa(lp3264
F488.0
aF443.0
aa(lp3265
F488.0
aF442.0
aa(lp3266
F488.0
aF441.0
aa(lp3267
F488.0
aF440.0
aa(lp3268
F488.0
aF439.0
aa(lp3269
F488.0
aF438.0
aa(lp3270
F488.0
aF437.0
aa(lp3271
F488.0
aF436.0
aa(lp3272
F488.0
aF435.0
aa(lp3273
F488.0
aF434.0
aa(lp3274
F488.0
aF433.0
aa(lp3275
F488.0
aF432.0
aa(lp3276
F488.0
aF431.0
aa(lp3277
F488.0
aF430.0
aa(lp3278
F488.0
aF429.0
aa(lp3279
F488.25
aF428.0
aa(lp3280
F488.5
aF427.0
aa(lp3281
F488.75
aF426.0
aa(lp3282
F489.0
aF425.0
aa(lp3283
F489.0
aF424.0
aa(lp3284
F489.0
aF423.0
aa(lp3285
F489.6666666666667
aF422.3333333333333
aa(lp3286
F490.3333333333333
aF421.6666666666667
aa(lp3287
F491.0
aF421.0
aa(lp3288
F491.5
aF420.0
aa(lp3289
F492.0
aF419.0
aa(lp3290
F492.5
aF418.25
aa(lp3291
F493.0
aF417.5
aa(lp3292
F493.5
aF416.75
aa(lp3293
F494.0
aF416.0
aa(lp3294
F495.0
aF415.5
aa(lp3295
F496.0
aF415.0
aa(lp3296
F497.0
aF414.0
aa(lp3297
F498.0
aF413.0
aa(lp3298
F499.0
aF413.0
aa(lp3299
F500.0
aF413.0
aa(lp3300
F501.0
aF413.0
aa(lp3301
F502.0
aF413.0
aa(lp3302
F503.0
aF413.0
aa(lp3303
F504.0
aF413.0
aa(lp3304
F505.0
aF413.0
aa(lp3305
F506.0
aF413.0
aa(lp3306
F507.0
aF413.0
aa(lp3307
F508.0
aF413.0
aa(lp3308
F509.0
aF413.0
aa(lp3309
F510.0
aF413.0
aa(lp3310
F511.0
aF413.0
aa(lp3311
F512.0
aF414.0
aa(lp3312
F512.5
aF415.0
aa(lp3313
F513.0
aF416.0
aa(lp3314
F514.0
aF417.0
aa(lp3315
F515.0
aF418.0
aa(lp3316
F516.0
aF419.0
aa(lp3317
F516.0
aF420.0
aa(lp3318
F517.0
aF421.0
aa(lp3319
F517.5
aF422.0
aa(lp3320
F518.0
aF423.0
aa(lp3321
F518.0
aF424.0
aa(lp3322
F518.0
aF425.0
aa(lp3323
F518.0
aF426.0
aa(lp3324
F518.5
aF427.0
aa(lp3325
F519.0
aF428.0
aa(lp3326
F519.0
aF429.0
aa(lp3327
F519.0
aF430.0
aa(lp3328
F520.0
aF431.0
aa(lp3329
F520.0
aF432.0
aa(lp3330
F520.0
aF433.0
aa(lp3331
F520.0
aF434.0
aa(lp3332
F520.0
aF435.0
aa(lp3333
F520.0
aF436.0
aa(lp3334
F520.0
aF437.0
aa(lp3335
F520.5
aF438.0
aa(lp3336
F521.0
aF439.0
aa(lp3337
F521.0
aF440.0
aa(lp3338
F521.0
aF441.0
aa(lp3339
F521.0
aF442.0
aa(lp3340
F521.0
aF443.0
aa(lp3341
F521.0
aF444.0
aa(lp3342
F521.0
aF445.0
aa(lp3343
F522.0
aF446.0
aasg362
I9
sg363
F0.3
sasg364
I9
sg365
I0
sg366
S'excitatory'
p3344
sg368
g668
sg370
Nsg371
g372
(I499
I434
I60
I96
tp3345
Rp3346
sba.