(lp0
(i__main__
pickledNeuron
p1
(dp2
S'axons'
p3
(lp4
(dp5
S'start'
p6
I8
sS'points'
p7
(lp8
(lp9
F440.0
aF321.0
aa(lp10
F441.0
aF322.0
aa(lp11
F442.0
aF322.3333333333333
aa(lp12
F443.0
aF322.6666666666667
aa(lp13
F444.0
aF323.0
aa(lp14
F445.0
aF323.25
aa(lp15
F446.0
aF323.5
aa(lp16
F447.0
aF323.75
aa(lp17
F448.0
aF324.0
aa(lp18
F449.0
aF324.25
aa(lp19
F450.0
aF324.5
aa(lp20
F451.0
aF324.75
aa(lp21
F452.0
aF325.0
aa(lp22
F453.0
aF325.0
aa(lp23
F454.0
aF325.0
aa(lp24
F455.0
aF325.0
aa(lp25
F456.0
aF325.2
aa(lp26
F457.0
aF325.4
aa(lp27
F458.0
aF325.6
aa(lp28
F459.0
aF325.8
aa(lp29
F460.0
aF326.0
aa(lp30
F461.0
aF326.25
aa(lp31
F462.0
aF326.5
aa(lp32
F463.0
aF326.75
aa(lp33
F464.0
aF327.0
aa(lp34
F465.0
aF327.0
aa(lp35
F466.0
aF327.0
aa(lp36
F467.0
aF327.0
aa(lp37
F468.0
aF327.0
aa(lp38
F469.0
aF327.0
aa(lp39
F470.0
aF327.0
aa(lp40
F471.0
aF327.0
aa(lp41
F472.0
aF327.0
aa(lp42
F473.0
aF327.0
aa(lp43
F474.0
aF327.0
aa(lp44
F475.0
aF327.0
aa(lp45
F476.0
aF327.0
aa(lp46
F477.0
aF327.0
aa(lp47
F478.0
aF327.0
aa(lp48
F479.0
aF327.0
aa(lp49
F480.0
aF327.0
aa(lp50
F481.0
aF327.0
aa(lp51
F482.0
aF327.1666666666667
aa(lp52
F483.0
aF327.3333333333333
aa(lp53
F484.0
aF327.5
aa(lp54
F485.0
aF327.6666666666667
aa(lp55
F486.0
aF327.8333333333333
aa(lp56
F487.0
aF328.0
aa(lp57
F488.0
aF328.4
aa(lp58
F489.0
aF328.8
aa(lp59
F490.0
aF329.2
aa(lp60
F491.0
aF329.6
aa(lp61
F492.0
aF330.0
aa(lp62
F493.0
aF330.0
aa(lp63
F494.0
aF330.0
aa(lp64
F495.0
aF330.0
aa(lp65
F496.0
aF330.0
aa(lp66
F497.0
aF330.0
aa(lp67
F498.0
aF330.0
aa(lp68
F499.0
aF330.0
aa(lp69
F500.0
aF330.0
aa(lp70
F501.0
aF330.0
aa(lp71
F502.0
aF330.0
aa(lp72
F503.0
aF330.0
aa(lp73
F504.0
aF330.0
aa(lp74
F505.0
aF330.0
aa(lp75
F506.0
aF330.0
aa(lp76
F507.0
aF330.0
aa(lp77
F508.0
aF329.5
aa(lp78
F509.0
aF329.0
aa(lp79
F510.0
aF328.75
aa(lp80
F511.0
aF328.5
aa(lp81
F512.0
aF328.25
aa(lp82
F513.0
aF328.0
aa(lp83
F514.0
aF328.0
aa(lp84
F515.0
aF328.0
aa(lp85
F516.0
aF328.0
aa(lp86
F516.0
aF327.0
aa(lp87
F515.0
aF327.0
aa(lp88
F514.0
aF327.0
aa(lp89
F513.0
aF327.0
aa(lp90
F512.0
aF327.0
aasS'end'
p91
I4
sS'weight'
p92
F0.5
sa(dp93
g6
I8
sg7
(lp94
(lp95
F435.0
aF317.0
aa(lp96
F434.0
aF317.0
aa(lp97
F433.0
aF317.0
aa(lp98
F432.0
aF317.0
aa(lp99
F431.0
aF317.0
aa(lp100
F430.0
aF317.0
aa(lp101
F429.0
aF317.0
aa(lp102
F428.0
aF317.0
aa(lp103
F427.0
aF317.0
aa(lp104
F426.0
aF317.0
aa(lp105
F425.0
aF317.0
aa(lp106
F424.0
aF317.0
aa(lp107
F423.0
aF317.0
aa(lp108
F422.0
aF317.0
aa(lp109
F421.0
aF317.0
aa(lp110
F420.0
aF317.0
aa(lp111
F419.0
aF317.0
aa(lp112
F418.0
aF317.0
aa(lp113
F417.0
aF317.0
aa(lp114
F416.0
aF317.0
aa(lp115
F415.0
aF317.0
aa(lp116
F414.0
aF317.0
aa(lp117
F413.0
aF317.0
aa(lp118
F412.0
aF317.0
aa(lp119
F411.0
aF317.0
aa(lp120
F410.0
aF317.0
aa(lp121
F409.0
aF317.0
aa(lp122
F408.0
aF317.0
aa(lp123
F407.0
aF317.0
aa(lp124
F406.0
aF317.0
aa(lp125
F405.0
aF317.0
aa(lp126
F404.0
aF317.0
aa(lp127
F403.0
aF317.0
aa(lp128
F402.0
aF317.0
aa(lp129
F401.0
aF317.0
aa(lp130
F400.0
aF317.0
aa(lp131
F399.0
aF317.0
aa(lp132
F398.0
aF317.0
aa(lp133
F397.0
aF317.0
aa(lp134
F396.0
aF317.0
aa(lp135
F395.0
aF317.0
aa(lp136
F394.0
aF317.0
aa(lp137
F393.0
aF317.0
aa(lp138
F392.0
aF317.0
aa(lp139
F391.0
aF317.5
aa(lp140
F390.0
aF318.0
aa(lp141
F389.0
aF318.5
aa(lp142
F388.0
aF319.0
aa(lp143
F387.3333333333333
aF319.6666666666667
aa(lp144
F386.6666666666667
aF320.3333333333333
aa(lp145
F386.0
aF321.0
aa(lp146
F385.0
aF321.0
aa(lp147
F384.0
aF321.0
aa(lp148
F383.0
aF321.0
aa(lp149
F382.0
aF321.0
aa(lp150
F381.0
aF321.0
aa(lp151
F380.0
aF321.0
aa(lp152
F379.0
aF321.0
aa(lp153
F378.0
aF321.0
aasg91
I1
sg92
F0.5
sasS'nid'
p154
I8
sS'rf'
p155
I0
sS'tp'
p156
S'auditory'
p157
sS'super_type'
p158
S'sensor'
p159
sS'freq'
p160
I2645
sS'rect'
p161
cpygame
__rect_constructor
p162
(I415
I268
I60
I96
tp163
Rp164
sba(i__main__
pickledNeuron
p165
(dp166
g3
(lp167
(dp168
g6
I7
sg7
(lp169
(lp170
F440.0
aF499.0
aa(lp171
F441.0
aF499.0
aa(lp172
F442.0
aF499.0
aa(lp173
F443.0
aF499.0
aa(lp174
F444.0
aF499.0
aa(lp175
F445.0
aF499.0
aa(lp176
F446.0
aF499.0
aa(lp177
F447.0
aF499.0
aa(lp178
F448.0
aF499.0
aa(lp179
F449.0
aF499.0
aa(lp180
F450.0
aF499.0
aa(lp181
F451.0
aF499.0
aa(lp182
F452.0
aF499.0
aa(lp183
F453.0
aF499.0
aa(lp184
F454.0
aF499.0
aa(lp185
F455.0
aF499.0
aa(lp186
F456.0
aF499.0
aa(lp187
F457.0
aF499.0
aa(lp188
F458.0
aF499.0
aa(lp189
F459.0
aF499.0
aa(lp190
F460.0
aF499.0
aa(lp191
F461.0
aF499.3333333333333
aa(lp192
F462.0
aF499.6666666666667
aa(lp193
F463.0
aF500.0
aa(lp194
F464.0
aF500.0
aa(lp195
F464.75
aF500.5
aa(lp196
F465.5
aF501.0
aa(lp197
F466.25
aF501.5
aa(lp198
F467.0
aF502.0
aa(lp199
F468.0
aF502.3333333333333
aa(lp200
F469.0
aF502.6666666666667
aa(lp201
F470.0
aF503.0
aa(lp202
F470.6666666666667
aF503.6666666666667
aa(lp203
F471.3333333333333
aF504.3333333333333
aa(lp204
F472.0
aF505.0
aa(lp205
F473.0
aF505.0
aa(lp206
F474.0
aF505.0
aa(lp207
F475.0
aF505.25
aa(lp208
F476.0
aF505.5
aa(lp209
F477.0
aF505.75
aa(lp210
F478.0
aF506.0
aa(lp211
F479.0
aF506.0
aa(lp212
F480.0
aF506.0
aa(lp213
F481.0
aF506.0
aa(lp214
F482.0
aF506.0
aa(lp215
F482.75
aF506.5
aa(lp216
F483.5
aF507.0
aa(lp217
F484.25
aF507.5
aa(lp218
F485.0
aF508.0
aa(lp219
F486.0
aF508.5
aa(lp220
F487.0
aF509.0
aa(lp221
F488.0
aF509.0
aa(lp222
F489.0
aF509.0
aa(lp223
F490.0
aF509.0
aa(lp224
F491.0
aF509.0
aa(lp225
F492.0
aF509.0
aa(lp226
F493.0
aF509.3333333333333
aa(lp227
F494.0
aF509.6666666666667
aa(lp228
F495.0
aF510.0
aa(lp229
F496.0
aF510.0
aa(lp230
F497.0
aF510.0
aa(lp231
F498.0
aF510.0
aa(lp232
F499.0
aF510.5
aa(lp233
F500.0
aF511.0
aa(lp234
F501.0
aF511.5
aa(lp235
F502.0
aF512.0
aa(lp236
F503.0
aF512.0
aa(lp237
F504.0
aF512.0
aa(lp238
F505.0
aF512.0
aa(lp239
F506.0
aF512.0
aa(lp240
F507.0
aF512.0
aa(lp241
F508.0
aF512.0
aa(lp242
F509.0
aF512.0
aa(lp243
F510.0
aF512.0
aa(lp244
F511.0
aF512.0
aa(lp245
F512.0
aF512.0
aa(lp246
F513.0
aF512.0
aa(lp247
F514.0
aF512.0
aa(lp248
F515.0
aF512.0
aa(lp249
F516.0
aF512.0
aa(lp250
F517.0
aF512.0
aa(lp251
F518.0
aF512.0
aa(lp252
F519.0
aF512.0
aa(lp253
F520.0
aF512.0
aa(lp254
F521.0
aF512.0
aa(lp255
F521.0
aF511.0
aa(lp256
F520.0
aF510.8333333333333
aa(lp257
F519.0
aF510.6666666666667
aa(lp258
F518.0
aF510.5
aa(lp259
F517.0
aF510.3333333333333
aa(lp260
F516.0
aF510.1666666666667
aa(lp261
F515.0
aF510.0
aa(lp262
F514.0
aF509.8333333333333
aa(lp263
F513.0
aF509.6666666666667
aa(lp264
F512.0
aF509.5
aa(lp265
F511.0
aF509.3333333333333
aa(lp266
F510.0
aF509.1666666666667
aa(lp267
F509.0
aF509.0
aa(lp268
F508.0
aF508.84615384615387
aa(lp269
F507.0
aF508.6923076923077
aa(lp270
F506.0
aF508.53846153846155
aa(lp271
F505.0
aF508.38461538461536
aa(lp272
F504.0
aF508.2307692307692
aa(lp273
F503.0
aF508.0769230769231
aa(lp274
F502.0
aF507.9230769230769
aa(lp275
F501.0
aF507.7692307692308
aa(lp276
F500.0
aF507.61538461538464
aa(lp277
F499.0
aF507.46153846153845
aa(lp278
F498.0
aF507.3076923076923
aa(lp279
F497.0
aF507.15384615384613
aasg91
I3
sg92
F0.5
sa(dp280
g6
I7
sg7
(lp281
(lp282
F434.0
aF507.0
aa(lp283
F433.3333333333333
aF506.3333333333333
aa(lp284
F432.6666666666667
aF505.6666666666667
aa(lp285
F432.0
aF505.0
aa(lp286
F431.0
aF504.6666666666667
aa(lp287
F430.0
aF504.3333333333333
aa(lp288
F429.0
aF504.0
aa(lp289
F428.0
aF503.77777777777777
aa(lp290
F427.0
aF503.55555555555554
aa(lp291
F426.0
aF503.3333333333333
aa(lp292
F425.0
aF503.1111111111111
aa(lp293
F424.0
aF502.8888888888889
aa(lp294
F423.0
aF502.6666666666667
aa(lp295
F422.0
aF502.44444444444446
aa(lp296
F421.0
aF502.22222222222223
aa(lp297
F420.0
aF502.0
aa(lp298
F419.1111111111111
aF501.6666666666667
aa(lp299
F418.22222222222223
aF501.3333333333333
aa(lp300
F417.3333333333333
aF501.0
aa(lp301
F416.44444444444446
aF500.6666666666667
aa(lp302
F415.55555555555554
aF500.3333333333333
aa(lp303
F414.6666666666667
aF500.0
aa(lp304
F413.77777777777777
aF499.6666666666667
aa(lp305
F412.8888888888889
aF499.3333333333333
aa(lp306
F412.0
aF499.0
aa(lp307
F411.14285714285717
aF498.57142857142856
aa(lp308
F410.2857142857143
aF498.14285714285717
aa(lp309
F409.42857142857144
aF497.7142857142857
aa(lp310
F408.57142857142856
aF497.2857142857143
aa(lp311
F407.7142857142857
aF496.85714285714283
aa(lp312
F406.85714285714283
aF496.42857142857144
aa(lp313
F406.0
aF496.0
aa(lp314
F405.0
aF495.8
aa(lp315
F404.0
aF495.6
aa(lp316
F403.0
aF495.4
aa(lp317
F402.0
aF495.2
aa(lp318
F401.0
aF495.0
aa(lp319
F400.0
aF494.75
aa(lp320
F399.0
aF494.5
aa(lp321
F398.0
aF494.25
aa(lp322
F397.0
aF494.0
aa(lp323
F396.0
aF493.8
aa(lp324
F395.0
aF493.6
aa(lp325
F394.0
aF493.4
aa(lp326
F393.0
aF493.2
aa(lp327
F392.0
aF493.0
aa(lp328
F391.0
aF492.6666666666667
aa(lp329
F390.0
aF492.3333333333333
aa(lp330
F389.0
aF492.0
aa(lp331
F388.0
aF491.6666666666667
aa(lp332
F387.0
aF491.3333333333333
aa(lp333
F386.0
aF491.0
aa(lp334
F385.0
aF490.6666666666667
aa(lp335
F384.0
aF490.3333333333333
aa(lp336
F383.0
aF490.0
aa(lp337
F382.0
aF490.0
aa(lp338
F381.0
aF490.0
aa(lp339
F380.0
aF490.0
aa(lp340
F379.0
aF490.0
aa(lp341
F378.0
aF490.0
aa(lp342
F377.0
aF490.0
aa(lp343
F376.0
aF490.0
aa(lp344
F375.0
aF490.0
aa(lp345
F374.0
aF490.0
aa(lp346
F373.0
aF490.0
aa(lp347
F372.0
aF490.0
aa(lp348
F371.0
aF490.0
aa(lp349
F370.0
aF490.0
aa(lp350
F369.0
aF490.0
aa(lp351
F368.0
aF490.0
aa(lp352
F367.0
aF490.0
aa(lp353
F366.0
aF491.0
aa(lp354
F365.0
aF492.0
aa(lp355
F364.0
aF493.0
aasg91
I2
sg92
F0.5
sasg154
I7
sg155
I0
sg156
g157
sg158
g159
sg160
I2100
sg161
g162
(I409
I452
I60
I96
tp356
Rp357
sba(i__main__
pickledNeuron
p358
(dp359
g3
(lp360
(dp361
g6
I5
sg7
(lp362
(lp363
F361.0
aF415.0
aa(lp364
F361.0
aF414.0
aa(lp365
F361.0
aF413.0
aa(lp366
F361.25
aF412.0
aa(lp367
F361.5
aF411.0
aa(lp368
F361.75
aF410.0
aa(lp369
F362.0
aF409.0
aa(lp370
F362.0
aF408.0
aa(lp371
F362.0
aF407.0
aa(lp372
F362.0
aF406.0
aa(lp373
F362.0
aF405.0
aa(lp374
F362.0
aF404.0
aa(lp375
F362.0
aF403.0
aa(lp376
F362.3333333333333
aF402.0
aa(lp377
F362.6666666666667
aF401.0
aa(lp378
F363.0
aF400.0
aa(lp379
F363.2
aF399.0
aa(lp380
F363.4
aF398.0
aa(lp381
F363.6
aF397.0
aa(lp382
F363.8
aF396.0
aa(lp383
F364.0
aF395.0
aa(lp384
F364.25
aF394.0
aa(lp385
F364.5
aF393.0
aa(lp386
F364.75
aF392.0
aa(lp387
F365.0
aF391.0
aa(lp388
F365.0
aF390.0
aa(lp389
F365.0
aF389.0
aa(lp390
F365.0
aF388.0
aa(lp391
F365.3333333333333
aF387.0
aa(lp392
F365.6666666666667
aF386.0
aa(lp393
F366.0
aF385.0
aa(lp394
F366.3333333333333
aF384.0
aa(lp395
F366.6666666666667
aF383.0
aa(lp396
F367.0
aF382.0
aa(lp397
F367.0
aF381.0
aa(lp398
F367.0
aF380.0
aa(lp399
F367.0
aF379.0
aa(lp400
F367.0
aF378.0
aa(lp401
F367.0
aF377.0
aa(lp402
F367.0
aF376.0
aa(lp403
F367.0
aF375.0
aa(lp404
F367.1666666666667
aF374.0
aa(lp405
F367.3333333333333
aF373.0
aa(lp406
F367.5
aF372.0
aa(lp407
F367.6666666666667
aF371.0
aa(lp408
F367.8333333333333
aF370.0
aa(lp409
F368.0
aF369.0
aa(lp410
F368.0
aF368.0
aa(lp411
F368.0
aF367.0
aa(lp412
F368.0
aF366.0
aa(lp413
F368.0
aF365.0
aa(lp414
F368.0
aF364.0
aa(lp415
F368.0
aF363.0
aa(lp416
F368.0
aF362.0
aa(lp417
F368.0
aF361.0
aa(lp418
F368.0
aF360.0
aa(lp419
F368.0
aF359.0
aa(lp420
F368.0
aF358.0
aa(lp421
F368.0
aF357.0
aa(lp422
F368.0
aF356.0
aa(lp423
F368.0
aF355.0
aa(lp424
F368.0
aF354.0
aa(lp425
F368.0
aF353.0
aa(lp426
F368.0
aF352.0
aa(lp427
F368.3333333333333
aF351.0
aa(lp428
F368.6666666666667
aF350.0
aa(lp429
F369.0
aF349.0
aa(lp430
F370.0
aF348.0
aa(lp431
F370.0
aF347.0
aa(lp432
F370.0
aF346.0
aa(lp433
F370.0
aF345.0
aa(lp434
F370.0
aF344.0
aa(lp435
F370.0
aF343.0
aa(lp436
F370.0
aF342.0
aa(lp437
F370.0
aF341.0
aa(lp438
F370.0
aF340.0
aa(lp439
F370.0
aF339.0
aa(lp440
F370.0
aF338.0
aa(lp441
F370.0
aF337.0
aa(lp442
F370.0
aF336.0
aa(lp443
F370.0
aF335.0
aa(lp444
F370.3333333333333
aF334.0
aa(lp445
F370.6666666666667
aF333.0
aa(lp446
F371.0
aF332.0
aa(lp447
F371.0
aF331.0
aa(lp448
F371.0
aF330.0
aa(lp449
F371.0
aF329.0
aa(lp450
F371.0
aF328.0
aa(lp451
F371.0
aF327.0
aa(lp452
F371.0
aF326.0
aa(lp453
F371.0
aF325.0
aa(lp454
F371.0
aF324.0
aa(lp455
F371.0
aF323.0
aa(lp456
F371.0
aF322.0
aasg91
I1
sg92
F0.5
sa(dp457
g6
I5
sg7
(lp458
(lp459
F356.0
aF438.0
aa(lp460
F356.0
aF439.0
aa(lp461
F356.0
aF440.0
aa(lp462
F356.0
aF441.0
aa(lp463
F356.0
aF442.0
aa(lp464
F356.0
aF443.0
aa(lp465
F356.0
aF444.0
aa(lp466
F356.0
aF445.0
aa(lp467
F356.0
aF446.0
aa(lp468
F356.0
aF447.0
aa(lp469
F356.0
aF448.0
aa(lp470
F356.0
aF449.0
aa(lp471
F356.0
aF450.0
aa(lp472
F356.0
aF451.0
aa(lp473
F356.0
aF452.0
aa(lp474
F356.0
aF453.0
aa(lp475
F356.0
aF454.0
aa(lp476
F356.0
aF455.0
aa(lp477
F356.0
aF456.0
aa(lp478
F356.0
aF457.0
aa(lp479
F356.0
aF458.0
aa(lp480
F356.0
aF459.0
aa(lp481
F356.0
aF460.0
aa(lp482
F356.0
aF461.0
aa(lp483
F356.0
aF462.0
aa(lp484
F356.0
aF463.0
aa(lp485
F356.0
aF464.0
aa(lp486
F356.0
aF465.0
aa(lp487
F356.0
aF466.0
aa(lp488
F356.0
aF467.0
aa(lp489
F356.0
aF468.0
aa(lp490
F356.0
aF469.0
aa(lp491
F356.0
aF470.0
aa(lp492
F356.0
aF471.0
aa(lp493
F356.0
aF472.0
aa(lp494
F356.0
aF473.0
aa(lp495
F356.0
aF474.0
aa(lp496
F356.0
aF475.0
aa(lp497
F356.0
aF476.0
aa(lp498
F356.0
aF477.0
aa(lp499
F356.0
aF478.0
aa(lp500
F356.0
aF479.0
aa(lp501
F356.0
aF480.0
aa(lp502
F355.0
aF481.0
aa(lp503
F354.5
aF482.0
aa(lp504
F354.0
aF483.0
aa(lp505
F354.0
aF484.0
aa(lp506
F354.0
aF485.0
aa(lp507
F354.0
aF486.0
aa(lp508
F354.0
aF487.0
aa(lp509
F354.0
aF488.0
aa(lp510
F354.0
aF489.0
aa(lp511
F354.0
aF490.0
aa(lp512
F354.0
aF491.0
aa(lp513
F354.0
aF492.0
aa(lp514
F354.0
aF493.0
aa(lp515
F354.0
aF494.0
aa(lp516
F354.0
aF495.0
aa(lp517
F354.0
aF496.0
aa(lp518
F354.0
aF497.0
aa(lp519
F354.0
aF498.0
aa(lp520
F354.0
aF499.0
aa(lp521
F354.0
aF500.0
aa(lp522
F354.0
aF501.0
aa(lp523
F354.0
aF502.0
aa(lp524
F354.0
aF503.0
aasg91
I2
sg92
F0.5
sasg154
I5
sg155
I0
sg156
g157
sg158
g159
sg160
I1323
sg161
g162
(I334
I365
I60
I96
tp525
Rp526
sba(i__main__
pickledNeuron
p527
(dp528
g3
(lp529
sg154
I3
sg155
I0
sg156
S'rightbackward'
p530
sg158
S'motor'
p531
sg160
Nsg161
g162
(I493
I486
I80
I51
tp532
Rp533
sba(i__main__
pickledNeuron
p534
(dp535
g3
(lp536
sg154
I2
sg155
I0
sg156
S'leftforward'
p537
sg158
g531
sg160
Nsg161
g162
(I317
I486
I80
I49
tp538
Rp539
sba(i__main__
pickledNeuron
p540
(dp541
g3
(lp542
sg154
I4
sg155
I0
sg156
S'leftbackward'
p543
sg158
g531
sg160
Nsg161
g162
(I482
I296
I80
I52
tp544
Rp545
sba(i__main__
pickledNeuron
p546
(dp547
g3
(lp548
sg154
I1
sg155
I0
sg156
S'rightforward'
p549
sg158
g531
sg160
Nsg161
g162
(I333
I293
I80
I51
tp550
Rp551
sba(i__main__
pickledNeuron
p552
(dp553
g3
(lp554
(dp555
g6
I6
sg7
(lp556
(lp557
F522.0
aF422.0
aa(lp558
F522.0
aF423.0
aa(lp559
F522.0
aF424.0
aa(lp560
F522.0
aF425.0
aa(lp561
F522.3333333333334
aF426.0
aa(lp562
F522.6666666666666
aF427.0
aa(lp563
F523.0
aF428.0
aa(lp564
F523.0
aF429.0
aa(lp565
F523.0
aF430.0
aa(lp566
F523.0
aF431.0
aa(lp567
F523.0
aF432.0
aa(lp568
F523.0
aF433.0
aa(lp569
F523.0
aF434.0
aa(lp570
F523.0
aF435.0
aa(lp571
F523.2
aF436.0
aa(lp572
F523.4
aF437.0
aa(lp573
F523.6
aF438.0
aa(lp574
F523.8
aF439.0
aa(lp575
F524.0
aF440.0
aa(lp576
F524.0
aF441.0
aa(lp577
F524.0
aF442.0
aa(lp578
F524.0
aF443.0
aa(lp579
F524.0
aF444.0
aa(lp580
F524.0
aF445.0
aa(lp581
F524.0
aF446.0
aa(lp582
F524.0
aF447.0
aa(lp583
F524.0
aF448.0
aa(lp584
F524.0
aF449.0
aa(lp585
F524.0
aF450.0
aa(lp586
F524.0
aF451.0
aa(lp587
F524.0
aF452.0
aa(lp588
F524.0
aF453.0
aa(lp589
F524.0
aF454.0
aa(lp590
F524.0
aF455.0
aa(lp591
F524.0
aF456.0
aa(lp592
F524.0
aF457.0
aa(lp593
F524.0
aF458.0
aa(lp594
F524.0
aF459.0
aa(lp595
F524.0
aF460.0
aa(lp596
F524.0
aF461.0
aa(lp597
F524.0
aF462.0
aa(lp598
F524.0
aF463.0
aa(lp599
F524.0
aF464.0
aa(lp600
F524.0
aF465.0
aa(lp601
F524.0
aF466.0
aa(lp602
F524.0
aF467.0
aa(lp603
F524.0
aF468.0
aa(lp604
F524.0
aF469.0
aa(lp605
F524.0
aF470.0
aa(lp606
F524.0
aF471.0
aa(lp607
F524.0
aF472.0
aa(lp608
F524.0
aF473.0
aa(lp609
F524.0
aF474.0
aa(lp610
F524.0
aF475.0
aa(lp611
F524.0
aF476.0
aa(lp612
F524.0
aF477.0
aa(lp613
F524.0
aF478.0
aa(lp614
F524.0
aF479.0
aa(lp615
F524.0
aF480.0
aa(lp616
F524.0
aF481.0
aa(lp617
F524.0
aF482.0
aa(lp618
F524.0
aF483.0
aa(lp619
F524.0
aF484.0
aa(lp620
F524.0
aF485.0
aa(lp621
F524.0
aF486.0
aa(lp622
F524.0
aF487.0
aa(lp623
F524.0
aF488.0
aa(lp624
F524.0
aF489.0
aa(lp625
F524.0
aF490.0
aa(lp626
F524.0
aF491.0
aa(lp627
F524.0
aF492.0
aa(lp628
F524.0
aF493.0
aa(lp629
F524.0
aF494.0
aa(lp630
F524.0
aF495.0
aa(lp631
F524.0
aF496.0
aa(lp632
F524.0
aF497.0
aa(lp633
F524.0
aF498.0
aa(lp634
F524.0
aF499.0
aa(lp635
F524.0
aF500.0
aasg91
I3
sg92
F0.5
sa(dp636
g6
I6
sg7
(lp637
(lp638
F527.0
aF404.0
aa(lp639
F527.0
aF403.0
aa(lp640
F527.0
aF402.0
aa(lp641
F527.2
aF401.0
aa(lp642
F527.4
aF400.0
aa(lp643
F527.6
aF399.0
aa(lp644
F527.8
aF398.0
aa(lp645
F528.0
aF397.0
aa(lp646
F528.0
aF396.0
aa(lp647
F528.0
aF395.0
aa(lp648
F528.0
aF394.0
aa(lp649
F528.0
aF393.0
aa(lp650
F528.0
aF392.0
aa(lp651
F528.0
aF391.0
aa(lp652
F528.0
aF390.0
aa(lp653
F528.0
aF389.0
aa(lp654
F528.0
aF388.0
aa(lp655
F528.0
aF387.0
aa(lp656
F528.0
aF386.0
aa(lp657
F528.0
aF385.0
aa(lp658
F528.0
aF384.0
aa(lp659
F528.0
aF383.0
aa(lp660
F528.0
aF382.0
aa(lp661
F528.0
aF381.0
aa(lp662
F528.0
aF380.0
aa(lp663
F528.0
aF379.0
aa(lp664
F528.0
aF378.0
aa(lp665
F528.0
aF377.0
aa(lp666
F528.0
aF376.0
aa(lp667
F528.0
aF375.0
aa(lp668
F528.0
aF374.0
aa(lp669
F528.0
aF373.0
aa(lp670
F528.0
aF372.0
aa(lp671
F528.0
aF371.0
aa(lp672
F528.0
aF370.0
aa(lp673
F528.0
aF369.0
aa(lp674
F528.0
aF368.0
aa(lp675
F528.0
aF367.0
aa(lp676
F528.0
aF366.0
aa(lp677
F528.0
aF365.0
aa(lp678
F528.0
aF364.0
aa(lp679
F528.0
aF363.0
aa(lp680
F528.0
aF362.0
aa(lp681
F528.0
aF361.0
aa(lp682
F528.0
aF360.0
aa(lp683
F528.0
aF359.0
aa(lp684
F528.0
aF358.0
aa(lp685
F528.0
aF357.0
aa(lp686
F528.0
aF356.0
aa(lp687
F528.0
aF355.0
aa(lp688
F528.0
aF354.0
aa(lp689
F528.0
aF353.0
aa(lp690
F528.0
aF352.0
aa(lp691
F528.0
aF351.0
aa(lp692
F528.0
aF350.0
aa(lp693
F528.0
aF349.0
aa(lp694
F528.0
aF348.0
aa(lp695
F528.0
aF347.0
aa(lp696
F528.0
aF346.0
aa(lp697
F528.0
aF345.0
aa(lp698
F528.0
aF344.0
aa(lp699
F528.0
aF343.0
aa(lp700
F528.0
aF342.0
aa(lp701
F528.5
aF341.0
aa(lp702
F529.0
aF340.0
aa(lp703
F529.0
aF339.0
aa(lp704
F529.0
aF338.0
aa(lp705
F529.0
aF337.0
aa(lp706
F529.0
aF336.0
aa(lp707
F529.0
aF335.0
aa(lp708
F529.0
aF334.0
aa(lp709
F529.0
aF333.0
aa(lp710
F529.0
aF332.0
aa(lp711
F529.0
aF331.0
aa(lp712
F529.3333333333334
aF330.0
aa(lp713
F529.6666666666666
aF329.0
aa(lp714
F530.0
aF328.0
aa(lp715
F530.0
aF327.0
aa(lp716
F530.0
aF326.0
aasg91
I4
sg92
F0.5
sasg154
I6
sg155
I0
sg156
g157
sg158
g159
sg160
I1571
sg161
g162
(I500
I368
I60
I96
tp717
Rp718
sba.